
0-kernel.elf:     file format elf64-littleaarch64


Disassembly of section .text.boot:

0000000000080000 <_start>:
   80000:	d5384241 	mrs	x1, currentel
   80004:	927d0021 	and	x1, x1, #0x8
   80008:	b4000101 	cbz	x1, 80028 <el1_entry>
   8000c:	580003a2 	ldr	x2, 80080 <exit+0xc>
   80010:	d51c1102 	msr	hcr_el2, x2
   80014:	580003a3 	ldr	x3, 80088 <exit+0x14>
   80018:	d51c4003 	msr	spsr_el2, x3
   8001c:	10000064 	adr	x4, 80028 <el1_entry>
   80020:	d51c4024 	msr	elr_el2, x4
   80024:	d69f03e0 	eret

0000000000080028 <el1_entry>:
   80028:	58000342 	ldr	x2, 80090 <exit+0x1c>
   8002c:	d5181002 	msr	sctlr_el1, x2
   80030:	d5034fdf 	msr	daifset, #0xf
   80034:	d50041bf 	msr	spsel, #0x1
   80038:	58000300 	ldr	x0, 80098 <exit+0x24>
   8003c:	9100001f 	mov	sp, x0
   80040:	58000301 	ldr	x1, 800a0 <exit+0x2c>
   80044:	d518c001 	msr	vbar_el1, x1
   80048:	940012ea 	bl	84bf0 <kmain>

000000000008004c <EXIT>:
   8004c:	d2800482 	mov	x2, #0x24                  	// #36
   80050:	d2800380 	mov	x0, #0x1c                  	// #28
   80054:	f2bfc202 	movk	x2, #0xfe10, lsl #16
   80058:	f2bfc200 	movk	x0, #0xfe10, lsl #16
   8005c:	52800023 	mov	w3, #0x1                   	// #1
   80060:	52800401 	mov	w1, #0x20                  	// #32
   80064:	72ab4003 	movk	w3, #0x5a00, lsl #16
   80068:	b9000043 	str	w3, [x2]
   8006c:	72ab4001 	movk	w1, #0x5a00, lsl #16
   80070:	b9000001 	str	w1, [x0]

0000000000080074 <exit>:
   80074:	d503207f 	wfi
   80078:	17ffffff 	b	80074 <exit>
   8007c:	00000000 	udf	#0
   80080:	80000000 	.inst	0x80000000 ; undefined
   80084:	00000000 	udf	#0
   80088:	000001c5 	udf	#453
   8008c:	00000000 	udf	#0
   80090:	30d50a00 	adr	x0, 2a1d1 <_start-0x55e2f>
   80094:	00000000 	udf	#0
   80098:	00401700 	.inst	0x00401700 ; undefined
   8009c:	00000000 	udf	#0
   800a0:	0008a000 	.inst	0x0008a000 ; undefined
   800a4:	00000000 	udf	#0

Disassembly of section .text:

0000000000080800 <clockNotifier>:
   80800:	a9be7bfd 	stp	x29, x30, [sp, #-32]!
   80804:	910003fd 	mov	x29, sp
   80808:	d0000040 	adrp	x0, 8a000 <vector_table_el1>
   8080c:	91200000 	add	x0, x0, #0x800
   80810:	94001329 	bl	854b4 <RegisterAs>
   80814:	52800c60 	mov	w0, #0x63                  	// #99
   80818:	9400201a 	bl	88880 <AwaitEvent>
   8081c:	93407c00 	sxtw	x0, w0
   80820:	f9000fe0 	str	x0, [sp, #24]
   80824:	d0000040 	adrp	x0, 8a000 <vector_table_el1>
   80828:	91204000 	add	x0, x0, #0x810
   8082c:	9400136a 	bl	855d4 <WhoIs>
   80830:	2a0003e5 	mov	w5, w0
   80834:	910053e0 	add	x0, sp, #0x14
   80838:	52800004 	mov	w4, #0x0                   	// #0
   8083c:	aa0003e3 	mov	x3, x0
   80840:	52800082 	mov	w2, #0x4                   	// #4
   80844:	d0000040 	adrp	x0, 8a000 <vector_table_el1>
   80848:	91208001 	add	x1, x0, #0x820
   8084c:	2a0503e0 	mov	w0, w5
   80850:	94001fce 	bl	88788 <Send>
   80854:	d503201f 	nop
   80858:	17ffffef 	b	80814 <clockNotifier+0x14>

000000000008085c <clock_server>:
   8085c:	a9af7bfd 	stp	x29, x30, [sp, #-272]!
   80860:	910003fd 	mov	x29, sp
   80864:	d0000040 	adrp	x0, 8a000 <vector_table_el1>
   80868:	91204000 	add	x0, x0, #0x810
   8086c:	94001312 	bl	854b4 <RegisterAs>
   80870:	9102a3e0 	add	x0, sp, #0xa8
   80874:	d2800a02 	mov	x2, #0x50                  	// #80
   80878:	12800001 	mov	w1, #0xffffffff            	// #-1
   8087c:	940020cb 	bl	88ba8 <memset>
   80880:	b900a7ff 	str	wzr, [sp, #164]
   80884:	b940a7e0 	ldr	w0, [sp, #164]
   80888:	11000400 	add	w0, w0, #0x1
   8088c:	b900a7e0 	str	w0, [sp, #164]
   80890:	910063e1 	add	x1, sp, #0x18
   80894:	910283e0 	add	x0, sp, #0xa0
   80898:	52800642 	mov	w2, #0x32                  	// #50
   8089c:	94001fc6 	bl	887b4 <Receive>
   808a0:	b9010bff 	str	wzr, [sp, #264]
   808a4:	b9010fff 	str	wzr, [sp, #268]
   808a8:	14000020 	b	80928 <clock_server+0xcc>
   808ac:	b9810fe0 	ldrsw	x0, [sp, #268]
   808b0:	d37ef400 	lsl	x0, x0, #2
   808b4:	9102a3e1 	add	x1, sp, #0xa8
   808b8:	b8606820 	ldr	w0, [x1, x0]
   808bc:	3100041f 	cmn	w0, #0x1
   808c0:	540002e0 	b.eq	8091c <clock_server+0xc0>  // b.none
   808c4:	b9810fe0 	ldrsw	x0, [sp, #268]
   808c8:	d37ef400 	lsl	x0, x0, #2
   808cc:	9102a3e1 	add	x1, sp, #0xa8
   808d0:	b8606821 	ldr	w1, [x1, x0]
   808d4:	b940a7e0 	ldr	w0, [sp, #164]
   808d8:	6b00003f 	cmp	w1, w0
   808dc:	5400020c 	b.gt	8091c <clock_server+0xc0>
   808e0:	b9410fe2 	ldr	w2, [sp, #268]
   808e4:	d0000040 	adrp	x0, 8a000 <vector_table_el1>
   808e8:	9120a001 	add	x1, x0, #0x828
   808ec:	d2800020 	mov	x0, #0x1                   	// #1
   808f0:	940016d2 	bl	86438 <uart_printf>
   808f4:	b9810fe0 	ldrsw	x0, [sp, #268]
   808f8:	d37ef400 	lsl	x0, x0, #2
   808fc:	9102a3e1 	add	x1, sp, #0xa8
   80900:	12800002 	mov	w2, #0xffffffff            	// #-1
   80904:	b8206822 	str	w2, [x1, x0]
   80908:	910293e0 	add	x0, sp, #0xa4
   8090c:	52800082 	mov	w2, #0x4                   	// #4
   80910:	aa0003e1 	mov	x1, x0
   80914:	b9410fe0 	ldr	w0, [sp, #268]
   80918:	94001fb0 	bl	887d8 <Reply>
   8091c:	b9410fe0 	ldr	w0, [sp, #268]
   80920:	11000400 	add	w0, w0, #0x1
   80924:	b9010fe0 	str	w0, [sp, #268]
   80928:	b9410fe0 	ldr	w0, [sp, #268]
   8092c:	71004c1f 	cmp	w0, #0x13
   80930:	54fffbed 	b.le	808ac <clock_server+0x50>
   80934:	d0000040 	adrp	x0, 8a000 <vector_table_el1>
   80938:	91200000 	add	x0, x0, #0x800
   8093c:	94001326 	bl	855d4 <WhoIs>
   80940:	b90107e0 	str	w0, [sp, #260]
   80944:	b940a3e1 	ldr	w1, [sp, #160]
   80948:	b94107e0 	ldr	w0, [sp, #260]
   8094c:	6b00003f 	cmp	w1, w0
   80950:	54000181 	b.ne	80980 <clock_server+0x124>  // b.any
   80954:	b940a3e0 	ldr	w0, [sp, #160]
   80958:	2a0003e3 	mov	w3, w0
   8095c:	910293e0 	add	x0, sp, #0xa4
   80960:	52800102 	mov	w2, #0x8                   	// #8
   80964:	aa0003e1 	mov	x1, x0
   80968:	2a0303e0 	mov	w0, w3
   8096c:	94001f9b 	bl	887d8 <Reply>
   80970:	b940a7e0 	ldr	w0, [sp, #164]
   80974:	11000400 	add	w0, w0, #0x1
   80978:	b900a7e0 	str	w0, [sp, #164]
   8097c:	17ffffc2 	b	80884 <clock_server+0x28>
   80980:	910063e0 	add	x0, sp, #0x18
   80984:	aa0003e2 	mov	x2, x0
   80988:	d0000040 	adrp	x0, 8a000 <vector_table_el1>
   8098c:	9120e001 	add	x1, x0, #0x838
   80990:	d2800020 	mov	x0, #0x1                   	// #1
   80994:	940016a9 	bl	86438 <uart_printf>
   80998:	910143e1 	add	x1, sp, #0x50
   8099c:	910063e0 	add	x0, sp, #0x18
   809a0:	52800142 	mov	w2, #0xa                   	// #10
   809a4:	940001a7 	bl	81040 <parse_char_arr>
   809a8:	b9010be0 	str	w0, [sp, #264]
   809ac:	f9402be2 	ldr	x2, [sp, #80]
   809b0:	d0000040 	adrp	x0, 8a000 <vector_table_el1>
   809b4:	91208001 	add	x1, x0, #0x820
   809b8:	aa0203e0 	mov	x0, x2
   809bc:	94000158 	bl	80f1c <strcmp_ret>
   809c0:	7100001f 	cmp	w0, #0x0
   809c4:	54000180 	b.eq	809f4 <clock_server+0x198>  // b.none
   809c8:	394063e0 	ldrb	w0, [sp, #24]
   809cc:	92401c00 	and	x0, x0, #0xff
   809d0:	f9007fe0 	str	x0, [sp, #248]
   809d4:	b940a3e0 	ldr	w0, [sp, #160]
   809d8:	2a0003e3 	mov	w3, w0
   809dc:	910293e0 	add	x0, sp, #0xa4
   809e0:	52800082 	mov	w2, #0x4                   	// #4
   809e4:	aa0003e1 	mov	x1, x0
   809e8:	2a0303e0 	mov	w0, w3
   809ec:	94001f7b 	bl	887d8 <Reply>
   809f0:	17ffffa5 	b	80884 <clock_server+0x28>
   809f4:	f9402be2 	ldr	x2, [sp, #80]
   809f8:	d0000040 	adrp	x0, 8a000 <vector_table_el1>
   809fc:	91212001 	add	x1, x0, #0x848
   80a00:	aa0203e0 	mov	x0, x2
   80a04:	94000146 	bl	80f1c <strcmp_ret>
   80a08:	7100001f 	cmp	w0, #0x0
   80a0c:	540003e0 	b.eq	80a88 <clock_server+0x22c>  // b.none
   80a10:	f9402fe0 	ldr	x0, [sp, #88]
   80a14:	940000cb 	bl	80d40 <atoi>
   80a18:	b90103e0 	str	w0, [sp, #256]
   80a1c:	b940a3e0 	ldr	w0, [sp, #160]
   80a20:	b94103e3 	ldr	w3, [sp, #256]
   80a24:	2a0003e2 	mov	w2, w0
   80a28:	d0000040 	adrp	x0, 8a000 <vector_table_el1>
   80a2c:	91214001 	add	x1, x0, #0x850
   80a30:	d2800020 	mov	x0, #0x1                   	// #1
   80a34:	94001681 	bl	86438 <uart_printf>
   80a38:	b940a7e1 	ldr	w1, [sp, #164]
   80a3c:	b940a3e3 	ldr	w3, [sp, #160]
   80a40:	b94103e0 	ldr	w0, [sp, #256]
   80a44:	0b000022 	add	w2, w1, w0
   80a48:	2a0303e0 	mov	w0, w3
   80a4c:	d37ef400 	lsl	x0, x0, #2
   80a50:	9102a3e1 	add	x1, sp, #0xa8
   80a54:	b8206822 	str	w2, [x1, x0]
   80a58:	b940a3e2 	ldr	w2, [sp, #160]
   80a5c:	b940a3e0 	ldr	w0, [sp, #160]
   80a60:	2a0003e0 	mov	w0, w0
   80a64:	d37ef400 	lsl	x0, x0, #2
   80a68:	9102a3e1 	add	x1, sp, #0xa8
   80a6c:	b8606820 	ldr	w0, [x1, x0]
   80a70:	2a0003e3 	mov	w3, w0
   80a74:	d0000040 	adrp	x0, 8a000 <vector_table_el1>
   80a78:	9121e001 	add	x1, x0, #0x878
   80a7c:	d2800020 	mov	x0, #0x1                   	// #1
   80a80:	9400166e 	bl	86438 <uart_printf>
   80a84:	17ffff80 	b	80884 <clock_server+0x28>
   80a88:	f9402be2 	ldr	x2, [sp, #80]
   80a8c:	d0000040 	adrp	x0, 8a000 <vector_table_el1>
   80a90:	91224001 	add	x1, x0, #0x890
   80a94:	aa0203e0 	mov	x0, x2
   80a98:	94000121 	bl	80f1c <strcmp_ret>
   80a9c:	7100001f 	cmp	w0, #0x0
   80aa0:	54ffef20 	b.eq	80884 <clock_server+0x28>  // b.none
   80aa4:	f9402fe0 	ldr	x0, [sp, #88]
   80aa8:	940000a6 	bl	80d40 <atoi>
   80aac:	aa0003e1 	mov	x1, x0
   80ab0:	b940a3e0 	ldr	w0, [sp, #160]
   80ab4:	2a0103e2 	mov	w2, w1
   80ab8:	2a0003e0 	mov	w0, w0
   80abc:	d37ef400 	lsl	x0, x0, #2
   80ac0:	9102a3e1 	add	x1, sp, #0xa8
   80ac4:	b8206822 	str	w2, [x1, x0]
   80ac8:	17ffff6f 	b	80884 <clock_server+0x28>

0000000000080acc <Time>:
   80acc:	a9bd7bfd 	stp	x29, x30, [sp, #-48]!
   80ad0:	910003fd 	mov	x29, sp
   80ad4:	b9001fe0 	str	w0, [sp, #28]
   80ad8:	12800000 	mov	w0, #0xffffffff            	// #-1
   80adc:	b9002fe0 	str	w0, [sp, #44]
   80ae0:	9100b3e0 	add	x0, sp, #0x2c
   80ae4:	52800084 	mov	w4, #0x4                   	// #4
   80ae8:	aa0003e3 	mov	x3, x0
   80aec:	528000a2 	mov	w2, #0x5                   	// #5
   80af0:	d0000040 	adrp	x0, 8a000 <vector_table_el1>
   80af4:	91208001 	add	x1, x0, #0x820
   80af8:	b9401fe0 	ldr	w0, [sp, #28]
   80afc:	94001f23 	bl	88788 <Send>
   80b00:	3100041f 	cmn	w0, #0x1
   80b04:	54000061 	b.ne	80b10 <Time+0x44>  // b.any
   80b08:	12800000 	mov	w0, #0xffffffff            	// #-1
   80b0c:	14000002 	b	80b14 <Time+0x48>
   80b10:	b9402fe0 	ldr	w0, [sp, #44]
   80b14:	a8c37bfd 	ldp	x29, x30, [sp], #48
   80b18:	d65f03c0 	ret

0000000000080b1c <Delay>:
   80b1c:	a9ba7bfd 	stp	x29, x30, [sp, #-96]!
   80b20:	910003fd 	mov	x29, sp
   80b24:	b9001fe0 	str	w0, [sp, #28]
   80b28:	b9001be1 	str	w1, [sp, #24]
   80b2c:	d28ca880 	mov	x0, #0x6544                	// #25924
   80b30:	f2ac2d80 	movk	x0, #0x616c, lsl #16
   80b34:	f2c40f20 	movk	x0, #0x2079, lsl #32
   80b38:	f90017e0 	str	x0, [sp, #40]
   80b3c:	f9001bff 	str	xzr, [sp, #48]
   80b40:	f9001fff 	str	xzr, [sp, #56]
   80b44:	f90023ff 	str	xzr, [sp, #64]
   80b48:	f90027ff 	str	xzr, [sp, #72]
   80b4c:	f9002bff 	str	xzr, [sp, #80]
   80b50:	7900b3ff 	strh	wzr, [sp, #88]
   80b54:	b9401be0 	ldr	w0, [sp, #24]
   80b58:	910083e1 	add	x1, sp, #0x20
   80b5c:	94001ffd 	bl	88b50 <i2a>
   80b60:	910083e1 	add	x1, sp, #0x20
   80b64:	9100a3e0 	add	x0, sp, #0x28
   80b68:	94000110 	bl	80fa8 <strcat>
   80b6c:	910063e1 	add	x1, sp, #0x18
   80b70:	9100a3e0 	add	x0, sp, #0x28
   80b74:	52800084 	mov	w4, #0x4                   	// #4
   80b78:	aa0103e3 	mov	x3, x1
   80b7c:	52800642 	mov	w2, #0x32                  	// #50
   80b80:	aa0003e1 	mov	x1, x0
   80b84:	b9401fe0 	ldr	w0, [sp, #28]
   80b88:	94001f00 	bl	88788 <Send>
   80b8c:	3100041f 	cmn	w0, #0x1
   80b90:	54000061 	b.ne	80b9c <Delay+0x80>  // b.any
   80b94:	12800000 	mov	w0, #0xffffffff            	// #-1
   80b98:	14000002 	b	80ba0 <Delay+0x84>
   80b9c:	b9401be0 	ldr	w0, [sp, #24]
   80ba0:	a8c67bfd 	ldp	x29, x30, [sp], #96
   80ba4:	d65f03c0 	ret

0000000000080ba8 <DelayUntil>:
   80ba8:	a9ba7bfd 	stp	x29, x30, [sp, #-96]!
   80bac:	910003fd 	mov	x29, sp
   80bb0:	b9001fe0 	str	w0, [sp, #28]
   80bb4:	b9001be1 	str	w1, [sp, #24]
   80bb8:	d28ca880 	mov	x0, #0x6544                	// #25924
   80bbc:	f2ac2d80 	movk	x0, #0x616c, lsl #16
   80bc0:	f2caaf20 	movk	x0, #0x5579, lsl #32
   80bc4:	f2ee8dc0 	movk	x0, #0x746e, lsl #48
   80bc8:	f90017e0 	str	x0, [sp, #40]
   80bcc:	d28d8d20 	mov	x0, #0x6c69                	// #27753
   80bd0:	f2a00400 	movk	x0, #0x20, lsl #16
   80bd4:	f9001be0 	str	x0, [sp, #48]
   80bd8:	f9001fff 	str	xzr, [sp, #56]
   80bdc:	f90023ff 	str	xzr, [sp, #64]
   80be0:	f90027ff 	str	xzr, [sp, #72]
   80be4:	f9002bff 	str	xzr, [sp, #80]
   80be8:	7900b3ff 	strh	wzr, [sp, #88]
   80bec:	b9401be0 	ldr	w0, [sp, #24]
   80bf0:	910083e1 	add	x1, sp, #0x20
   80bf4:	94001fd7 	bl	88b50 <i2a>
   80bf8:	910083e1 	add	x1, sp, #0x20
   80bfc:	9100a3e0 	add	x0, sp, #0x28
   80c00:	940000ea 	bl	80fa8 <strcat>
   80c04:	910063e1 	add	x1, sp, #0x18
   80c08:	9100a3e0 	add	x0, sp, #0x28
   80c0c:	52800084 	mov	w4, #0x4                   	// #4
   80c10:	aa0103e3 	mov	x3, x1
   80c14:	52800642 	mov	w2, #0x32                  	// #50
   80c18:	aa0003e1 	mov	x1, x0
   80c1c:	b9401fe0 	ldr	w0, [sp, #28]
   80c20:	94001eda 	bl	88788 <Send>
   80c24:	3100041f 	cmn	w0, #0x1
   80c28:	54000061 	b.ne	80c34 <DelayUntil+0x8c>  // b.any
   80c2c:	12800000 	mov	w0, #0xffffffff            	// #-1
   80c30:	14000002 	b	80c38 <DelayUntil+0x90>
   80c34:	b9401be0 	ldr	w0, [sp, #24]
   80c38:	a8c67bfd 	ldp	x29, x30, [sp], #96
   80c3c:	d65f03c0 	ret

0000000000080c40 <min>:
   80c40:	d10043ff 	sub	sp, sp, #0x10
   80c44:	f90007e0 	str	x0, [sp, #8]
   80c48:	f90003e1 	str	x1, [sp]
   80c4c:	f94007e1 	ldr	x1, [sp, #8]
   80c50:	f94003e0 	ldr	x0, [sp]
   80c54:	eb00003f 	cmp	x1, x0
   80c58:	54000062 	b.cs	80c64 <min+0x24>  // b.hs, b.nlast
   80c5c:	f94007e0 	ldr	x0, [sp, #8]
   80c60:	14000002 	b	80c68 <min+0x28>
   80c64:	f94003e0 	ldr	x0, [sp]
   80c68:	910043ff 	add	sp, sp, #0x10
   80c6c:	d65f03c0 	ret

0000000000080c70 <max>:
   80c70:	d10043ff 	sub	sp, sp, #0x10
   80c74:	f90007e0 	str	x0, [sp, #8]
   80c78:	f90003e1 	str	x1, [sp]
   80c7c:	f94007e1 	ldr	x1, [sp, #8]
   80c80:	f94003e0 	ldr	x0, [sp]
   80c84:	eb00003f 	cmp	x1, x0
   80c88:	54000069 	b.ls	80c94 <max+0x24>  // b.plast
   80c8c:	f94007e0 	ldr	x0, [sp, #8]
   80c90:	14000002 	b	80c98 <max+0x28>
   80c94:	f94003e0 	ldr	x0, [sp]
   80c98:	910043ff 	add	sp, sp, #0x10
   80c9c:	d65f03c0 	ret

0000000000080ca0 <is_empty>:
   80ca0:	d10043ff 	sub	sp, sp, #0x10
   80ca4:	f90007e0 	str	x0, [sp, #8]
   80ca8:	f94007e0 	ldr	x0, [sp, #8]
   80cac:	39400000 	ldrb	w0, [x0]
   80cb0:	7100001f 	cmp	w0, #0x0
   80cb4:	1a9f17e0 	cset	w0, eq	// eq = none
   80cb8:	12001c00 	and	w0, w0, #0xff
   80cbc:	13001c00 	sxtb	w0, w0
   80cc0:	910043ff 	add	sp, sp, #0x10
   80cc4:	d65f03c0 	ret

0000000000080cc8 <hex_atoi>:
   80cc8:	d10043ff 	sub	sp, sp, #0x10
   80ccc:	f90007e0 	str	x0, [sp, #8]
   80cd0:	f94007e0 	ldr	x0, [sp, #8]
   80cd4:	39400000 	ldrb	w0, [x0]
   80cd8:	7100001f 	cmp	w0, #0x0
   80cdc:	54000061 	b.ne	80ce8 <hex_atoi+0x20>  // b.any
   80ce0:	52800000 	mov	w0, #0x0                   	// #0
   80ce4:	14000015 	b	80d38 <hex_atoi+0x70>
   80ce8:	f94007e0 	ldr	x0, [sp, #8]
   80cec:	91000400 	add	x0, x0, #0x1
   80cf0:	39400000 	ldrb	w0, [x0]
   80cf4:	7100001f 	cmp	w0, #0x0
   80cf8:	54000061 	b.ne	80d04 <hex_atoi+0x3c>  // b.any
   80cfc:	52800000 	mov	w0, #0x0                   	// #0
   80d00:	1400000e 	b	80d38 <hex_atoi+0x70>
   80d04:	f94007e0 	ldr	x0, [sp, #8]
   80d08:	39400000 	ldrb	w0, [x0]
   80d0c:	7100c01f 	cmp	w0, #0x30
   80d10:	54000101 	b.ne	80d30 <hex_atoi+0x68>  // b.any
   80d14:	f94007e0 	ldr	x0, [sp, #8]
   80d18:	91000400 	add	x0, x0, #0x1
   80d1c:	39400000 	ldrb	w0, [x0]
   80d20:	7101e01f 	cmp	w0, #0x78
   80d24:	54000061 	b.ne	80d30 <hex_atoi+0x68>  // b.any
   80d28:	52800020 	mov	w0, #0x1                   	// #1
   80d2c:	14000002 	b	80d34 <hex_atoi+0x6c>
   80d30:	52800000 	mov	w0, #0x0                   	// #0
   80d34:	13001c00 	sxtb	w0, w0
   80d38:	910043ff 	add	sp, sp, #0x10
   80d3c:	d65f03c0 	ret

0000000000080d40 <atoi>:
   80d40:	a9bd7bfd 	stp	x29, x30, [sp, #-48]!
   80d44:	910003fd 	mov	x29, sp
   80d48:	f9000fe0 	str	x0, [sp, #24]
   80d4c:	39009fff 	strb	wzr, [sp, #39]
   80d50:	f9400fe0 	ldr	x0, [sp, #24]
   80d54:	39400000 	ldrb	w0, [x0]
   80d58:	7100b41f 	cmp	w0, #0x2d
   80d5c:	540000c1 	b.ne	80d74 <atoi+0x34>  // b.any
   80d60:	52800020 	mov	w0, #0x1                   	// #1
   80d64:	39009fe0 	strb	w0, [sp, #39]
   80d68:	f9400fe0 	ldr	x0, [sp, #24]
   80d6c:	91000400 	add	x0, x0, #0x1
   80d70:	f9000fe0 	str	x0, [sp, #24]
   80d74:	f90017ff 	str	xzr, [sp, #40]
   80d78:	14000011 	b	80dbc <atoi+0x7c>
   80d7c:	f94017e1 	ldr	x1, [sp, #40]
   80d80:	aa0103e0 	mov	x0, x1
   80d84:	d37ef400 	lsl	x0, x0, #2
   80d88:	8b010000 	add	x0, x0, x1
   80d8c:	d37ff800 	lsl	x0, x0, #1
   80d90:	f90017e0 	str	x0, [sp, #40]
   80d94:	f9400fe0 	ldr	x0, [sp, #24]
   80d98:	39400000 	ldrb	w0, [x0]
   80d9c:	94001f09 	bl	889c0 <a2d>
   80da0:	93407c00 	sxtw	x0, w0
   80da4:	f94017e1 	ldr	x1, [sp, #40]
   80da8:	8b000020 	add	x0, x1, x0
   80dac:	f90017e0 	str	x0, [sp, #40]
   80db0:	f9400fe0 	ldr	x0, [sp, #24]
   80db4:	91000400 	add	x0, x0, #0x1
   80db8:	f9000fe0 	str	x0, [sp, #24]
   80dbc:	f9400fe0 	ldr	x0, [sp, #24]
   80dc0:	39400000 	ldrb	w0, [x0]
   80dc4:	7100001f 	cmp	w0, #0x0
   80dc8:	54fffda1 	b.ne	80d7c <atoi+0x3c>  // b.any
   80dcc:	f94017e0 	ldr	x0, [sp, #40]
   80dd0:	a8c37bfd 	ldp	x29, x30, [sp], #48
   80dd4:	d65f03c0 	ret

0000000000080dd8 <hexatoi>:
   80dd8:	a9bd7bfd 	stp	x29, x30, [sp, #-48]!
   80ddc:	910003fd 	mov	x29, sp
   80de0:	f9000fe0 	str	x0, [sp, #24]
   80de4:	f90017ff 	str	xzr, [sp, #40]
   80de8:	f9400fe0 	ldr	x0, [sp, #24]
   80dec:	91000400 	add	x0, x0, #0x1
   80df0:	f9000fe0 	str	x0, [sp, #24]
   80df4:	f9400fe0 	ldr	x0, [sp, #24]
   80df8:	91000400 	add	x0, x0, #0x1
   80dfc:	f9000fe0 	str	x0, [sp, #24]
   80e00:	1400000e 	b	80e38 <hexatoi+0x60>
   80e04:	f94017e0 	ldr	x0, [sp, #40]
   80e08:	d37cec00 	lsl	x0, x0, #4
   80e0c:	f90017e0 	str	x0, [sp, #40]
   80e10:	f9400fe0 	ldr	x0, [sp, #24]
   80e14:	39400000 	ldrb	w0, [x0]
   80e18:	94001eea 	bl	889c0 <a2d>
   80e1c:	93407c00 	sxtw	x0, w0
   80e20:	f94017e1 	ldr	x1, [sp, #40]
   80e24:	8b000020 	add	x0, x1, x0
   80e28:	f90017e0 	str	x0, [sp, #40]
   80e2c:	f9400fe0 	ldr	x0, [sp, #24]
   80e30:	91000400 	add	x0, x0, #0x1
   80e34:	f9000fe0 	str	x0, [sp, #24]
   80e38:	f9400fe0 	ldr	x0, [sp, #24]
   80e3c:	39400000 	ldrb	w0, [x0]
   80e40:	7100001f 	cmp	w0, #0x0
   80e44:	54fffe01 	b.ne	80e04 <hexatoi+0x2c>  // b.any
   80e48:	f94017e0 	ldr	x0, [sp, #40]
   80e4c:	a8c37bfd 	ldp	x29, x30, [sp], #48
   80e50:	d65f03c0 	ret

0000000000080e54 <strcmp>:
   80e54:	d10083ff 	sub	sp, sp, #0x20
   80e58:	f9000fe0 	str	x0, [sp, #24]
   80e5c:	f9000be1 	str	x1, [sp, #16]
   80e60:	f90007e2 	str	x2, [sp, #8]
   80e64:	1400001a 	b	80ecc <strcmp+0x78>
   80e68:	f9400be0 	ldr	x0, [sp, #16]
   80e6c:	39400001 	ldrb	w1, [x0]
   80e70:	f94007e0 	ldr	x0, [sp, #8]
   80e74:	39400000 	ldrb	w0, [x0]
   80e78:	6b00003f 	cmp	w1, w0
   80e7c:	54000080 	b.eq	80e8c <strcmp+0x38>  // b.none
   80e80:	f9400fe0 	ldr	x0, [sp, #24]
   80e84:	b900001f 	str	wzr, [x0]
   80e88:	14000023 	b	80f14 <strcmp+0xc0>
   80e8c:	f9400be0 	ldr	x0, [sp, #16]
   80e90:	91000400 	add	x0, x0, #0x1
   80e94:	f9000be0 	str	x0, [sp, #16]
   80e98:	f94007e0 	ldr	x0, [sp, #8]
   80e9c:	91000400 	add	x0, x0, #0x1
   80ea0:	f90007e0 	str	x0, [sp, #8]
   80ea4:	f9400be0 	ldr	x0, [sp, #16]
   80ea8:	39400001 	ldrb	w1, [x0]
   80eac:	f94007e0 	ldr	x0, [sp, #8]
   80eb0:	39400000 	ldrb	w0, [x0]
   80eb4:	6b00003f 	cmp	w1, w0
   80eb8:	1a9f17e0 	cset	w0, eq	// eq = none
   80ebc:	12001c00 	and	w0, w0, #0xff
   80ec0:	2a0003e1 	mov	w1, w0
   80ec4:	f9400fe0 	ldr	x0, [sp, #24]
   80ec8:	b9000001 	str	w1, [x0]
   80ecc:	f9400be0 	ldr	x0, [sp, #16]
   80ed0:	39400000 	ldrb	w0, [x0]
   80ed4:	7100001f 	cmp	w0, #0x0
   80ed8:	540000a0 	b.eq	80eec <strcmp+0x98>  // b.none
   80edc:	f94007e0 	ldr	x0, [sp, #8]
   80ee0:	39400000 	ldrb	w0, [x0]
   80ee4:	7100001f 	cmp	w0, #0x0
   80ee8:	54fffc01 	b.ne	80e68 <strcmp+0x14>  // b.any
   80eec:	f9400be0 	ldr	x0, [sp, #16]
   80ef0:	39400001 	ldrb	w1, [x0]
   80ef4:	f94007e0 	ldr	x0, [sp, #8]
   80ef8:	39400000 	ldrb	w0, [x0]
   80efc:	6b00003f 	cmp	w1, w0
   80f00:	1a9f17e0 	cset	w0, eq	// eq = none
   80f04:	12001c00 	and	w0, w0, #0xff
   80f08:	2a0003e1 	mov	w1, w0
   80f0c:	f9400fe0 	ldr	x0, [sp, #24]
   80f10:	b9000001 	str	w1, [x0]
   80f14:	910083ff 	add	sp, sp, #0x20
   80f18:	d65f03c0 	ret

0000000000080f1c <strcmp_ret>:
   80f1c:	d10043ff 	sub	sp, sp, #0x10
   80f20:	f90007e0 	str	x0, [sp, #8]
   80f24:	f90003e1 	str	x1, [sp]
   80f28:	1400000f 	b	80f64 <strcmp_ret+0x48>
   80f2c:	f94007e0 	ldr	x0, [sp, #8]
   80f30:	39400001 	ldrb	w1, [x0]
   80f34:	f94003e0 	ldr	x0, [sp]
   80f38:	39400000 	ldrb	w0, [x0]
   80f3c:	6b00003f 	cmp	w1, w0
   80f40:	54000060 	b.eq	80f4c <strcmp_ret+0x30>  // b.none
   80f44:	52800000 	mov	w0, #0x0                   	// #0
   80f48:	14000016 	b	80fa0 <strcmp_ret+0x84>
   80f4c:	f94007e0 	ldr	x0, [sp, #8]
   80f50:	91000400 	add	x0, x0, #0x1
   80f54:	f90007e0 	str	x0, [sp, #8]
   80f58:	f94003e0 	ldr	x0, [sp]
   80f5c:	91000400 	add	x0, x0, #0x1
   80f60:	f90003e0 	str	x0, [sp]
   80f64:	f94007e0 	ldr	x0, [sp, #8]
   80f68:	39400000 	ldrb	w0, [x0]
   80f6c:	7100001f 	cmp	w0, #0x0
   80f70:	540000a0 	b.eq	80f84 <strcmp_ret+0x68>  // b.none
   80f74:	f94003e0 	ldr	x0, [sp]
   80f78:	39400000 	ldrb	w0, [x0]
   80f7c:	7100001f 	cmp	w0, #0x0
   80f80:	54fffd61 	b.ne	80f2c <strcmp_ret+0x10>  // b.any
   80f84:	f94007e0 	ldr	x0, [sp, #8]
   80f88:	39400001 	ldrb	w1, [x0]
   80f8c:	f94003e0 	ldr	x0, [sp]
   80f90:	39400000 	ldrb	w0, [x0]
   80f94:	6b00003f 	cmp	w1, w0
   80f98:	1a9f17e0 	cset	w0, eq	// eq = none
   80f9c:	12001c00 	and	w0, w0, #0xff
   80fa0:	910043ff 	add	sp, sp, #0x10
   80fa4:	d65f03c0 	ret

0000000000080fa8 <strcat>:
   80fa8:	d10083ff 	sub	sp, sp, #0x20
   80fac:	f90007e0 	str	x0, [sp, #8]
   80fb0:	f90003e1 	str	x1, [sp]
   80fb4:	b9001fff 	str	wzr, [sp, #28]
   80fb8:	14000007 	b	80fd4 <strcat+0x2c>
   80fbc:	f94007e0 	ldr	x0, [sp, #8]
   80fc0:	91000400 	add	x0, x0, #0x1
   80fc4:	f90007e0 	str	x0, [sp, #8]
   80fc8:	b9401fe0 	ldr	w0, [sp, #28]
   80fcc:	11000400 	add	w0, w0, #0x1
   80fd0:	b9001fe0 	str	w0, [sp, #28]
   80fd4:	f94007e0 	ldr	x0, [sp, #8]
   80fd8:	39400000 	ldrb	w0, [x0]
   80fdc:	7100001f 	cmp	w0, #0x0
   80fe0:	54fffee1 	b.ne	80fbc <strcat+0x14>  // b.any
   80fe4:	1400000e 	b	8101c <strcat+0x74>
   80fe8:	f94003e0 	ldr	x0, [sp]
   80fec:	39400001 	ldrb	w1, [x0]
   80ff0:	f94007e0 	ldr	x0, [sp, #8]
   80ff4:	39000001 	strb	w1, [x0]
   80ff8:	f94007e0 	ldr	x0, [sp, #8]
   80ffc:	91000400 	add	x0, x0, #0x1
   81000:	f90007e0 	str	x0, [sp, #8]
   81004:	f94003e0 	ldr	x0, [sp]
   81008:	91000400 	add	x0, x0, #0x1
   8100c:	f90003e0 	str	x0, [sp]
   81010:	b9401fe0 	ldr	w0, [sp, #28]
   81014:	11000400 	add	w0, w0, #0x1
   81018:	b9001fe0 	str	w0, [sp, #28]
   8101c:	f94003e0 	ldr	x0, [sp]
   81020:	39400000 	ldrb	w0, [x0]
   81024:	7100001f 	cmp	w0, #0x0
   81028:	54fffe01 	b.ne	80fe8 <strcat+0x40>  // b.any
   8102c:	f94007e0 	ldr	x0, [sp, #8]
   81030:	3900001f 	strb	wzr, [x0]
   81034:	b9401fe0 	ldr	w0, [sp, #28]
   81038:	910083ff 	add	sp, sp, #0x20
   8103c:	d65f03c0 	ret

0000000000081040 <parse_char_arr>:
   81040:	a9bc7bfd 	stp	x29, x30, [sp, #-64]!
   81044:	910003fd 	mov	x29, sp
   81048:	f90017e0 	str	x0, [sp, #40]
   8104c:	f90013e1 	str	x1, [sp, #32]
   81050:	b9001fe2 	str	w2, [sp, #28]
   81054:	52800020 	mov	w0, #0x1                   	// #1
   81058:	b90037e0 	str	w0, [sp, #52]
   8105c:	f94013e0 	ldr	x0, [sp, #32]
   81060:	f94017e1 	ldr	x1, [sp, #40]
   81064:	f9000001 	str	x1, [x0]
   81068:	f94017e0 	ldr	x0, [sp, #40]
   8106c:	f9001fe0 	str	x0, [sp, #56]
   81070:	14000025 	b	81104 <parse_char_arr+0xc4>
   81074:	f9401fe0 	ldr	x0, [sp, #56]
   81078:	39400000 	ldrb	w0, [x0]
   8107c:	7100801f 	cmp	w0, #0x20
   81080:	540003c1 	b.ne	810f8 <parse_char_arr+0xb8>  // b.any
   81084:	f9401fe0 	ldr	x0, [sp, #56]
   81088:	3900001f 	strb	wzr, [x0]
   8108c:	b98037e0 	ldrsw	x0, [sp, #52]
   81090:	d37df000 	lsl	x0, x0, #3
   81094:	f94013e1 	ldr	x1, [sp, #32]
   81098:	8b000020 	add	x0, x1, x0
   8109c:	f9401fe1 	ldr	x1, [sp, #56]
   810a0:	91000421 	add	x1, x1, #0x1
   810a4:	f9000001 	str	x1, [x0]
   810a8:	b98037e0 	ldrsw	x0, [sp, #52]
   810ac:	d37df000 	lsl	x0, x0, #3
   810b0:	f94013e1 	ldr	x1, [sp, #32]
   810b4:	8b000020 	add	x0, x1, x0
   810b8:	f9400000 	ldr	x0, [x0]
   810bc:	aa0003e3 	mov	x3, x0
   810c0:	b94037e2 	ldr	w2, [sp, #52]
   810c4:	b0000040 	adrp	x0, 8a000 <vector_table_el1>
   810c8:	91228001 	add	x1, x0, #0x8a0
   810cc:	d2800020 	mov	x0, #0x1                   	// #1
   810d0:	940014da 	bl	86438 <uart_printf>
   810d4:	b94037e0 	ldr	w0, [sp, #52]
   810d8:	11000400 	add	w0, w0, #0x1
   810dc:	b90037e0 	str	w0, [sp, #52]
   810e0:	b94037e1 	ldr	w1, [sp, #52]
   810e4:	b9401fe0 	ldr	w0, [sp, #28]
   810e8:	6b00003f 	cmp	w1, w0
   810ec:	5400006b 	b.lt	810f8 <parse_char_arr+0xb8>  // b.tstop
   810f0:	b94037e0 	ldr	w0, [sp, #52]
   810f4:	1400000e 	b	8112c <parse_char_arr+0xec>
   810f8:	f9401fe0 	ldr	x0, [sp, #56]
   810fc:	91000400 	add	x0, x0, #0x1
   81100:	f9001fe0 	str	x0, [sp, #56]
   81104:	f9401fe0 	ldr	x0, [sp, #56]
   81108:	39400000 	ldrb	w0, [x0]
   8110c:	7100001f 	cmp	w0, #0x0
   81110:	54fffb21 	b.ne	81074 <parse_char_arr+0x34>  // b.any
   81114:	b94037e2 	ldr	w2, [sp, #52]
   81118:	b0000040 	adrp	x0, 8a000 <vector_table_el1>
   8111c:	9122c001 	add	x1, x0, #0x8b0
   81120:	d2800020 	mov	x0, #0x1                   	// #1
   81124:	940014c5 	bl	86438 <uart_printf>
   81128:	b94037e0 	ldr	w0, [sp, #52]
   8112c:	a8c47bfd 	ldp	x29, x30, [sp], #64
   81130:	d65f03c0 	ret

0000000000081134 <parsestring>:
   81134:	d100c3ff 	sub	sp, sp, #0x30
   81138:	f9000fe0 	str	x0, [sp, #24]
   8113c:	b90017e1 	str	w1, [sp, #20]
   81140:	f90007e2 	str	x2, [sp, #8]
   81144:	b90013e3 	str	w3, [sp, #16]
   81148:	52800020 	mov	w0, #0x1                   	// #1
   8114c:	b9002fe0 	str	w0, [sp, #44]
   81150:	b9002bff 	str	wzr, [sp, #40]
   81154:	f9400fe0 	ldr	x0, [sp, #24]
   81158:	3900001f 	strb	wzr, [x0]
   8115c:	14000022 	b	811e4 <parsestring+0xb0>
   81160:	f94007e0 	ldr	x0, [sp, #8]
   81164:	39400000 	ldrb	w0, [x0]
   81168:	7100801f 	cmp	w0, #0x20
   8116c:	540000a1 	b.ne	81180 <parsestring+0x4c>  // b.any
   81170:	b9402fe0 	ldr	w0, [sp, #44]
   81174:	11000400 	add	w0, w0, #0x1
   81178:	b9002fe0 	str	w0, [sp, #44]
   8117c:	14000017 	b	811d8 <parsestring+0xa4>
   81180:	b94013e1 	ldr	w1, [sp, #16]
   81184:	b9402fe0 	ldr	w0, [sp, #44]
   81188:	6b00003f 	cmp	w1, w0
   8118c:	54000261 	b.ne	811d8 <parsestring+0xa4>  // b.any
   81190:	b94017e0 	ldr	w0, [sp, #20]
   81194:	51000400 	sub	w0, w0, #0x1
   81198:	b9402be1 	ldr	w1, [sp, #40]
   8119c:	6b00003f 	cmp	w1, w0
   811a0:	540002ca 	b.ge	811f8 <parsestring+0xc4>  // b.tcont
   811a4:	b9402be0 	ldr	w0, [sp, #40]
   811a8:	11000401 	add	w1, w0, #0x1
   811ac:	b9002be1 	str	w1, [sp, #40]
   811b0:	93407c00 	sxtw	x0, w0
   811b4:	f9400fe1 	ldr	x1, [sp, #24]
   811b8:	8b000020 	add	x0, x1, x0
   811bc:	f94007e1 	ldr	x1, [sp, #8]
   811c0:	39400021 	ldrb	w1, [x1]
   811c4:	39000001 	strb	w1, [x0]
   811c8:	b9802be0 	ldrsw	x0, [sp, #40]
   811cc:	f9400fe1 	ldr	x1, [sp, #24]
   811d0:	8b000020 	add	x0, x1, x0
   811d4:	3900001f 	strb	wzr, [x0]
   811d8:	f94007e0 	ldr	x0, [sp, #8]
   811dc:	91000400 	add	x0, x0, #0x1
   811e0:	f90007e0 	str	x0, [sp, #8]
   811e4:	f94007e0 	ldr	x0, [sp, #8]
   811e8:	39400000 	ldrb	w0, [x0]
   811ec:	7100001f 	cmp	w0, #0x0
   811f0:	54fffb81 	b.ne	81160 <parsestring+0x2c>  // b.any
   811f4:	14000002 	b	811fc <parsestring+0xc8>
   811f8:	d503201f 	nop
   811fc:	d503201f 	nop
   81200:	9100c3ff 	add	sp, sp, #0x30
   81204:	d65f03c0 	ret

0000000000081208 <strcpy>:
   81208:	d100c3ff 	sub	sp, sp, #0x30
   8120c:	f9000fe0 	str	x0, [sp, #24]
   81210:	b90017e1 	str	w1, [sp, #20]
   81214:	f90007e2 	str	x2, [sp, #8]
   81218:	b90013e3 	str	w3, [sp, #16]
   8121c:	b9002fff 	str	wzr, [sp, #44]
   81220:	14000016 	b	81278 <strcpy+0x70>
   81224:	b9402fe1 	ldr	w1, [sp, #44]
   81228:	b94013e0 	ldr	w0, [sp, #16]
   8122c:	6b00003f 	cmp	w1, w0
   81230:	540002ea 	b.ge	8128c <strcpy+0x84>  // b.tcont
   81234:	b9402fe1 	ldr	w1, [sp, #44]
   81238:	b94017e0 	ldr	w0, [sp, #20]
   8123c:	6b00003f 	cmp	w1, w0
   81240:	540002aa 	b.ge	81294 <strcpy+0x8c>  // b.tcont
   81244:	f94007e0 	ldr	x0, [sp, #8]
   81248:	39400001 	ldrb	w1, [x0]
   8124c:	f9400fe0 	ldr	x0, [sp, #24]
   81250:	39000001 	strb	w1, [x0]
   81254:	f9400fe0 	ldr	x0, [sp, #24]
   81258:	91000400 	add	x0, x0, #0x1
   8125c:	f9000fe0 	str	x0, [sp, #24]
   81260:	f94007e0 	ldr	x0, [sp, #8]
   81264:	91000400 	add	x0, x0, #0x1
   81268:	f90007e0 	str	x0, [sp, #8]
   8126c:	b9402fe0 	ldr	w0, [sp, #44]
   81270:	11000400 	add	w0, w0, #0x1
   81274:	b9002fe0 	str	w0, [sp, #44]
   81278:	f94007e0 	ldr	x0, [sp, #8]
   8127c:	39400000 	ldrb	w0, [x0]
   81280:	7100001f 	cmp	w0, #0x0
   81284:	54fffd01 	b.ne	81224 <strcpy+0x1c>  // b.any
   81288:	14000004 	b	81298 <strcpy+0x90>
   8128c:	d503201f 	nop
   81290:	14000002 	b	81298 <strcpy+0x90>
   81294:	d503201f 	nop
   81298:	f9400fe0 	ldr	x0, [sp, #24]
   8129c:	3900001f 	strb	wzr, [x0]
   812a0:	b9402fe0 	ldr	w0, [sp, #44]
   812a4:	9100c3ff 	add	sp, sp, #0x30
   812a8:	d65f03c0 	ret

00000000000812ac <strflush>:
   812ac:	a9bd7bfd 	stp	x29, x30, [sp, #-48]!
   812b0:	910003fd 	mov	x29, sp
   812b4:	f9000fe0 	str	x0, [sp, #24]
   812b8:	39005fe1 	strb	w1, [sp, #23]
   812bc:	b9002fff 	str	wzr, [sp, #44]
   812c0:	1400001f 	b	8133c <strflush+0x90>
   812c4:	b9802fe0 	ldrsw	x0, [sp, #44]
   812c8:	f9400fe1 	ldr	x1, [sp, #24]
   812cc:	8b000020 	add	x0, x1, x0
   812d0:	39400000 	ldrb	w0, [x0]
   812d4:	7100001f 	cmp	w0, #0x0
   812d8:	540003c0 	b.eq	81350 <strflush+0xa4>  // b.none
   812dc:	b9802fe0 	ldrsw	x0, [sp, #44]
   812e0:	f9400fe1 	ldr	x1, [sp, #24]
   812e4:	8b000020 	add	x0, x1, x0
   812e8:	39400000 	ldrb	w0, [x0]
   812ec:	2a0003e3 	mov	w3, w0
   812f0:	b9402fe2 	ldr	w2, [sp, #44]
   812f4:	b0000040 	adrp	x0, 8a000 <vector_table_el1>
   812f8:	91230001 	add	x1, x0, #0x8c0
   812fc:	d2800020 	mov	x0, #0x1                   	// #1
   81300:	9400144e 	bl	86438 <uart_printf>
   81304:	b9802fe0 	ldrsw	x0, [sp, #44]
   81308:	f9400fe1 	ldr	x1, [sp, #24]
   8130c:	8b000020 	add	x0, x1, x0
   81310:	39400000 	ldrb	w0, [x0]
   81314:	2a0003e1 	mov	w1, w0
   81318:	d2800020 	mov	x0, #0x1                   	// #1
   8131c:	94001352 	bl	86064 <uart_putc>
   81320:	b0000040 	adrp	x0, 8a000 <vector_table_el1>
   81324:	91236001 	add	x1, x0, #0x8d8
   81328:	d2800020 	mov	x0, #0x1                   	// #1
   8132c:	94001443 	bl	86438 <uart_printf>
   81330:	b9402fe0 	ldr	w0, [sp, #44]
   81334:	11000400 	add	w0, w0, #0x1
   81338:	b9002fe0 	str	w0, [sp, #44]
   8133c:	39405fe0 	ldrb	w0, [sp, #23]
   81340:	b9402fe1 	ldr	w1, [sp, #44]
   81344:	6b00003f 	cmp	w1, w0
   81348:	54fffbeb 	b.lt	812c4 <strflush+0x18>  // b.tstop
   8134c:	14000002 	b	81354 <strflush+0xa8>
   81350:	d503201f 	nop
   81354:	d503201f 	nop
   81358:	a8c37bfd 	ldp	x29, x30, [sp], #48
   8135c:	d65f03c0 	ret

0000000000081360 <full_game>:
   81360:	d10043ff 	sub	sp, sp, #0x10
   81364:	f90007e0 	str	x0, [sp, #8]
   81368:	f94007e0 	ldr	x0, [sp, #8]
   8136c:	b9400000 	ldr	w0, [x0]
   81370:	7100001f 	cmp	w0, #0x0
   81374:	540000e0 	b.eq	81390 <full_game+0x30>  // b.none
   81378:	f94007e0 	ldr	x0, [sp, #8]
   8137c:	b9400400 	ldr	w0, [x0, #4]
   81380:	7100001f 	cmp	w0, #0x0
   81384:	54000060 	b.eq	81390 <full_game+0x30>  // b.none
   81388:	52800020 	mov	w0, #0x1                   	// #1
   8138c:	14000002 	b	81394 <full_game+0x34>
   81390:	52800000 	mov	w0, #0x0                   	// #0
   81394:	12001c00 	and	w0, w0, #0xff
   81398:	910043ff 	add	sp, sp, #0x10
   8139c:	d65f03c0 	ret

00000000000813a0 <full_play>:
   813a0:	a9be7bfd 	stp	x29, x30, [sp, #-32]!
   813a4:	910003fd 	mov	x29, sp
   813a8:	f9000fe0 	str	x0, [sp, #24]
   813ac:	f9400fe0 	ldr	x0, [sp, #24]
   813b0:	91002000 	add	x0, x0, #0x8
   813b4:	97fffe3b 	bl	80ca0 <is_empty>
   813b8:	7100001f 	cmp	w0, #0x0
   813bc:	54000101 	b.ne	813dc <full_play+0x3c>  // b.any
   813c0:	f9400fe0 	ldr	x0, [sp, #24]
   813c4:	91004800 	add	x0, x0, #0x12
   813c8:	97fffe36 	bl	80ca0 <is_empty>
   813cc:	7100001f 	cmp	w0, #0x0
   813d0:	54000061 	b.ne	813dc <full_play+0x3c>  // b.any
   813d4:	52800020 	mov	w0, #0x1                   	// #1
   813d8:	14000002 	b	813e0 <full_play+0x40>
   813dc:	52800000 	mov	w0, #0x0                   	// #0
   813e0:	12001c00 	and	w0, w0, #0xff
   813e4:	a8c27bfd 	ldp	x29, x30, [sp], #32
   813e8:	d65f03c0 	ret

00000000000813ec <set_play>:
   813ec:	a9bc7bfd 	stp	x29, x30, [sp, #-64]!
   813f0:	910003fd 	mov	x29, sp
   813f4:	f90017e0 	str	x0, [sp, #40]
   813f8:	b90027e1 	str	w1, [sp, #36]
   813fc:	f9000fe2 	str	x2, [sp, #24]
   81400:	b9003bff 	str	wzr, [sp, #56]
   81404:	b9003fff 	str	wzr, [sp, #60]
   81408:	1400004c 	b	81538 <set_play+0x14c>
   8140c:	b9803fe1 	ldrsw	x1, [sp, #60]
   81410:	aa0103e0 	mov	x0, x1
   81414:	d37df000 	lsl	x0, x0, #3
   81418:	8b010000 	add	x0, x0, x1
   8141c:	d37ef400 	lsl	x0, x0, #2
   81420:	aa0003e1 	mov	x1, x0
   81424:	f9400fe0 	ldr	x0, [sp, #24]
   81428:	8b010000 	add	x0, x0, x1
   8142c:	b9400000 	ldr	w0, [x0]
   81430:	b94027e1 	ldr	w1, [sp, #36]
   81434:	6b00003f 	cmp	w1, w0
   81438:	54000321 	b.ne	8149c <set_play+0xb0>  // b.any
   8143c:	b9803fe1 	ldrsw	x1, [sp, #60]
   81440:	aa0103e0 	mov	x0, x1
   81444:	d37df000 	lsl	x0, x0, #3
   81448:	8b010000 	add	x0, x0, x1
   8144c:	d37ef400 	lsl	x0, x0, #2
   81450:	aa0003e1 	mov	x1, x0
   81454:	f9400fe0 	ldr	x0, [sp, #24]
   81458:	8b010000 	add	x0, x0, x1
   8145c:	3900201f 	strb	wzr, [x0, #8]
   81460:	b9803fe1 	ldrsw	x1, [sp, #60]
   81464:	aa0103e0 	mov	x0, x1
   81468:	d37df000 	lsl	x0, x0, #3
   8146c:	8b010000 	add	x0, x0, x1
   81470:	d37ef400 	lsl	x0, x0, #2
   81474:	aa0003e1 	mov	x1, x0
   81478:	f9400fe0 	ldr	x0, [sp, #24]
   8147c:	8b010000 	add	x0, x0, x1
   81480:	91002000 	add	x0, x0, #0x8
   81484:	52800143 	mov	w3, #0xa                   	// #10
   81488:	f94017e2 	ldr	x2, [sp, #40]
   8148c:	52800141 	mov	w1, #0xa                   	// #10
   81490:	97ffff5e 	bl	81208 <strcpy>
   81494:	b9403fe0 	ldr	w0, [sp, #60]
   81498:	1400002b 	b	81544 <set_play+0x158>
   8149c:	b9803fe1 	ldrsw	x1, [sp, #60]
   814a0:	aa0103e0 	mov	x0, x1
   814a4:	d37df000 	lsl	x0, x0, #3
   814a8:	8b010000 	add	x0, x0, x1
   814ac:	d37ef400 	lsl	x0, x0, #2
   814b0:	aa0003e1 	mov	x1, x0
   814b4:	f9400fe0 	ldr	x0, [sp, #24]
   814b8:	8b010000 	add	x0, x0, x1
   814bc:	b9400400 	ldr	w0, [x0, #4]
   814c0:	b94027e1 	ldr	w1, [sp, #36]
   814c4:	6b00003f 	cmp	w1, w0
   814c8:	54000321 	b.ne	8152c <set_play+0x140>  // b.any
   814cc:	b9803fe1 	ldrsw	x1, [sp, #60]
   814d0:	aa0103e0 	mov	x0, x1
   814d4:	d37df000 	lsl	x0, x0, #3
   814d8:	8b010000 	add	x0, x0, x1
   814dc:	d37ef400 	lsl	x0, x0, #2
   814e0:	aa0003e1 	mov	x1, x0
   814e4:	f9400fe0 	ldr	x0, [sp, #24]
   814e8:	8b010000 	add	x0, x0, x1
   814ec:	3900481f 	strb	wzr, [x0, #18]
   814f0:	b9803fe1 	ldrsw	x1, [sp, #60]
   814f4:	aa0103e0 	mov	x0, x1
   814f8:	d37df000 	lsl	x0, x0, #3
   814fc:	8b010000 	add	x0, x0, x1
   81500:	d37ef400 	lsl	x0, x0, #2
   81504:	aa0003e1 	mov	x1, x0
   81508:	f9400fe0 	ldr	x0, [sp, #24]
   8150c:	8b010000 	add	x0, x0, x1
   81510:	91004800 	add	x0, x0, #0x12
   81514:	52800143 	mov	w3, #0xa                   	// #10
   81518:	f94017e2 	ldr	x2, [sp, #40]
   8151c:	52800141 	mov	w1, #0xa                   	// #10
   81520:	97ffff3a 	bl	81208 <strcpy>
   81524:	b9403fe0 	ldr	w0, [sp, #60]
   81528:	14000007 	b	81544 <set_play+0x158>
   8152c:	b9403fe0 	ldr	w0, [sp, #60]
   81530:	11000400 	add	w0, w0, #0x1
   81534:	b9003fe0 	str	w0, [sp, #60]
   81538:	b9403fe0 	ldr	w0, [sp, #60]
   8153c:	7100241f 	cmp	w0, #0x9
   81540:	54fff66d 	b.le	8140c <set_play+0x20>
   81544:	a8c47bfd 	ldp	x29, x30, [sp], #64
   81548:	d65f03c0 	ret

000000000008154c <reset_game>:
   8154c:	d10043ff 	sub	sp, sp, #0x10
   81550:	f90007e0 	str	x0, [sp, #8]
   81554:	f94007e0 	ldr	x0, [sp, #8]
   81558:	3900201f 	strb	wzr, [x0, #8]
   8155c:	f94007e0 	ldr	x0, [sp, #8]
   81560:	3900481f 	strb	wzr, [x0, #18]
   81564:	d503201f 	nop
   81568:	910043ff 	add	sp, sp, #0x10
   8156c:	d65f03c0 	ret

0000000000081570 <check_game>:
   81570:	a9be7bfd 	stp	x29, x30, [sp, #-32]!
   81574:	910003fd 	mov	x29, sp
   81578:	f9000fe0 	str	x0, [sp, #24]
   8157c:	f9400fe0 	ldr	x0, [sp, #24]
   81580:	97ffff88 	bl	813a0 <full_play>
   81584:	12001c00 	and	w0, w0, #0xff
   81588:	7100001f 	cmp	w0, #0x0
   8158c:	54000061 	b.ne	81598 <check_game+0x28>  // b.any
   81590:	12800000 	mov	w0, #0xffffffff            	// #-1
   81594:	14000096 	b	817ec <check_game+0x27c>
   81598:	f9400fe0 	ldr	x0, [sp, #24]
   8159c:	91002002 	add	x2, x0, #0x8
   815a0:	b0000040 	adrp	x0, 8a000 <vector_table_el1>
   815a4:	91238001 	add	x1, x0, #0x8e0
   815a8:	aa0203e0 	mov	x0, x2
   815ac:	97fffe5c 	bl	80f1c <strcmp_ret>
   815b0:	7100001f 	cmp	w0, #0x0
   815b4:	54000200 	b.eq	815f4 <check_game+0x84>  // b.none
   815b8:	f9400fe0 	ldr	x0, [sp, #24]
   815bc:	91004802 	add	x2, x0, #0x12
   815c0:	b0000040 	adrp	x0, 8a000 <vector_table_el1>
   815c4:	9123a001 	add	x1, x0, #0x8e8
   815c8:	aa0203e0 	mov	x0, x2
   815cc:	97fffe54 	bl	80f1c <strcmp_ret>
   815d0:	7100001f 	cmp	w0, #0x0
   815d4:	54000100 	b.eq	815f4 <check_game+0x84>  // b.none
   815d8:	f9400fe0 	ldr	x0, [sp, #24]
   815dc:	b9401c00 	ldr	w0, [x0, #28]
   815e0:	11000401 	add	w1, w0, #0x1
   815e4:	f9400fe0 	ldr	x0, [sp, #24]
   815e8:	b9001c01 	str	w1, [x0, #28]
   815ec:	52800020 	mov	w0, #0x1                   	// #1
   815f0:	1400007f 	b	817ec <check_game+0x27c>
   815f4:	f9400fe0 	ldr	x0, [sp, #24]
   815f8:	91002002 	add	x2, x0, #0x8
   815fc:	b0000040 	adrp	x0, 8a000 <vector_table_el1>
   81600:	9123a001 	add	x1, x0, #0x8e8
   81604:	aa0203e0 	mov	x0, x2
   81608:	97fffe45 	bl	80f1c <strcmp_ret>
   8160c:	7100001f 	cmp	w0, #0x0
   81610:	54000200 	b.eq	81650 <check_game+0xe0>  // b.none
   81614:	f9400fe0 	ldr	x0, [sp, #24]
   81618:	91004802 	add	x2, x0, #0x12
   8161c:	b0000040 	adrp	x0, 8a000 <vector_table_el1>
   81620:	9123e001 	add	x1, x0, #0x8f8
   81624:	aa0203e0 	mov	x0, x2
   81628:	97fffe3d 	bl	80f1c <strcmp_ret>
   8162c:	7100001f 	cmp	w0, #0x0
   81630:	54000100 	b.eq	81650 <check_game+0xe0>  // b.none
   81634:	f9400fe0 	ldr	x0, [sp, #24]
   81638:	b9401c00 	ldr	w0, [x0, #28]
   8163c:	11000401 	add	w1, w0, #0x1
   81640:	f9400fe0 	ldr	x0, [sp, #24]
   81644:	b9001c01 	str	w1, [x0, #28]
   81648:	52800020 	mov	w0, #0x1                   	// #1
   8164c:	14000068 	b	817ec <check_game+0x27c>
   81650:	f9400fe0 	ldr	x0, [sp, #24]
   81654:	91002002 	add	x2, x0, #0x8
   81658:	b0000040 	adrp	x0, 8a000 <vector_table_el1>
   8165c:	9123e001 	add	x1, x0, #0x8f8
   81660:	aa0203e0 	mov	x0, x2
   81664:	97fffe2e 	bl	80f1c <strcmp_ret>
   81668:	7100001f 	cmp	w0, #0x0
   8166c:	54000200 	b.eq	816ac <check_game+0x13c>  // b.none
   81670:	f9400fe0 	ldr	x0, [sp, #24]
   81674:	91004802 	add	x2, x0, #0x12
   81678:	b0000040 	adrp	x0, 8a000 <vector_table_el1>
   8167c:	91238001 	add	x1, x0, #0x8e0
   81680:	aa0203e0 	mov	x0, x2
   81684:	97fffe26 	bl	80f1c <strcmp_ret>
   81688:	7100001f 	cmp	w0, #0x0
   8168c:	54000100 	b.eq	816ac <check_game+0x13c>  // b.none
   81690:	f9400fe0 	ldr	x0, [sp, #24]
   81694:	b9401c00 	ldr	w0, [x0, #28]
   81698:	11000401 	add	w1, w0, #0x1
   8169c:	f9400fe0 	ldr	x0, [sp, #24]
   816a0:	b9001c01 	str	w1, [x0, #28]
   816a4:	52800020 	mov	w0, #0x1                   	// #1
   816a8:	14000051 	b	817ec <check_game+0x27c>
   816ac:	f9400fe0 	ldr	x0, [sp, #24]
   816b0:	91002002 	add	x2, x0, #0x8
   816b4:	b0000040 	adrp	x0, 8a000 <vector_table_el1>
   816b8:	91238001 	add	x1, x0, #0x8e0
   816bc:	aa0203e0 	mov	x0, x2
   816c0:	97fffe17 	bl	80f1c <strcmp_ret>
   816c4:	7100001f 	cmp	w0, #0x0
   816c8:	54000200 	b.eq	81708 <check_game+0x198>  // b.none
   816cc:	f9400fe0 	ldr	x0, [sp, #24]
   816d0:	91004802 	add	x2, x0, #0x12
   816d4:	b0000040 	adrp	x0, 8a000 <vector_table_el1>
   816d8:	9123e001 	add	x1, x0, #0x8f8
   816dc:	aa0203e0 	mov	x0, x2
   816e0:	97fffe0f 	bl	80f1c <strcmp_ret>
   816e4:	7100001f 	cmp	w0, #0x0
   816e8:	54000100 	b.eq	81708 <check_game+0x198>  // b.none
   816ec:	f9400fe0 	ldr	x0, [sp, #24]
   816f0:	b9402000 	ldr	w0, [x0, #32]
   816f4:	11000401 	add	w1, w0, #0x1
   816f8:	f9400fe0 	ldr	x0, [sp, #24]
   816fc:	b9002001 	str	w1, [x0, #32]
   81700:	52800040 	mov	w0, #0x2                   	// #2
   81704:	1400003a 	b	817ec <check_game+0x27c>
   81708:	f9400fe0 	ldr	x0, [sp, #24]
   8170c:	91002002 	add	x2, x0, #0x8
   81710:	b0000040 	adrp	x0, 8a000 <vector_table_el1>
   81714:	9123a001 	add	x1, x0, #0x8e8
   81718:	aa0203e0 	mov	x0, x2
   8171c:	97fffe00 	bl	80f1c <strcmp_ret>
   81720:	7100001f 	cmp	w0, #0x0
   81724:	54000200 	b.eq	81764 <check_game+0x1f4>  // b.none
   81728:	f9400fe0 	ldr	x0, [sp, #24]
   8172c:	91004802 	add	x2, x0, #0x12
   81730:	b0000040 	adrp	x0, 8a000 <vector_table_el1>
   81734:	91238001 	add	x1, x0, #0x8e0
   81738:	aa0203e0 	mov	x0, x2
   8173c:	97fffdf8 	bl	80f1c <strcmp_ret>
   81740:	7100001f 	cmp	w0, #0x0
   81744:	54000100 	b.eq	81764 <check_game+0x1f4>  // b.none
   81748:	f9400fe0 	ldr	x0, [sp, #24]
   8174c:	b9402000 	ldr	w0, [x0, #32]
   81750:	11000401 	add	w1, w0, #0x1
   81754:	f9400fe0 	ldr	x0, [sp, #24]
   81758:	b9002001 	str	w1, [x0, #32]
   8175c:	52800040 	mov	w0, #0x2                   	// #2
   81760:	14000023 	b	817ec <check_game+0x27c>
   81764:	f9400fe0 	ldr	x0, [sp, #24]
   81768:	91002002 	add	x2, x0, #0x8
   8176c:	b0000040 	adrp	x0, 8a000 <vector_table_el1>
   81770:	9123e001 	add	x1, x0, #0x8f8
   81774:	aa0203e0 	mov	x0, x2
   81778:	97fffde9 	bl	80f1c <strcmp_ret>
   8177c:	7100001f 	cmp	w0, #0x0
   81780:	54000200 	b.eq	817c0 <check_game+0x250>  // b.none
   81784:	f9400fe0 	ldr	x0, [sp, #24]
   81788:	91004802 	add	x2, x0, #0x12
   8178c:	b0000040 	adrp	x0, 8a000 <vector_table_el1>
   81790:	9123a001 	add	x1, x0, #0x8e8
   81794:	aa0203e0 	mov	x0, x2
   81798:	97fffde1 	bl	80f1c <strcmp_ret>
   8179c:	7100001f 	cmp	w0, #0x0
   817a0:	54000100 	b.eq	817c0 <check_game+0x250>  // b.none
   817a4:	f9400fe0 	ldr	x0, [sp, #24]
   817a8:	b9402000 	ldr	w0, [x0, #32]
   817ac:	11000401 	add	w1, w0, #0x1
   817b0:	f9400fe0 	ldr	x0, [sp, #24]
   817b4:	b9002001 	str	w1, [x0, #32]
   817b8:	52800040 	mov	w0, #0x2                   	// #2
   817bc:	1400000c 	b	817ec <check_game+0x27c>
   817c0:	f9400fe0 	ldr	x0, [sp, #24]
   817c4:	91002002 	add	x2, x0, #0x8
   817c8:	f9400fe0 	ldr	x0, [sp, #24]
   817cc:	91004800 	add	x0, x0, #0x12
   817d0:	aa0003e1 	mov	x1, x0
   817d4:	aa0203e0 	mov	x0, x2
   817d8:	97fffdd1 	bl	80f1c <strcmp_ret>
   817dc:	7100001f 	cmp	w0, #0x0
   817e0:	54000060 	b.eq	817ec <check_game+0x27c>  // b.none
   817e4:	52800000 	mov	w0, #0x0                   	// #0
   817e8:	14000001 	b	817ec <check_game+0x27c>
   817ec:	a8c27bfd 	ldp	x29, x30, [sp], #32
   817f0:	d65f03c0 	ret

00000000000817f4 <ingame>:
   817f4:	d10083ff 	sub	sp, sp, #0x20
   817f8:	b9000fe0 	str	w0, [sp, #12]
   817fc:	f90003e1 	str	x1, [sp]
   81800:	b9001fff 	str	wzr, [sp, #28]
   81804:	1400001e 	b	8187c <ingame+0x88>
   81808:	b9801fe1 	ldrsw	x1, [sp, #28]
   8180c:	aa0103e0 	mov	x0, x1
   81810:	d37df000 	lsl	x0, x0, #3
   81814:	8b010000 	add	x0, x0, x1
   81818:	d37ef400 	lsl	x0, x0, #2
   8181c:	aa0003e1 	mov	x1, x0
   81820:	f94003e0 	ldr	x0, [sp]
   81824:	8b010000 	add	x0, x0, x1
   81828:	b9400000 	ldr	w0, [x0]
   8182c:	b9400fe1 	ldr	w1, [sp, #12]
   81830:	6b00003f 	cmp	w1, w0
   81834:	540001a0 	b.eq	81868 <ingame+0x74>  // b.none
   81838:	b9801fe1 	ldrsw	x1, [sp, #28]
   8183c:	aa0103e0 	mov	x0, x1
   81840:	d37df000 	lsl	x0, x0, #3
   81844:	8b010000 	add	x0, x0, x1
   81848:	d37ef400 	lsl	x0, x0, #2
   8184c:	aa0003e1 	mov	x1, x0
   81850:	f94003e0 	ldr	x0, [sp]
   81854:	8b010000 	add	x0, x0, x1
   81858:	b9400400 	ldr	w0, [x0, #4]
   8185c:	b9400fe1 	ldr	w1, [sp, #12]
   81860:	6b00003f 	cmp	w1, w0
   81864:	54000061 	b.ne	81870 <ingame+0x7c>  // b.any
   81868:	52800020 	mov	w0, #0x1                   	// #1
   8186c:	14000008 	b	8188c <ingame+0x98>
   81870:	b9401fe0 	ldr	w0, [sp, #28]
   81874:	11000400 	add	w0, w0, #0x1
   81878:	b9001fe0 	str	w0, [sp, #28]
   8187c:	b9401fe0 	ldr	w0, [sp, #28]
   81880:	7100241f 	cmp	w0, #0x9
   81884:	54fffc2d 	b.le	81808 <ingame+0x14>
   81888:	52800000 	mov	w0, #0x0                   	// #0
   8188c:	910083ff 	add	sp, sp, #0x20
   81890:	d65f03c0 	ret

0000000000081894 <gameserver>:
   81894:	d10843ff 	sub	sp, sp, #0x210
   81898:	a9007bfd 	stp	x29, x30, [sp]
   8189c:	910003fd 	mov	x29, sp
   818a0:	b0000040 	adrp	x0, 8a000 <vector_table_el1>
   818a4:	91240000 	add	x0, x0, #0x900
   818a8:	94000f03 	bl	854b4 <RegisterAs>
   818ac:	52800620 	mov	w0, #0x31                  	// #49
   818b0:	b901fbe0 	str	w0, [sp, #504]
   818b4:	b9020fff 	str	wzr, [sp, #524]
   818b8:	14000020 	b	81938 <gameserver+0xa4>
   818bc:	b9820fe1 	ldrsw	x1, [sp, #524]
   818c0:	aa0103e0 	mov	x0, x1
   818c4:	d37df000 	lsl	x0, x0, #3
   818c8:	8b010000 	add	x0, x0, x1
   818cc:	d37ef400 	lsl	x0, x0, #2
   818d0:	910043e1 	add	x1, sp, #0x10
   818d4:	b820683f 	str	wzr, [x1, x0]
   818d8:	b9820fe1 	ldrsw	x1, [sp, #524]
   818dc:	aa0103e0 	mov	x0, x1
   818e0:	d37df000 	lsl	x0, x0, #3
   818e4:	8b010000 	add	x0, x0, x1
   818e8:	d37ef400 	lsl	x0, x0, #2
   818ec:	910063e1 	add	x1, sp, #0x18
   818f0:	3820683f 	strb	wzr, [x1, x0]
   818f4:	b9820fe1 	ldrsw	x1, [sp, #524]
   818f8:	aa0103e0 	mov	x0, x1
   818fc:	d37df000 	lsl	x0, x0, #3
   81900:	8b010000 	add	x0, x0, x1
   81904:	d37ef400 	lsl	x0, x0, #2
   81908:	910053e1 	add	x1, sp, #0x14
   8190c:	b820683f 	str	wzr, [x1, x0]
   81910:	b9820fe1 	ldrsw	x1, [sp, #524]
   81914:	aa0103e0 	mov	x0, x1
   81918:	d37df000 	lsl	x0, x0, #3
   8191c:	8b010000 	add	x0, x0, x1
   81920:	d37ef400 	lsl	x0, x0, #2
   81924:	91008be1 	add	x1, sp, #0x22
   81928:	3820683f 	strb	wzr, [x1, x0]
   8192c:	b9420fe0 	ldr	w0, [sp, #524]
   81930:	11000400 	add	w0, w0, #0x1
   81934:	b9020fe0 	str	w0, [sp, #524]
   81938:	b9420fe0 	ldr	w0, [sp, #524]
   8193c:	7100241f 	cmp	w0, #0x9
   81940:	54fffbed 	b.le	818bc <gameserver+0x28>
   81944:	b9020bff 	str	wzr, [sp, #520]
   81948:	1400002d 	b	819fc <gameserver+0x168>
   8194c:	910043e2 	add	x2, sp, #0x10
   81950:	b9820be1 	ldrsw	x1, [sp, #520]
   81954:	aa0103e0 	mov	x0, x1
   81958:	d37df000 	lsl	x0, x0, #3
   8195c:	8b010000 	add	x0, x0, x1
   81960:	d37ef400 	lsl	x0, x0, #2
   81964:	8b000040 	add	x0, x2, x0
   81968:	97fffe7e 	bl	81360 <full_game>
   8196c:	12001c00 	and	w0, w0, #0xff
   81970:	7100001f 	cmp	w0, #0x0
   81974:	540003e1 	b.ne	819f0 <gameserver+0x15c>  // b.any
   81978:	b0000040 	adrp	x0, 8a000 <vector_table_el1>
   8197c:	91244000 	add	x0, x0, #0x910
   81980:	94000f15 	bl	855d4 <WhoIs>
   81984:	b901bbe0 	str	w0, [sp, #440]
   81988:	b9820be1 	ldrsw	x1, [sp, #520]
   8198c:	aa0103e0 	mov	x0, x1
   81990:	d37df000 	lsl	x0, x0, #3
   81994:	8b010000 	add	x0, x0, x1
   81998:	d37ef400 	lsl	x0, x0, #2
   8199c:	910053e1 	add	x1, sp, #0x14
   819a0:	b8606821 	ldr	w1, [x1, x0]
   819a4:	b941bbe0 	ldr	w0, [sp, #440]
   819a8:	6b00003f 	cmp	w1, w0
   819ac:	54000160 	b.eq	819d8 <gameserver+0x144>  // b.none
   819b0:	b9820be1 	ldrsw	x1, [sp, #520]
   819b4:	aa0103e0 	mov	x0, x1
   819b8:	d37df000 	lsl	x0, x0, #3
   819bc:	8b010000 	add	x0, x0, x1
   819c0:	d37ef400 	lsl	x0, x0, #2
   819c4:	910043e1 	add	x1, sp, #0x10
   819c8:	b8606821 	ldr	w1, [x1, x0]
   819cc:	b941bbe0 	ldr	w0, [sp, #440]
   819d0:	6b00003f 	cmp	w1, w0
   819d4:	540000e1 	b.ne	819f0 <gameserver+0x15c>  // b.any
   819d8:	52800042 	mov	w2, #0x2                   	// #2
   819dc:	b0000040 	adrp	x0, 8a000 <vector_table_el1>
   819e0:	91246001 	add	x1, x0, #0x918
   819e4:	b941bbe0 	ldr	w0, [sp, #440]
   819e8:	94001b7c 	bl	887d8 <Reply>
   819ec:	b901b7e0 	str	w0, [sp, #436]
   819f0:	b9420be0 	ldr	w0, [sp, #520]
   819f4:	11000400 	add	w0, w0, #0x1
   819f8:	b9020be0 	str	w0, [sp, #520]
   819fc:	b9420be0 	ldr	w0, [sp, #520]
   81a00:	7100241f 	cmp	w0, #0x9
   81a04:	54fffa4d 	b.le	8194c <gameserver+0xb8>
   81a08:	9105e3e1 	add	x1, sp, #0x178
   81a0c:	9106c3e0 	add	x0, sp, #0x1b0
   81a10:	b941fbe2 	ldr	w2, [sp, #504]
   81a14:	94001b68 	bl	887b4 <Receive>
   81a18:	b901f7e0 	str	w0, [sp, #500]
   81a1c:	9105e3e2 	add	x2, sp, #0x178
   81a20:	b0000040 	adrp	x0, 8a000 <vector_table_el1>
   81a24:	91248001 	add	x1, x0, #0x920
   81a28:	aa0203e0 	mov	x0, x2
   81a2c:	97fffd3c 	bl	80f1c <strcmp_ret>
   81a30:	7100001f 	cmp	w0, #0x0
   81a34:	540007e0 	b.eq	81b30 <gameserver+0x29c>  // b.none
   81a38:	b90207ff 	str	wzr, [sp, #516]
   81a3c:	14000032 	b	81b04 <gameserver+0x270>
   81a40:	b98207e1 	ldrsw	x1, [sp, #516]
   81a44:	aa0103e0 	mov	x0, x1
   81a48:	d37df000 	lsl	x0, x0, #3
   81a4c:	8b010000 	add	x0, x0, x1
   81a50:	d37ef400 	lsl	x0, x0, #2
   81a54:	910043e1 	add	x1, sp, #0x10
   81a58:	b8606820 	ldr	w0, [x1, x0]
   81a5c:	7100001f 	cmp	w0, #0x0
   81a60:	540001e0 	b.eq	81a9c <gameserver+0x208>  // b.none
   81a64:	b98207e1 	ldrsw	x1, [sp, #516]
   81a68:	aa0103e0 	mov	x0, x1
   81a6c:	d37df000 	lsl	x0, x0, #3
   81a70:	8b010000 	add	x0, x0, x1
   81a74:	d37ef400 	lsl	x0, x0, #2
   81a78:	910043e1 	add	x1, sp, #0x10
   81a7c:	b8606820 	ldr	w0, [x1, x0]
   81a80:	2a0003e3 	mov	w3, w0
   81a84:	52800122 	mov	w2, #0x9                   	// #9
   81a88:	b0000040 	adrp	x0, 8a000 <vector_table_el1>
   81a8c:	9124c001 	add	x1, x0, #0x930
   81a90:	2a0303e0 	mov	w0, w3
   81a94:	94001b51 	bl	887d8 <Reply>
   81a98:	b901c3e0 	str	w0, [sp, #448]
   81a9c:	b98207e1 	ldrsw	x1, [sp, #516]
   81aa0:	aa0103e0 	mov	x0, x1
   81aa4:	d37df000 	lsl	x0, x0, #3
   81aa8:	8b010000 	add	x0, x0, x1
   81aac:	d37ef400 	lsl	x0, x0, #2
   81ab0:	910053e1 	add	x1, sp, #0x14
   81ab4:	b8606820 	ldr	w0, [x1, x0]
   81ab8:	7100001f 	cmp	w0, #0x0
   81abc:	540001e0 	b.eq	81af8 <gameserver+0x264>  // b.none
   81ac0:	b98207e1 	ldrsw	x1, [sp, #516]
   81ac4:	aa0103e0 	mov	x0, x1
   81ac8:	d37df000 	lsl	x0, x0, #3
   81acc:	8b010000 	add	x0, x0, x1
   81ad0:	d37ef400 	lsl	x0, x0, #2
   81ad4:	910053e1 	add	x1, sp, #0x14
   81ad8:	b8606820 	ldr	w0, [x1, x0]
   81adc:	2a0003e3 	mov	w3, w0
   81ae0:	52800122 	mov	w2, #0x9                   	// #9
   81ae4:	b0000040 	adrp	x0, 8a000 <vector_table_el1>
   81ae8:	9124c001 	add	x1, x0, #0x930
   81aec:	2a0303e0 	mov	w0, w3
   81af0:	94001b3a 	bl	887d8 <Reply>
   81af4:	b901bfe0 	str	w0, [sp, #444]
   81af8:	b94207e0 	ldr	w0, [sp, #516]
   81afc:	11000400 	add	w0, w0, #0x1
   81b00:	b90207e0 	str	w0, [sp, #516]
   81b04:	b94207e0 	ldr	w0, [sp, #516]
   81b08:	7100241f 	cmp	w0, #0x9
   81b0c:	54fff9ad 	b.le	81a40 <gameserver+0x1ac>
   81b10:	b941b3e3 	ldr	w3, [sp, #432]
   81b14:	52800122 	mov	w2, #0x9                   	// #9
   81b18:	b0000040 	adrp	x0, 8a000 <vector_table_el1>
   81b1c:	9124e001 	add	x1, x0, #0x938
   81b20:	2a0303e0 	mov	w0, w3
   81b24:	94001b2d 	bl	887d8 <Reply>
   81b28:	94001b5d 	bl	8889c <Exit>
   81b2c:	17ffff86 	b	81944 <gameserver+0xb0>
   81b30:	9105e3e2 	add	x2, sp, #0x178
   81b34:	b0000040 	adrp	x0, 8a000 <vector_table_el1>
   81b38:	91250001 	add	x1, x0, #0x940
   81b3c:	aa0203e0 	mov	x0, x2
   81b40:	97fffcf7 	bl	80f1c <strcmp_ret>
   81b44:	7100001f 	cmp	w0, #0x0
   81b48:	54000de0 	b.eq	81d04 <gameserver+0x470>  // b.none
   81b4c:	b941b3e0 	ldr	w0, [sp, #432]
   81b50:	2a0003e2 	mov	w2, w0
   81b54:	b0000040 	adrp	x0, 8a000 <vector_table_el1>
   81b58:	91252001 	add	x1, x0, #0x948
   81b5c:	d2800020 	mov	x0, #0x1                   	// #1
   81b60:	94001236 	bl	86438 <uart_printf>
   81b64:	b90203ff 	str	wzr, [sp, #512]
   81b68:	1400005a 	b	81cd0 <gameserver+0x43c>
   81b6c:	910043e2 	add	x2, sp, #0x10
   81b70:	b98203e1 	ldrsw	x1, [sp, #512]
   81b74:	aa0103e0 	mov	x0, x1
   81b78:	d37df000 	lsl	x0, x0, #3
   81b7c:	8b010000 	add	x0, x0, x1
   81b80:	d37ef400 	lsl	x0, x0, #2
   81b84:	8b000040 	add	x0, x2, x0
   81b88:	97fffdf6 	bl	81360 <full_game>
   81b8c:	12001c00 	and	w0, w0, #0xff
   81b90:	7100001f 	cmp	w0, #0x0
   81b94:	54000981 	b.ne	81cc4 <gameserver+0x430>  // b.any
   81b98:	b98203e1 	ldrsw	x1, [sp, #512]
   81b9c:	aa0103e0 	mov	x0, x1
   81ba0:	d37df000 	lsl	x0, x0, #3
   81ba4:	8b010000 	add	x0, x0, x1
   81ba8:	d37ef400 	lsl	x0, x0, #2
   81bac:	910043e1 	add	x1, sp, #0x10
   81bb0:	b8606820 	ldr	w0, [x1, x0]
   81bb4:	7100001f 	cmp	w0, #0x0
   81bb8:	54000241 	b.ne	81c00 <gameserver+0x36c>  // b.any
   81bbc:	b941b3e0 	ldr	w0, [sp, #432]
   81bc0:	2a0003e2 	mov	w2, w0
   81bc4:	b98203e1 	ldrsw	x1, [sp, #512]
   81bc8:	aa0103e0 	mov	x0, x1
   81bcc:	d37df000 	lsl	x0, x0, #3
   81bd0:	8b010000 	add	x0, x0, x1
   81bd4:	d37ef400 	lsl	x0, x0, #2
   81bd8:	910043e1 	add	x1, sp, #0x10
   81bdc:	b8206822 	str	w2, [x1, x0]
   81be0:	b98203e1 	ldrsw	x1, [sp, #512]
   81be4:	aa0103e0 	mov	x0, x1
   81be8:	d37df000 	lsl	x0, x0, #3
   81bec:	8b010000 	add	x0, x0, x1
   81bf0:	d37ef400 	lsl	x0, x0, #2
   81bf4:	910063e1 	add	x1, sp, #0x18
   81bf8:	3820683f 	strb	wzr, [x1, x0]
   81bfc:	14000011 	b	81c40 <gameserver+0x3ac>
   81c00:	b941b3e0 	ldr	w0, [sp, #432]
   81c04:	2a0003e2 	mov	w2, w0
   81c08:	b98203e1 	ldrsw	x1, [sp, #512]
   81c0c:	aa0103e0 	mov	x0, x1
   81c10:	d37df000 	lsl	x0, x0, #3
   81c14:	8b010000 	add	x0, x0, x1
   81c18:	d37ef400 	lsl	x0, x0, #2
   81c1c:	910053e1 	add	x1, sp, #0x14
   81c20:	b8206822 	str	w2, [x1, x0]
   81c24:	b98203e1 	ldrsw	x1, [sp, #512]
   81c28:	aa0103e0 	mov	x0, x1
   81c2c:	d37df000 	lsl	x0, x0, #3
   81c30:	8b010000 	add	x0, x0, x1
   81c34:	d37ef400 	lsl	x0, x0, #2
   81c38:	91008be1 	add	x1, sp, #0x22
   81c3c:	3820683f 	strb	wzr, [x1, x0]
   81c40:	910043e2 	add	x2, sp, #0x10
   81c44:	b98203e1 	ldrsw	x1, [sp, #512]
   81c48:	aa0103e0 	mov	x0, x1
   81c4c:	d37df000 	lsl	x0, x0, #3
   81c50:	8b010000 	add	x0, x0, x1
   81c54:	d37ef400 	lsl	x0, x0, #2
   81c58:	8b000040 	add	x0, x2, x0
   81c5c:	97fffdc1 	bl	81360 <full_game>
   81c60:	12001c00 	and	w0, w0, #0xff
   81c64:	7100001f 	cmp	w0, #0x0
   81c68:	540003c0 	b.eq	81ce0 <gameserver+0x44c>  // b.none
   81c6c:	b98203e1 	ldrsw	x1, [sp, #512]
   81c70:	aa0103e0 	mov	x0, x1
   81c74:	d37df000 	lsl	x0, x0, #3
   81c78:	8b010000 	add	x0, x0, x1
   81c7c:	d37ef400 	lsl	x0, x0, #2
   81c80:	910043e1 	add	x1, sp, #0x10
   81c84:	b8606822 	ldr	w2, [x1, x0]
   81c88:	b98203e1 	ldrsw	x1, [sp, #512]
   81c8c:	aa0103e0 	mov	x0, x1
   81c90:	d37df000 	lsl	x0, x0, #3
   81c94:	8b010000 	add	x0, x0, x1
   81c98:	d37ef400 	lsl	x0, x0, #2
   81c9c:	910053e1 	add	x1, sp, #0x14
   81ca0:	b8606820 	ldr	w0, [x1, x0]
   81ca4:	2a0003e4 	mov	w4, w0
   81ca8:	2a0203e3 	mov	w3, w2
   81cac:	b94203e2 	ldr	w2, [sp, #512]
   81cb0:	b0000040 	adrp	x0, 8a000 <vector_table_el1>
   81cb4:	9125e001 	add	x1, x0, #0x978
   81cb8:	d2800020 	mov	x0, #0x1                   	// #1
   81cbc:	940011df 	bl	86438 <uart_printf>
   81cc0:	14000008 	b	81ce0 <gameserver+0x44c>
   81cc4:	b94203e0 	ldr	w0, [sp, #512]
   81cc8:	11000400 	add	w0, w0, #0x1
   81ccc:	b90203e0 	str	w0, [sp, #512]
   81cd0:	b94203e0 	ldr	w0, [sp, #512]
   81cd4:	7100241f 	cmp	w0, #0x9
   81cd8:	54fff4ad 	b.le	81b6c <gameserver+0x2d8>
   81cdc:	14000002 	b	81ce4 <gameserver+0x450>
   81ce0:	d503201f 	nop
   81ce4:	b941b3e3 	ldr	w3, [sp, #432]
   81ce8:	52800322 	mov	w2, #0x19                  	// #25
   81cec:	b0000040 	adrp	x0, 8a000 <vector_table_el1>
   81cf0:	91268001 	add	x1, x0, #0x9a0
   81cf4:	2a0303e0 	mov	w0, w3
   81cf8:	94001ab8 	bl	887d8 <Reply>
   81cfc:	b901c7e0 	str	w0, [sp, #452]
   81d00:	14000107 	b	8211c <gameserver+0x888>
   81d04:	9105e3e2 	add	x2, sp, #0x178
   81d08:	b0000040 	adrp	x0, 8a000 <vector_table_el1>
   81d0c:	9126c001 	add	x1, x0, #0x9b0
   81d10:	aa0203e0 	mov	x0, x2
   81d14:	97fffc82 	bl	80f1c <strcmp_ret>
   81d18:	7100001f 	cmp	w0, #0x0
   81d1c:	54000e60 	b.eq	81ee8 <gameserver+0x654>  // b.none
   81d20:	b941b3e0 	ldr	w0, [sp, #432]
   81d24:	2a0003e2 	mov	w2, w0
   81d28:	910043e0 	add	x0, sp, #0x10
   81d2c:	aa0003e1 	mov	x1, x0
   81d30:	2a0203e0 	mov	w0, w2
   81d34:	97fffeb0 	bl	817f4 <ingame>
   81d38:	7100001f 	cmp	w0, #0x0
   81d3c:	54000121 	b.ne	81d60 <gameserver+0x4cc>  // b.any
   81d40:	b941b3e3 	ldr	w3, [sp, #432]
   81d44:	52800042 	mov	w2, #0x2                   	// #2
   81d48:	b0000040 	adrp	x0, 8a000 <vector_table_el1>
   81d4c:	9126e001 	add	x1, x0, #0x9b8
   81d50:	2a0303e0 	mov	w0, w3
   81d54:	94001aa1 	bl	887d8 <Reply>
   81d58:	b901cbe0 	str	w0, [sp, #456]
   81d5c:	140000f0 	b	8211c <gameserver+0x888>
   81d60:	b901ffff 	str	wzr, [sp, #508]
   81d64:	14000056 	b	81ebc <gameserver+0x628>
   81d68:	b0000040 	adrp	x0, 8a000 <vector_table_el1>
   81d6c:	91244000 	add	x0, x0, #0x910
   81d70:	94000e19 	bl	855d4 <WhoIs>
   81d74:	b901d3e0 	str	w0, [sp, #464]
   81d78:	b981ffe1 	ldrsw	x1, [sp, #508]
   81d7c:	aa0103e0 	mov	x0, x1
   81d80:	d37df000 	lsl	x0, x0, #3
   81d84:	8b010000 	add	x0, x0, x1
   81d88:	d37ef400 	lsl	x0, x0, #2
   81d8c:	910043e1 	add	x1, sp, #0x10
   81d90:	b8606820 	ldr	w0, [x1, x0]
   81d94:	b941b3e1 	ldr	w1, [sp, #432]
   81d98:	6b01001f 	cmp	w0, w1
   81d9c:	540001e1 	b.ne	81dd8 <gameserver+0x544>  // b.any
   81da0:	b981ffe1 	ldrsw	x1, [sp, #508]
   81da4:	aa0103e0 	mov	x0, x1
   81da8:	d37df000 	lsl	x0, x0, #3
   81dac:	8b010000 	add	x0, x0, x1
   81db0:	d37ef400 	lsl	x0, x0, #2
   81db4:	910043e1 	add	x1, sp, #0x10
   81db8:	b820683f 	str	wzr, [x1, x0]
   81dbc:	b981ffe1 	ldrsw	x1, [sp, #508]
   81dc0:	aa0103e0 	mov	x0, x1
   81dc4:	d37df000 	lsl	x0, x0, #3
   81dc8:	8b010000 	add	x0, x0, x1
   81dcc:	d37ef400 	lsl	x0, x0, #2
   81dd0:	910063e1 	add	x1, sp, #0x18
   81dd4:	3820683f 	strb	wzr, [x1, x0]
   81dd8:	b981ffe1 	ldrsw	x1, [sp, #508]
   81ddc:	aa0103e0 	mov	x0, x1
   81de0:	d37df000 	lsl	x0, x0, #3
   81de4:	8b010000 	add	x0, x0, x1
   81de8:	d37ef400 	lsl	x0, x0, #2
   81dec:	910053e1 	add	x1, sp, #0x14
   81df0:	b8606820 	ldr	w0, [x1, x0]
   81df4:	b941b3e1 	ldr	w1, [sp, #432]
   81df8:	6b01001f 	cmp	w0, w1
   81dfc:	540001e1 	b.ne	81e38 <gameserver+0x5a4>  // b.any
   81e00:	b981ffe1 	ldrsw	x1, [sp, #508]
   81e04:	aa0103e0 	mov	x0, x1
   81e08:	d37df000 	lsl	x0, x0, #3
   81e0c:	8b010000 	add	x0, x0, x1
   81e10:	d37ef400 	lsl	x0, x0, #2
   81e14:	910053e1 	add	x1, sp, #0x14
   81e18:	b820683f 	str	wzr, [x1, x0]
   81e1c:	b981ffe1 	ldrsw	x1, [sp, #508]
   81e20:	aa0103e0 	mov	x0, x1
   81e24:	d37df000 	lsl	x0, x0, #3
   81e28:	8b010000 	add	x0, x0, x1
   81e2c:	d37ef400 	lsl	x0, x0, #2
   81e30:	91008be1 	add	x1, sp, #0x22
   81e34:	3820683f 	strb	wzr, [x1, x0]
   81e38:	b981ffe1 	ldrsw	x1, [sp, #508]
   81e3c:	aa0103e0 	mov	x0, x1
   81e40:	d37df000 	lsl	x0, x0, #3
   81e44:	8b010000 	add	x0, x0, x1
   81e48:	d37ef400 	lsl	x0, x0, #2
   81e4c:	910053e1 	add	x1, sp, #0x14
   81e50:	b8606821 	ldr	w1, [x1, x0]
   81e54:	b941d3e0 	ldr	w0, [sp, #464]
   81e58:	6b00003f 	cmp	w1, w0
   81e5c:	54000160 	b.eq	81e88 <gameserver+0x5f4>  // b.none
   81e60:	b981ffe1 	ldrsw	x1, [sp, #508]
   81e64:	aa0103e0 	mov	x0, x1
   81e68:	d37df000 	lsl	x0, x0, #3
   81e6c:	8b010000 	add	x0, x0, x1
   81e70:	d37ef400 	lsl	x0, x0, #2
   81e74:	910043e1 	add	x1, sp, #0x10
   81e78:	b8606821 	ldr	w1, [x1, x0]
   81e7c:	b941d3e0 	ldr	w0, [sp, #464]
   81e80:	6b00003f 	cmp	w1, w0
   81e84:	54000161 	b.ne	81eb0 <gameserver+0x61c>  // b.any
   81e88:	b0000040 	adrp	x0, 8a000 <vector_table_el1>
   81e8c:	91270001 	add	x1, x0, #0x9c0
   81e90:	d2800020 	mov	x0, #0x1                   	// #1
   81e94:	94001169 	bl	86438 <uart_printf>
   81e98:	52800042 	mov	w2, #0x2                   	// #2
   81e9c:	b0000040 	adrp	x0, 8a000 <vector_table_el1>
   81ea0:	91246001 	add	x1, x0, #0x918
   81ea4:	b941d3e0 	ldr	w0, [sp, #464]
   81ea8:	94001a4c 	bl	887d8 <Reply>
   81eac:	b901cfe0 	str	w0, [sp, #460]
   81eb0:	b941ffe0 	ldr	w0, [sp, #508]
   81eb4:	11000400 	add	w0, w0, #0x1
   81eb8:	b901ffe0 	str	w0, [sp, #508]
   81ebc:	b941ffe0 	ldr	w0, [sp, #508]
   81ec0:	7100241f 	cmp	w0, #0x9
   81ec4:	54fff52d 	b.le	81d68 <gameserver+0x4d4>
   81ec8:	b941b3e3 	ldr	w3, [sp, #432]
   81ecc:	52800322 	mov	w2, #0x19                  	// #25
   81ed0:	b0000040 	adrp	x0, 8a000 <vector_table_el1>
   81ed4:	91268001 	add	x1, x0, #0x9a0
   81ed8:	2a0303e0 	mov	w0, w3
   81edc:	94001a3f 	bl	887d8 <Reply>
   81ee0:	b901d7e0 	str	w0, [sp, #468]
   81ee4:	1400008e 	b	8211c <gameserver+0x888>
   81ee8:	9105e3e2 	add	x2, sp, #0x178
   81eec:	b0000040 	adrp	x0, 8a000 <vector_table_el1>
   81ef0:	91238001 	add	x1, x0, #0x8e0
   81ef4:	aa0203e0 	mov	x0, x2
   81ef8:	97fffc09 	bl	80f1c <strcmp_ret>
   81efc:	7100001f 	cmp	w0, #0x0
   81f00:	540001e1 	b.ne	81f3c <gameserver+0x6a8>  // b.any
   81f04:	9105e3e2 	add	x2, sp, #0x178
   81f08:	b0000040 	adrp	x0, 8a000 <vector_table_el1>
   81f0c:	9123e001 	add	x1, x0, #0x8f8
   81f10:	aa0203e0 	mov	x0, x2
   81f14:	97fffc02 	bl	80f1c <strcmp_ret>
   81f18:	7100001f 	cmp	w0, #0x0
   81f1c:	54000101 	b.ne	81f3c <gameserver+0x6a8>  // b.any
   81f20:	9105e3e2 	add	x2, sp, #0x178
   81f24:	b0000040 	adrp	x0, 8a000 <vector_table_el1>
   81f28:	9123a001 	add	x1, x0, #0x8e8
   81f2c:	aa0203e0 	mov	x0, x2
   81f30:	97fffbfb 	bl	80f1c <strcmp_ret>
   81f34:	7100001f 	cmp	w0, #0x0
   81f38:	54ffd060 	b.eq	81944 <gameserver+0xb0>  // b.none
   81f3c:	b941b3e0 	ldr	w0, [sp, #432]
   81f40:	2a0003e2 	mov	w2, w0
   81f44:	910043e0 	add	x0, sp, #0x10
   81f48:	aa0003e1 	mov	x1, x0
   81f4c:	2a0203e0 	mov	w0, w2
   81f50:	97fffe29 	bl	817f4 <ingame>
   81f54:	7100001f 	cmp	w0, #0x0
   81f58:	54000121 	b.ne	81f7c <gameserver+0x6e8>  // b.any
   81f5c:	b941b3e3 	ldr	w3, [sp, #432]
   81f60:	52800042 	mov	w2, #0x2                   	// #2
   81f64:	b0000040 	adrp	x0, 8a000 <vector_table_el1>
   81f68:	9126e001 	add	x1, x0, #0x9b8
   81f6c:	2a0303e0 	mov	w0, w3
   81f70:	94001a1a 	bl	887d8 <Reply>
   81f74:	b901dbe0 	str	w0, [sp, #472]
   81f78:	14000069 	b	8211c <gameserver+0x888>
   81f7c:	b941b3e0 	ldr	w0, [sp, #432]
   81f80:	2a0003e3 	mov	w3, w0
   81f84:	910043e1 	add	x1, sp, #0x10
   81f88:	9105e3e0 	add	x0, sp, #0x178
   81f8c:	aa0103e2 	mov	x2, x1
   81f90:	2a0303e1 	mov	w1, w3
   81f94:	97fffd16 	bl	813ec <set_play>
   81f98:	3907cfe0 	strb	w0, [sp, #499]
   81f9c:	3947cfe0 	ldrb	w0, [sp, #499]
   81fa0:	93407c01 	sxtw	x1, w0
   81fa4:	aa0103e0 	mov	x0, x1
   81fa8:	d37df000 	lsl	x0, x0, #3
   81fac:	8b010000 	add	x0, x0, x1
   81fb0:	d37ef400 	lsl	x0, x0, #2
   81fb4:	910043e1 	add	x1, sp, #0x10
   81fb8:	b8606820 	ldr	w0, [x1, x0]
   81fbc:	b901efe0 	str	w0, [sp, #492]
   81fc0:	3947cfe0 	ldrb	w0, [sp, #499]
   81fc4:	93407c01 	sxtw	x1, w0
   81fc8:	aa0103e0 	mov	x0, x1
   81fcc:	d37df000 	lsl	x0, x0, #3
   81fd0:	8b010000 	add	x0, x0, x1
   81fd4:	d37ef400 	lsl	x0, x0, #2
   81fd8:	910053e1 	add	x1, sp, #0x14
   81fdc:	b8606820 	ldr	w0, [x1, x0]
   81fe0:	b901ebe0 	str	w0, [sp, #488]
   81fe4:	3947cfe0 	ldrb	w0, [sp, #499]
   81fe8:	910043e2 	add	x2, sp, #0x10
   81fec:	93407c01 	sxtw	x1, w0
   81ff0:	aa0103e0 	mov	x0, x1
   81ff4:	d37df000 	lsl	x0, x0, #3
   81ff8:	8b010000 	add	x0, x0, x1
   81ffc:	d37ef400 	lsl	x0, x0, #2
   82000:	8b000040 	add	x0, x2, x0
   82004:	97fffce7 	bl	813a0 <full_play>
   82008:	12001c00 	and	w0, w0, #0xff
   8200c:	7100001f 	cmp	w0, #0x0
   82010:	54ffc9a0 	b.eq	81944 <gameserver+0xb0>  // b.none
   82014:	3947cfe0 	ldrb	w0, [sp, #499]
   82018:	910043e2 	add	x2, sp, #0x10
   8201c:	93407c01 	sxtw	x1, w0
   82020:	aa0103e0 	mov	x0, x1
   82024:	d37df000 	lsl	x0, x0, #3
   82028:	8b010000 	add	x0, x0, x1
   8202c:	d37ef400 	lsl	x0, x0, #2
   82030:	8b000040 	add	x0, x2, x0
   82034:	97fffd4f 	bl	81570 <check_game>
   82038:	b901e7e0 	str	w0, [sp, #484]
   8203c:	3947cfe0 	ldrb	w0, [sp, #499]
   82040:	910043e2 	add	x2, sp, #0x10
   82044:	93407c01 	sxtw	x1, w0
   82048:	aa0103e0 	mov	x0, x1
   8204c:	d37df000 	lsl	x0, x0, #3
   82050:	8b010000 	add	x0, x0, x1
   82054:	d37ef400 	lsl	x0, x0, #2
   82058:	8b000040 	add	x0, x2, x0
   8205c:	97fffd3c 	bl	8154c <reset_game>
   82060:	b941e7e0 	ldr	w0, [sp, #484]
   82064:	7100041f 	cmp	w0, #0x1
   82068:	540001c1 	b.ne	820a0 <gameserver+0x80c>  // b.any
   8206c:	52800042 	mov	w2, #0x2                   	// #2
   82070:	90000040 	adrp	x0, 8a000 <vector_table_el1>
   82074:	91278001 	add	x1, x0, #0x9e0
   82078:	b941efe0 	ldr	w0, [sp, #492]
   8207c:	940019d7 	bl	887d8 <Reply>
   82080:	b901e3e0 	str	w0, [sp, #480]
   82084:	52800042 	mov	w2, #0x2                   	// #2
   82088:	90000040 	adrp	x0, 8a000 <vector_table_el1>
   8208c:	9127a001 	add	x1, x0, #0x9e8
   82090:	b941ebe0 	ldr	w0, [sp, #488]
   82094:	940019d1 	bl	887d8 <Reply>
   82098:	b901dfe0 	str	w0, [sp, #476]
   8209c:	17fffe2a 	b	81944 <gameserver+0xb0>
   820a0:	b941e7e0 	ldr	w0, [sp, #484]
   820a4:	7100081f 	cmp	w0, #0x2
   820a8:	540001c1 	b.ne	820e0 <gameserver+0x84c>  // b.any
   820ac:	52800042 	mov	w2, #0x2                   	// #2
   820b0:	90000040 	adrp	x0, 8a000 <vector_table_el1>
   820b4:	9127a001 	add	x1, x0, #0x9e8
   820b8:	b941efe0 	ldr	w0, [sp, #492]
   820bc:	940019c7 	bl	887d8 <Reply>
   820c0:	b901e3e0 	str	w0, [sp, #480]
   820c4:	52800042 	mov	w2, #0x2                   	// #2
   820c8:	90000040 	adrp	x0, 8a000 <vector_table_el1>
   820cc:	91278001 	add	x1, x0, #0x9e0
   820d0:	b941ebe0 	ldr	w0, [sp, #488]
   820d4:	940019c1 	bl	887d8 <Reply>
   820d8:	b901dfe0 	str	w0, [sp, #476]
   820dc:	17fffe1a 	b	81944 <gameserver+0xb0>
   820e0:	b941e7e0 	ldr	w0, [sp, #484]
   820e4:	7100001f 	cmp	w0, #0x0
   820e8:	54ffc2e1 	b.ne	81944 <gameserver+0xb0>  // b.any
   820ec:	52800042 	mov	w2, #0x2                   	// #2
   820f0:	90000040 	adrp	x0, 8a000 <vector_table_el1>
   820f4:	9127c001 	add	x1, x0, #0x9f0
   820f8:	b941efe0 	ldr	w0, [sp, #492]
   820fc:	940019b7 	bl	887d8 <Reply>
   82100:	b901e3e0 	str	w0, [sp, #480]
   82104:	52800042 	mov	w2, #0x2                   	// #2
   82108:	90000040 	adrp	x0, 8a000 <vector_table_el1>
   8210c:	9127c001 	add	x1, x0, #0x9f0
   82110:	b941ebe0 	ldr	w0, [sp, #488]
   82114:	940019b1 	bl	887d8 <Reply>
   82118:	b901dfe0 	str	w0, [sp, #476]
   8211c:	17fffe0a 	b	81944 <gameserver+0xb0>

0000000000082120 <signup>:
   82120:	a9bd7bfd 	stp	x29, x30, [sp, #-48]!
   82124:	910003fd 	mov	x29, sp
   82128:	90000040 	adrp	x0, 8a000 <vector_table_el1>
   8212c:	91240000 	add	x0, x0, #0x900
   82130:	94000d29 	bl	855d4 <WhoIs>
   82134:	b9002fe0 	str	w0, [sp, #44]
   82138:	d28d2e60 	mov	x0, #0x6973                	// #26995
   8213c:	f2adcce0 	movk	x0, #0x6e67, lsl #16
   82140:	f2ce0ea0 	movk	x0, #0x7075, lsl #32
   82144:	d2800001 	mov	x1, #0x0                   	// #0
   82148:	a90107e0 	stp	x0, x1, [sp, #16]
   8214c:	f90013ff 	str	xzr, [sp, #32]
   82150:	3900a3ff 	strb	wzr, [sp, #40]
   82154:	39005bff 	strb	wzr, [sp, #22]
   82158:	910043e1 	add	x1, sp, #0x10
   8215c:	910043e0 	add	x0, sp, #0x10
   82160:	52800324 	mov	w4, #0x19                  	// #25
   82164:	aa0103e3 	mov	x3, x1
   82168:	528000e2 	mov	w2, #0x7                   	// #7
   8216c:	aa0003e1 	mov	x1, x0
   82170:	b9402fe0 	ldr	w0, [sp, #44]
   82174:	94001985 	bl	88788 <Send>
   82178:	d503201f 	nop
   8217c:	a8c37bfd 	ldp	x29, x30, [sp], #48
   82180:	d65f03c0 	ret

0000000000082184 <quit>:
   82184:	a9bd7bfd 	stp	x29, x30, [sp, #-48]!
   82188:	910003fd 	mov	x29, sp
   8218c:	90000040 	adrp	x0, 8a000 <vector_table_el1>
   82190:	91240000 	add	x0, x0, #0x900
   82194:	94000d10 	bl	855d4 <WhoIs>
   82198:	b9002fe0 	str	w0, [sp, #44]
   8219c:	d28eae20 	mov	x0, #0x7571                	// #30065
   821a0:	f2ae8d20 	movk	x0, #0x7469, lsl #16
   821a4:	d2800001 	mov	x1, #0x0                   	// #0
   821a8:	a90107e0 	stp	x0, x1, [sp, #16]
   821ac:	f90013ff 	str	xzr, [sp, #32]
   821b0:	3900a3ff 	strb	wzr, [sp, #40]
   821b4:	390053ff 	strb	wzr, [sp, #20]
   821b8:	910043e1 	add	x1, sp, #0x10
   821bc:	910043e0 	add	x0, sp, #0x10
   821c0:	52800324 	mov	w4, #0x19                  	// #25
   821c4:	aa0103e3 	mov	x3, x1
   821c8:	528000c2 	mov	w2, #0x6                   	// #6
   821cc:	aa0003e1 	mov	x1, x0
   821d0:	b9402fe0 	ldr	w0, [sp, #44]
   821d4:	9400196d 	bl	88788 <Send>
   821d8:	d503201f 	nop
   821dc:	a8c37bfd 	ldp	x29, x30, [sp], #48
   821e0:	d65f03c0 	ret

00000000000821e4 <play>:
   821e4:	a9bc7bfd 	stp	x29, x30, [sp, #-64]!
   821e8:	910003fd 	mov	x29, sp
   821ec:	f9000fe0 	str	x0, [sp, #24]
   821f0:	90000040 	adrp	x0, 8a000 <vector_table_el1>
   821f4:	91240000 	add	x0, x0, #0x900
   821f8:	94000cf7 	bl	855d4 <WhoIs>
   821fc:	b9003fe0 	str	w0, [sp, #60]
   82200:	910083e0 	add	x0, sp, #0x20
   82204:	52800324 	mov	w4, #0x19                  	// #25
   82208:	aa0003e3 	mov	x3, x0
   8220c:	52800122 	mov	w2, #0x9                   	// #9
   82210:	f9400fe1 	ldr	x1, [sp, #24]
   82214:	b9403fe0 	ldr	w0, [sp, #60]
   82218:	9400195c 	bl	88788 <Send>
   8221c:	394083e0 	ldrb	w0, [sp, #32]
   82220:	3900efe0 	strb	w0, [sp, #59]
   82224:	3940efe0 	ldrb	w0, [sp, #59]
   82228:	a8c47bfd 	ldp	x29, x30, [sp], #64
   8222c:	d65f03c0 	ret

0000000000082230 <RPCShutdown>:
   82230:	a9bd7bfd 	stp	x29, x30, [sp, #-48]!
   82234:	910003fd 	mov	x29, sp
   82238:	90000040 	adrp	x0, 8a000 <vector_table_el1>
   8223c:	91240000 	add	x0, x0, #0x900
   82240:	94000ce5 	bl	855d4 <WhoIs>
   82244:	b9002fe0 	str	w0, [sp, #44]
   82248:	d28d0e60 	mov	x0, #0x6873                	// #26739
   8224c:	f2ae8ea0 	movk	x0, #0x7475, lsl #16
   82250:	f2cdec80 	movk	x0, #0x6f64, lsl #32
   82254:	f2edcee0 	movk	x0, #0x6e77, lsl #48
   82258:	d2800001 	mov	x1, #0x0                   	// #0
   8225c:	a90107e0 	stp	x0, x1, [sp, #16]
   82260:	f90013ff 	str	xzr, [sp, #32]
   82264:	3900a3ff 	strb	wzr, [sp, #40]
   82268:	390063ff 	strb	wzr, [sp, #24]
   8226c:	910043e1 	add	x1, sp, #0x10
   82270:	910043e0 	add	x0, sp, #0x10
   82274:	52800324 	mov	w4, #0x19                  	// #25
   82278:	aa0103e3 	mov	x3, x1
   8227c:	52800122 	mov	w2, #0x9                   	// #9
   82280:	aa0003e1 	mov	x1, x0
   82284:	b9402fe0 	ldr	w0, [sp, #44]
   82288:	94001940 	bl	88788 <Send>
   8228c:	394043e0 	ldrb	w0, [sp, #16]
   82290:	3900afe0 	strb	w0, [sp, #43]
   82294:	3940afe0 	ldrb	w0, [sp, #43]
   82298:	a8c37bfd 	ldp	x29, x30, [sp], #48
   8229c:	d65f03c0 	ret

00000000000822a0 <route_interrupt>:
   822a0:	a9bd7bfd 	stp	x29, x30, [sp, #-48]!
   822a4:	910003fd 	mov	x29, sp
   822a8:	b9001fe0 	str	w0, [sp, #28]
   822ac:	39006fe1 	strb	w1, [sp, #27]
   822b0:	39406fe0 	ldrb	w0, [sp, #27]
   822b4:	71001c1f 	cmp	w0, #0x7
   822b8:	54000968 	b.hi	823e4 <route_interrupt+0x144>  // b.pmore
   822bc:	b9401fe0 	ldr	w0, [sp, #28]
   822c0:	53027c00 	lsr	w0, w0, #2
   822c4:	b9002be0 	str	w0, [sp, #40]
   822c8:	b9401fe0 	ldr	w0, [sp, #28]
   822cc:	12000400 	and	w0, w0, #0x3
   822d0:	b90027e0 	str	w0, [sp, #36]
   822d4:	39406fe0 	ldrb	w0, [sp, #27]
   822d8:	52800021 	mov	w1, #0x1                   	// #1
   822dc:	1ac02021 	lsl	w1, w1, w0
   822e0:	b94027e0 	ldr	w0, [sp, #36]
   822e4:	531d7000 	lsl	w0, w0, #3
   822e8:	1ac02020 	lsl	w0, w1, w0
   822ec:	b90023e0 	str	w0, [sp, #32]
   822f0:	528003e0 	mov	w0, #0x1f                  	// #31
   822f4:	b9002fe0 	str	w0, [sp, #44]
   822f8:	14000015 	b	8234c <route_interrupt+0xac>
   822fc:	b9402fe0 	ldr	w0, [sp, #44]
   82300:	52800021 	mov	w1, #0x1                   	// #1
   82304:	1ac02020 	lsl	w0, w1, w0
   82308:	2a0003e1 	mov	w1, w0
   8230c:	b94023e0 	ldr	w0, [sp, #32]
   82310:	0a000020 	and	w0, w1, w0
   82314:	7100001f 	cmp	w0, #0x0
   82318:	540000c0 	b.eq	82330 <route_interrupt+0x90>  // b.none
   8231c:	90000040 	adrp	x0, 8a000 <vector_table_el1>
   82320:	9127e001 	add	x1, x0, #0x9f8
   82324:	d2800020 	mov	x0, #0x1                   	// #1
   82328:	94001044 	bl	86438 <uart_printf>
   8232c:	14000005 	b	82340 <route_interrupt+0xa0>
   82330:	90000040 	adrp	x0, 8a000 <vector_table_el1>
   82334:	91280001 	add	x1, x0, #0xa00
   82338:	d2800020 	mov	x0, #0x1                   	// #1
   8233c:	9400103f 	bl	86438 <uart_printf>
   82340:	b9402fe0 	ldr	w0, [sp, #44]
   82344:	51000400 	sub	w0, w0, #0x1
   82348:	b9002fe0 	str	w0, [sp, #44]
   8234c:	b9402fe0 	ldr	w0, [sp, #44]
   82350:	7100001f 	cmp	w0, #0x0
   82354:	54fffd4a 	b.ge	822fc <route_interrupt+0x5c>  // b.tcont
   82358:	90000040 	adrp	x0, 8a000 <vector_table_el1>
   8235c:	91282001 	add	x1, x0, #0xa08
   82360:	d2800020 	mov	x0, #0x1                   	// #1
   82364:	94001035 	bl	86438 <uart_printf>
   82368:	b9402be1 	ldr	w1, [sp, #40]
   8236c:	5280c000 	mov	w0, #0x600                 	// #1536
   82370:	72a7fc20 	movk	w0, #0x3fe1, lsl #16
   82374:	0b000020 	add	w0, w1, w0
   82378:	531e7400 	lsl	w0, w0, #2
   8237c:	2a0003e0 	mov	w0, w0
   82380:	aa0003e2 	mov	x2, x0
   82384:	90000040 	adrp	x0, 8a000 <vector_table_el1>
   82388:	91284001 	add	x1, x0, #0xa10
   8238c:	d2800020 	mov	x0, #0x1                   	// #1
   82390:	9400102a 	bl	86438 <uart_printf>
   82394:	b9402be1 	ldr	w1, [sp, #40]
   82398:	5280c000 	mov	w0, #0x600                 	// #1536
   8239c:	72a7fc20 	movk	w0, #0x3fe1, lsl #16
   823a0:	0b000020 	add	w0, w1, w0
   823a4:	531e7400 	lsl	w0, w0, #2
   823a8:	2a0003e2 	mov	w2, w0
   823ac:	90000040 	adrp	x0, 8a000 <vector_table_el1>
   823b0:	91284001 	add	x1, x0, #0xa10
   823b4:	d2800020 	mov	x0, #0x1                   	// #1
   823b8:	94001020 	bl	86438 <uart_printf>
   823bc:	b9402be1 	ldr	w1, [sp, #40]
   823c0:	5280c000 	mov	w0, #0x600                 	// #1536
   823c4:	72a7fc20 	movk	w0, #0x3fe1, lsl #16
   823c8:	0b000020 	add	w0, w1, w0
   823cc:	531e7400 	lsl	w0, w0, #2
   823d0:	2a0003e0 	mov	w0, w0
   823d4:	aa0003e1 	mov	x1, x0
   823d8:	b94023e0 	ldr	w0, [sp, #32]
   823dc:	b9000020 	str	w0, [x1]
   823e0:	14000002 	b	823e8 <route_interrupt+0x148>
   823e4:	d503201f 	nop
   823e8:	a8c37bfd 	ldp	x29, x30, [sp], #48
   823ec:	d65f03c0 	ret

00000000000823f0 <enable_interrupt>:
   823f0:	d10083ff 	sub	sp, sp, #0x20
   823f4:	b9000fe0 	str	w0, [sp, #12]
   823f8:	b9400fe0 	ldr	w0, [sp, #12]
   823fc:	53057c00 	lsr	w0, w0, #5
   82400:	b9001fe0 	str	w0, [sp, #28]
   82404:	b9400fe0 	ldr	w0, [sp, #12]
   82408:	12001000 	and	w0, w0, #0x1f
   8240c:	b9001be0 	str	w0, [sp, #24]
   82410:	b9401fe1 	ldr	w1, [sp, #28]
   82414:	52808800 	mov	w0, #0x440                 	// #1088
   82418:	72a7fc20 	movk	w0, #0x3fe1, lsl #16
   8241c:	0b000020 	add	w0, w1, w0
   82420:	531e7400 	lsl	w0, w0, #2
   82424:	2a0003e0 	mov	w0, w0
   82428:	b9400000 	ldr	w0, [x0]
   8242c:	b9401be1 	ldr	w1, [sp, #24]
   82430:	52800022 	mov	w2, #0x1                   	// #1
   82434:	1ac12041 	lsl	w1, w2, w1
   82438:	2a0103e3 	mov	w3, w1
   8243c:	b9401fe2 	ldr	w2, [sp, #28]
   82440:	52808801 	mov	w1, #0x440                 	// #1088
   82444:	72a7fc21 	movk	w1, #0x3fe1, lsl #16
   82448:	0b010041 	add	w1, w2, w1
   8244c:	531e7421 	lsl	w1, w1, #2
   82450:	2a0103e1 	mov	w1, w1
   82454:	2a030000 	orr	w0, w0, w3
   82458:	b9000020 	str	w0, [x1]
   8245c:	d503201f 	nop
   82460:	910083ff 	add	sp, sp, #0x20
   82464:	d65f03c0 	ret

0000000000082468 <setActiveInterrupt>:
   82468:	d10083ff 	sub	sp, sp, #0x20
   8246c:	b9000fe0 	str	w0, [sp, #12]
   82470:	b9400fe0 	ldr	w0, [sp, #12]
   82474:	53057c00 	lsr	w0, w0, #5
   82478:	b9001fe0 	str	w0, [sp, #28]
   8247c:	b9400fe0 	ldr	w0, [sp, #12]
   82480:	12001000 	and	w0, w0, #0x1f
   82484:	b9001be0 	str	w0, [sp, #24]
   82488:	b9401fe1 	ldr	w1, [sp, #28]
   8248c:	52808800 	mov	w0, #0x440                 	// #1088
   82490:	72a7fc20 	movk	w0, #0x3fe1, lsl #16
   82494:	0b000020 	add	w0, w1, w0
   82498:	531e7400 	lsl	w0, w0, #2
   8249c:	2a0003e0 	mov	w0, w0
   824a0:	b9400000 	ldr	w0, [x0]
   824a4:	b9401be1 	ldr	w1, [sp, #24]
   824a8:	52800022 	mov	w2, #0x1                   	// #1
   824ac:	1ac12041 	lsl	w1, w2, w1
   824b0:	2a0103e3 	mov	w3, w1
   824b4:	b9401fe2 	ldr	w2, [sp, #28]
   824b8:	52808801 	mov	w1, #0x440                 	// #1088
   824bc:	72a7fc21 	movk	w1, #0x3fe1, lsl #16
   824c0:	0b010041 	add	w1, w2, w1
   824c4:	531e7421 	lsl	w1, w1, #2
   824c8:	2a0103e1 	mov	w1, w1
   824cc:	2a030000 	orr	w0, w0, w3
   824d0:	b9000020 	str	w0, [x1]
   824d4:	d503201f 	nop
   824d8:	910083ff 	add	sp, sp, #0x20
   824dc:	d65f03c0 	ret

00000000000824e0 <checkActiveInterrupt>:
   824e0:	d10083ff 	sub	sp, sp, #0x20
   824e4:	b9000fe0 	str	w0, [sp, #12]
   824e8:	b9400fe0 	ldr	w0, [sp, #12]
   824ec:	53057c00 	lsr	w0, w0, #5
   824f0:	b9001fe0 	str	w0, [sp, #28]
   824f4:	b9400fe0 	ldr	w0, [sp, #12]
   824f8:	12001000 	and	w0, w0, #0x1f
   824fc:	b9001be0 	str	w0, [sp, #24]
   82500:	b9401fe1 	ldr	w1, [sp, #28]
   82504:	52808800 	mov	w0, #0x440                 	// #1088
   82508:	72a7fc20 	movk	w0, #0x3fe1, lsl #16
   8250c:	0b000020 	add	w0, w1, w0
   82510:	531e7400 	lsl	w0, w0, #2
   82514:	2a0003e0 	mov	w0, w0
   82518:	b9400000 	ldr	w0, [x0]
   8251c:	b9401be1 	ldr	w1, [sp, #24]
   82520:	52800022 	mov	w2, #0x1                   	// #1
   82524:	1ac12041 	lsl	w1, w2, w1
   82528:	0a010000 	and	w0, w0, w1
   8252c:	910083ff 	add	sp, sp, #0x20
   82530:	d65f03c0 	ret

0000000000082534 <clearActiveInterrupt>:
   82534:	d10083ff 	sub	sp, sp, #0x20
   82538:	b9000fe0 	str	w0, [sp, #12]
   8253c:	b9400fe0 	ldr	w0, [sp, #12]
   82540:	53057c00 	lsr	w0, w0, #5
   82544:	b9001fe0 	str	w0, [sp, #28]
   82548:	b9400fe0 	ldr	w0, [sp, #12]
   8254c:	12001000 	and	w0, w0, #0x1f
   82550:	b9001be0 	str	w0, [sp, #24]
   82554:	b9401fe1 	ldr	w1, [sp, #28]
   82558:	52808800 	mov	w0, #0x440                 	// #1088
   8255c:	72a7fc20 	movk	w0, #0x3fe1, lsl #16
   82560:	0b000020 	add	w0, w1, w0
   82564:	531e7400 	lsl	w0, w0, #2
   82568:	2a0003e0 	mov	w0, w0
   8256c:	b9400000 	ldr	w0, [x0]
   82570:	b9401be1 	ldr	w1, [sp, #24]
   82574:	52800022 	mov	w2, #0x1                   	// #1
   82578:	1ac12041 	lsl	w1, w2, w1
   8257c:	2a0103e3 	mov	w3, w1
   82580:	b9401fe2 	ldr	w2, [sp, #28]
   82584:	52808801 	mov	w1, #0x440                 	// #1088
   82588:	72a7fc21 	movk	w1, #0x3fe1, lsl #16
   8258c:	0b010041 	add	w1, w2, w1
   82590:	531e7421 	lsl	w1, w1, #2
   82594:	2a0103e1 	mov	w1, w1
   82598:	2a030000 	orr	w0, w0, w3
   8259c:	b9000020 	str	w0, [x1]
   825a0:	d503201f 	nop
   825a4:	910083ff 	add	sp, sp, #0x20
   825a8:	d65f03c0 	ret

00000000000825ac <readInterruptId>:
   825ac:	d2840180 	mov	x0, #0x200c                	// #8204
   825b0:	f2bff080 	movk	x0, #0xff84, lsl #16
   825b4:	b9400000 	ldr	w0, [x0]
   825b8:	12002400 	and	w0, w0, #0x3ff
   825bc:	d65f03c0 	ret

00000000000825c0 <endInterrupt>:
   825c0:	a9bd7bfd 	stp	x29, x30, [sp, #-48]!
   825c4:	910003fd 	mov	x29, sp
   825c8:	79003fe0 	strh	w0, [sp, #30]
   825cc:	79403fe0 	ldrh	w0, [sp, #30]
   825d0:	710ffc1f 	cmp	w0, #0x3ff
   825d4:	540000c9 	b.ls	825ec <endInterrupt+0x2c>  // b.plast
   825d8:	90000040 	adrp	x0, 8a000 <vector_table_el1>
   825dc:	9128c001 	add	x1, x0, #0xa30
   825e0:	d2800020 	mov	x0, #0x1                   	// #1
   825e4:	94000f95 	bl	86438 <uart_printf>
   825e8:	14000013 	b	82634 <endInterrupt+0x74>
   825ec:	d2840200 	mov	x0, #0x2010                	// #8208
   825f0:	f2bff080 	movk	x0, #0xff84, lsl #16
   825f4:	b9400000 	ldr	w0, [x0]
   825f8:	b9002fe0 	str	w0, [sp, #44]
   825fc:	b9402fe0 	ldr	w0, [sp, #44]
   82600:	530a7c00 	lsr	w0, w0, #10
   82604:	b9002fe0 	str	w0, [sp, #44]
   82608:	b9402fe0 	ldr	w0, [sp, #44]
   8260c:	53165400 	lsl	w0, w0, #10
   82610:	b9002fe0 	str	w0, [sp, #44]
   82614:	79403fe0 	ldrh	w0, [sp, #30]
   82618:	b9402fe1 	ldr	w1, [sp, #44]
   8261c:	2a000020 	orr	w0, w1, w0
   82620:	b9002fe0 	str	w0, [sp, #44]
   82624:	d2840200 	mov	x0, #0x2010                	// #8208
   82628:	f2bff080 	movk	x0, #0xff84, lsl #16
   8262c:	b9402fe1 	ldr	w1, [sp, #44]
   82630:	b9000001 	str	w1, [x0]
   82634:	a8c37bfd 	ldp	x29, x30, [sp], #48
   82638:	d65f03c0 	ret

000000000008263c <int64_to_byint>:
   8263c:	d10083ff 	sub	sp, sp, #0x20
   82640:	f9000fe0 	str	x0, [sp, #24]
   82644:	f9000be1 	str	x1, [sp, #16]
   82648:	f90007e2 	str	x2, [sp, #8]
   8264c:	f9400fe0 	ldr	x0, [sp, #24]
   82650:	d360fc00 	lsr	x0, x0, #32
   82654:	2a0003e1 	mov	w1, w0
   82658:	f9400be0 	ldr	x0, [sp, #16]
   8265c:	b9000001 	str	w1, [x0]
   82660:	f9400fe0 	ldr	x0, [sp, #24]
   82664:	2a0003e1 	mov	w1, w0
   82668:	f94007e0 	ldr	x0, [sp, #8]
   8266c:	b9000001 	str	w1, [x0]
   82670:	d503201f 	nop
   82674:	910083ff 	add	sp, sp, #0x20
   82678:	d65f03c0 	ret

000000000008267c <byint_to_int64>:
   8267c:	d10083ff 	sub	sp, sp, #0x20
   82680:	b9000fe0 	str	w0, [sp, #12]
   82684:	b9000be1 	str	w1, [sp, #8]
   82688:	b9800fe0 	ldrsw	x0, [sp, #12]
   8268c:	f9000fe0 	str	x0, [sp, #24]
   82690:	f9400fe0 	ldr	x0, [sp, #24]
   82694:	d3607c00 	lsl	x0, x0, #32
   82698:	f9000fe0 	str	x0, [sp, #24]
   8269c:	b9800be0 	ldrsw	x0, [sp, #8]
   826a0:	f9400fe1 	ldr	x1, [sp, #24]
   826a4:	aa000020 	orr	x0, x1, x0
   826a8:	f9000fe0 	str	x0, [sp, #24]
   826ac:	f9400fe0 	ldr	x0, [sp, #24]
   826b0:	910083ff 	add	sp, sp, #0x20
   826b4:	d65f03c0 	ret

00000000000826b8 <octochar_to_int64>:
   826b8:	d10083ff 	sub	sp, sp, #0x20
   826bc:	f90007e0 	str	x0, [sp, #8]
   826c0:	f9000fff 	str	xzr, [sp, #24]
   826c4:	528000e0 	mov	w0, #0x7                   	// #7
   826c8:	b90017e0 	str	w0, [sp, #20]
   826cc:	1400000f 	b	82708 <octochar_to_int64+0x50>
   826d0:	f9400fe0 	ldr	x0, [sp, #24]
   826d4:	d378dc00 	lsl	x0, x0, #8
   826d8:	f9000fe0 	str	x0, [sp, #24]
   826dc:	b98017e0 	ldrsw	x0, [sp, #20]
   826e0:	f94007e1 	ldr	x1, [sp, #8]
   826e4:	8b000020 	add	x0, x1, x0
   826e8:	39400000 	ldrb	w0, [x0]
   826ec:	92401c00 	and	x0, x0, #0xff
   826f0:	f9400fe1 	ldr	x1, [sp, #24]
   826f4:	aa000020 	orr	x0, x1, x0
   826f8:	f9000fe0 	str	x0, [sp, #24]
   826fc:	b94017e0 	ldr	w0, [sp, #20]
   82700:	51000400 	sub	w0, w0, #0x1
   82704:	b90017e0 	str	w0, [sp, #20]
   82708:	b94017e0 	ldr	w0, [sp, #20]
   8270c:	7100001f 	cmp	w0, #0x0
   82710:	54fffe0a 	b.ge	826d0 <octochar_to_int64+0x18>  // b.tcont
   82714:	f9400fe0 	ldr	x0, [sp, #24]
   82718:	910083ff 	add	sp, sp, #0x20
   8271c:	d65f03c0 	ret

0000000000082720 <int64_to_octochar>:
   82720:	d10083ff 	sub	sp, sp, #0x20
   82724:	f90007e0 	str	x0, [sp, #8]
   82728:	f90003e1 	str	x1, [sp]
   8272c:	b9001fff 	str	wzr, [sp, #28]
   82730:	1400000d 	b	82764 <int64_to_octochar+0x44>
   82734:	b9801fe0 	ldrsw	x0, [sp, #28]
   82738:	f94003e1 	ldr	x1, [sp]
   8273c:	8b000020 	add	x0, x1, x0
   82740:	f94007e1 	ldr	x1, [sp, #8]
   82744:	12001c21 	and	w1, w1, #0xff
   82748:	39000001 	strb	w1, [x0]
   8274c:	f94007e0 	ldr	x0, [sp, #8]
   82750:	d348fc00 	lsr	x0, x0, #8
   82754:	f90007e0 	str	x0, [sp, #8]
   82758:	b9401fe0 	ldr	w0, [sp, #28]
   8275c:	11000400 	add	w0, w0, #0x1
   82760:	b9001fe0 	str	w0, [sp, #28]
   82764:	b9401fe0 	ldr	w0, [sp, #28]
   82768:	71001c1f 	cmp	w0, #0x7
   8276c:	54fffe4d 	b.le	82734 <int64_to_octochar+0x14>
   82770:	d503201f 	nop
   82774:	d503201f 	nop
   82778:	910083ff 	add	sp, sp, #0x20
   8277c:	d65f03c0 	ret

0000000000082780 <k2Receiver>:
   82780:	a9b07bfd 	stp	x29, x30, [sp, #-256]!
   82784:	910003fd 	mov	x29, sp
   82788:	a90153f3 	stp	x19, x20, [sp, #16]
   8278c:	a9025bf5 	stp	x21, x22, [sp, #32]
   82790:	a90363f7 	stp	x23, x24, [sp, #48]
   82794:	a9046bf9 	stp	x25, x26, [sp, #64]
   82798:	f9002bfb 	str	x27, [sp, #80]
   8279c:	910003e0 	mov	x0, sp
   827a0:	aa0003f3 	mov	x19, x0
   827a4:	9400181d 	bl	88818 <MyTid>
   827a8:	b900b7a0 	str	w0, [x29, #180]
   827ac:	90000040 	adrp	x0, 8a000 <vector_table_el1>
   827b0:	9129a000 	add	x0, x0, #0xa68
   827b4:	94000b40 	bl	854b4 <RegisterAs>
   827b8:	3902c3bf 	strb	wzr, [x29, #176]
   827bc:	9102a3a1 	add	x1, x29, #0xa8
   827c0:	9102d3a0 	add	x0, x29, #0xb4
   827c4:	52800102 	mov	w2, #0x8                   	// #8
   827c8:	940017fb 	bl	887b4 <Receive>
   827cc:	b900f7a0 	str	w0, [x29, #244]
   827d0:	9102a3a0 	add	x0, x29, #0xa8
   827d4:	97fff95b 	bl	80d40 <atoi>
   827d8:	f90077a0 	str	x0, [x29, #232]
   827dc:	b940b7a3 	ldr	w3, [x29, #180]
   827e0:	52800082 	mov	w2, #0x4                   	// #4
   827e4:	90000040 	adrp	x0, 8a000 <vector_table_el1>
   827e8:	9129e001 	add	x1, x0, #0xa78
   827ec:	2a0303e0 	mov	w0, w3
   827f0:	940017fa 	bl	887d8 <Reply>
   827f4:	9102a3a1 	add	x1, x29, #0xa8
   827f8:	9102d3a0 	add	x0, x29, #0xb4
   827fc:	52800102 	mov	w2, #0x8                   	// #8
   82800:	940017ed 	bl	887b4 <Receive>
   82804:	b900f7a0 	str	w0, [x29, #244]
   82808:	9102a3a0 	add	x0, x29, #0xa8
   8280c:	97fff94d 	bl	80d40 <atoi>
   82810:	f90073a0 	str	x0, [x29, #224]
   82814:	b940b7a3 	ldr	w3, [x29, #180]
   82818:	52800082 	mov	w2, #0x4                   	// #4
   8281c:	90000040 	adrp	x0, 8a000 <vector_table_el1>
   82820:	9129e001 	add	x1, x0, #0xa78
   82824:	2a0303e0 	mov	w0, w3
   82828:	940017ec 	bl	887d8 <Reply>
   8282c:	940017fb 	bl	88818 <MyTid>
   82830:	b900b7a0 	str	w0, [x29, #180]
   82834:	f94073a0 	ldr	x0, [x29, #224]
   82838:	d1000401 	sub	x1, x0, #0x1
   8283c:	f9006fa1 	str	x1, [x29, #216]
   82840:	aa0003e1 	mov	x1, x0
   82844:	f9004ba1 	str	x1, [x29, #144]
   82848:	f9004fbf 	str	xzr, [x29, #152]
   8284c:	a9490fa2 	ldp	x2, x3, [x29, #144]
   82850:	aa0203e1 	mov	x1, x2
   82854:	d37dfc21 	lsr	x1, x1, #61
   82858:	aa0303e4 	mov	x4, x3
   8285c:	d37df09b 	lsl	x27, x4, #3
   82860:	aa1b003b 	orr	x27, x1, x27
   82864:	aa0203e1 	mov	x1, x2
   82868:	d37df03a 	lsl	x26, x1, #3
   8286c:	aa0003e1 	mov	x1, x0
   82870:	f90043a1 	str	x1, [x29, #128]
   82874:	f90047bf 	str	xzr, [x29, #136]
   82878:	a9480fa2 	ldp	x2, x3, [x29, #128]
   8287c:	aa0203e1 	mov	x1, x2
   82880:	d37dfc21 	lsr	x1, x1, #61
   82884:	aa0303e4 	mov	x4, x3
   82888:	d37df099 	lsl	x25, x4, #3
   8288c:	aa190039 	orr	x25, x1, x25
   82890:	aa0203e1 	mov	x1, x2
   82894:	d37df038 	lsl	x24, x1, #3
   82898:	91003c00 	add	x0, x0, #0xf
   8289c:	d344fc00 	lsr	x0, x0, #4
   828a0:	d37cec00 	lsl	x0, x0, #4
   828a4:	cb2063ff 	sub	sp, sp, x0
   828a8:	910003e0 	mov	x0, sp
   828ac:	91000000 	add	x0, x0, #0x0
   828b0:	f9006ba0 	str	x0, [x29, #208]
   828b4:	f94073a0 	ldr	x0, [x29, #224]
   828b8:	d1000401 	sub	x1, x0, #0x1
   828bc:	f90067a1 	str	x1, [x29, #200]
   828c0:	aa0003e1 	mov	x1, x0
   828c4:	f9003ba1 	str	x1, [x29, #112]
   828c8:	f9003fbf 	str	xzr, [x29, #120]
   828cc:	a9470fa2 	ldp	x2, x3, [x29, #112]
   828d0:	aa0203e1 	mov	x1, x2
   828d4:	d37dfc21 	lsr	x1, x1, #61
   828d8:	aa0303e4 	mov	x4, x3
   828dc:	d37df097 	lsl	x23, x4, #3
   828e0:	aa170037 	orr	x23, x1, x23
   828e4:	aa0203e1 	mov	x1, x2
   828e8:	d37df036 	lsl	x22, x1, #3
   828ec:	aa0003e1 	mov	x1, x0
   828f0:	f90033a1 	str	x1, [x29, #96]
   828f4:	f90037bf 	str	xzr, [x29, #104]
   828f8:	a9460fa2 	ldp	x2, x3, [x29, #96]
   828fc:	aa0203e1 	mov	x1, x2
   82900:	d37dfc21 	lsr	x1, x1, #61
   82904:	aa0303e4 	mov	x4, x3
   82908:	d37df095 	lsl	x21, x4, #3
   8290c:	aa150035 	orr	x21, x1, x21
   82910:	aa0203e1 	mov	x1, x2
   82914:	d37df034 	lsl	x20, x1, #3
   82918:	91003c00 	add	x0, x0, #0xf
   8291c:	d344fc00 	lsr	x0, x0, #4
   82920:	d37cec00 	lsl	x0, x0, #4
   82924:	cb2063ff 	sub	sp, sp, x0
   82928:	910003e0 	mov	x0, sp
   8292c:	91000000 	add	x0, x0, #0x0
   82930:	f90063a0 	str	x0, [x29, #192]
   82934:	b900ffbf 	str	wzr, [x29, #252]
   82938:	14000016 	b	82990 <k2Receiver+0x210>
   8293c:	b940ffa0 	ldr	w0, [x29, #252]
   82940:	11000400 	add	w0, w0, #0x1
   82944:	529d89e1 	mov	w1, #0xec4f                	// #60495
   82948:	72a9d881 	movk	w1, #0x4ec4, lsl #16
   8294c:	9b217c01 	smull	x1, w0, w1
   82950:	d360fc21 	lsr	x1, x1, #32
   82954:	13037c22 	asr	w2, w1, #3
   82958:	131f7c01 	asr	w1, w0, #31
   8295c:	4b010041 	sub	w1, w2, w1
   82960:	52800342 	mov	w2, #0x1a                  	// #26
   82964:	1b027c21 	mul	w1, w1, w2
   82968:	4b010001 	sub	w1, w0, w1
   8296c:	12001c20 	and	w0, w1, #0xff
   82970:	11010400 	add	w0, w0, #0x41
   82974:	12001c02 	and	w2, w0, #0xff
   82978:	f94063a1 	ldr	x1, [x29, #192]
   8297c:	b980ffa0 	ldrsw	x0, [x29, #252]
   82980:	38206822 	strb	w2, [x1, x0]
   82984:	b940ffa0 	ldr	w0, [x29, #252]
   82988:	11000400 	add	w0, w0, #0x1
   8298c:	b900ffa0 	str	w0, [x29, #252]
   82990:	b980ffa0 	ldrsw	x0, [x29, #252]
   82994:	f94073a1 	ldr	x1, [x29, #224]
   82998:	eb00003f 	cmp	x1, x0
   8299c:	54fffd0c 	b.gt	8293c <k2Receiver+0x1bc>
   829a0:	f94073a0 	ldr	x0, [x29, #224]
   829a4:	d1000400 	sub	x0, x0, #0x1
   829a8:	f94063a1 	ldr	x1, [x29, #192]
   829ac:	3820683f 	strb	wzr, [x1, x0]
   829b0:	b900fbbf 	str	wzr, [x29, #248]
   829b4:	14000011 	b	829f8 <k2Receiver+0x278>
   829b8:	f94073a0 	ldr	x0, [x29, #224]
   829bc:	2a0003e1 	mov	w1, w0
   829c0:	910293a0 	add	x0, x29, #0xa4
   829c4:	2a0103e2 	mov	w2, w1
   829c8:	f9406ba1 	ldr	x1, [x29, #208]
   829cc:	9400177a 	bl	887b4 <Receive>
   829d0:	b900bfa0 	str	w0, [x29, #188]
   829d4:	b940a7a0 	ldr	w0, [x29, #164]
   829d8:	f94073a1 	ldr	x1, [x29, #224]
   829dc:	2a0103e2 	mov	w2, w1
   829e0:	f94063a1 	ldr	x1, [x29, #192]
   829e4:	9400177d 	bl	887d8 <Reply>
   829e8:	b900bba0 	str	w0, [x29, #184]
   829ec:	b940fba0 	ldr	w0, [x29, #248]
   829f0:	11000400 	add	w0, w0, #0x1
   829f4:	b900fba0 	str	w0, [x29, #248]
   829f8:	b980fba0 	ldrsw	x0, [x29, #248]
   829fc:	f94077a1 	ldr	x1, [x29, #232]
   82a00:	eb00003f 	cmp	x1, x0
   82a04:	54fffdac 	b.gt	829b8 <k2Receiver+0x238>
   82a08:	940017a5 	bl	8889c <Exit>
   82a0c:	9100027f 	mov	sp, x19
   82a10:	d503201f 	nop
   82a14:	910003bf 	mov	sp, x29
   82a18:	a94153f3 	ldp	x19, x20, [sp, #16]
   82a1c:	a9425bf5 	ldp	x21, x22, [sp, #32]
   82a20:	a94363f7 	ldp	x23, x24, [sp, #48]
   82a24:	a9446bf9 	ldp	x25, x26, [sp, #64]
   82a28:	f9402bfb 	ldr	x27, [sp, #80]
   82a2c:	a8d07bfd 	ldp	x29, x30, [sp], #256
   82a30:	d65f03c0 	ret

0000000000082a34 <CreateArgsTest>:
   82a34:	a9be7bfd 	stp	x29, x30, [sp, #-32]!
   82a38:	910003fd 	mov	x29, sp
   82a3c:	b9001fe0 	str	w0, [sp, #28]
   82a40:	b9001be1 	str	w1, [sp, #24]
   82a44:	90000040 	adrp	x0, 8a000 <vector_table_el1>
   82a48:	912a0000 	add	x0, x0, #0xa80
   82a4c:	94000a9a 	bl	854b4 <RegisterAs>
   82a50:	b9401be3 	ldr	w3, [sp, #24]
   82a54:	b9401fe2 	ldr	w2, [sp, #28]
   82a58:	90000040 	adrp	x0, 8a000 <vector_table_el1>
   82a5c:	912a4001 	add	x1, x0, #0xa90
   82a60:	d2800020 	mov	x0, #0x1                   	// #1
   82a64:	94000e75 	bl	86438 <uart_printf>
   82a68:	9400178d 	bl	8889c <Exit>
   82a6c:	d503201f 	nop
   82a70:	a8c27bfd 	ldp	x29, x30, [sp], #32
   82a74:	d65f03c0 	ret

0000000000082a78 <adder>:
   82a78:	d10103ff 	sub	sp, sp, #0x40
   82a7c:	f9001fe0 	str	x0, [sp, #56]
   82a80:	f9001be1 	str	x1, [sp, #48]
   82a84:	f90017e2 	str	x2, [sp, #40]
   82a88:	f90013e3 	str	x3, [sp, #32]
   82a8c:	f9000fe4 	str	x4, [sp, #24]
   82a90:	f9000be5 	str	x5, [sp, #16]
   82a94:	f90007e6 	str	x6, [sp, #8]
   82a98:	f90003e7 	str	x7, [sp]
   82a9c:	f9401fe1 	ldr	x1, [sp, #56]
   82aa0:	f9401be0 	ldr	x0, [sp, #48]
   82aa4:	8b000021 	add	x1, x1, x0
   82aa8:	f94017e0 	ldr	x0, [sp, #40]
   82aac:	8b000021 	add	x1, x1, x0
   82ab0:	f94013e0 	ldr	x0, [sp, #32]
   82ab4:	8b000021 	add	x1, x1, x0
   82ab8:	f9400fe0 	ldr	x0, [sp, #24]
   82abc:	8b000021 	add	x1, x1, x0
   82ac0:	f9400be0 	ldr	x0, [sp, #16]
   82ac4:	8b000021 	add	x1, x1, x0
   82ac8:	f94007e0 	ldr	x0, [sp, #8]
   82acc:	8b000021 	add	x1, x1, x0
   82ad0:	f94003e0 	ldr	x0, [sp]
   82ad4:	8b000021 	add	x1, x1, x0
   82ad8:	f94023e0 	ldr	x0, [sp, #64]
   82adc:	8b000021 	add	x1, x1, x0
   82ae0:	f94027e0 	ldr	x0, [sp, #72]
   82ae4:	8b000020 	add	x0, x1, x0
   82ae8:	910103ff 	add	sp, sp, #0x40
   82aec:	d65f03c0 	ret

0000000000082af0 <adderTask>:
   82af0:	d101c3ff 	sub	sp, sp, #0x70
   82af4:	a9027bfd 	stp	x29, x30, [sp, #32]
   82af8:	910083fd 	add	x29, sp, #0x20
   82afc:	f90037e0 	str	x0, [sp, #104]
   82b00:	f90033e1 	str	x1, [sp, #96]
   82b04:	f9002fe2 	str	x2, [sp, #88]
   82b08:	f9002be3 	str	x3, [sp, #80]
   82b0c:	f90027e4 	str	x4, [sp, #72]
   82b10:	f90023e5 	str	x5, [sp, #64]
   82b14:	f9001fe6 	str	x6, [sp, #56]
   82b18:	f9001be7 	str	x7, [sp, #48]
   82b1c:	90000040 	adrp	x0, 8a000 <vector_table_el1>
   82b20:	912ac000 	add	x0, x0, #0xab0
   82b24:	94000a64 	bl	854b4 <RegisterAs>
   82b28:	f9403fe0 	ldr	x0, [sp, #120]
   82b2c:	f9000fe0 	str	x0, [sp, #24]
   82b30:	f9403be0 	ldr	x0, [sp, #112]
   82b34:	f9000be0 	str	x0, [sp, #16]
   82b38:	f9401be0 	ldr	x0, [sp, #48]
   82b3c:	f90007e0 	str	x0, [sp, #8]
   82b40:	f9401fe0 	ldr	x0, [sp, #56]
   82b44:	f90003e0 	str	x0, [sp]
   82b48:	f94023e7 	ldr	x7, [sp, #64]
   82b4c:	f94027e6 	ldr	x6, [sp, #72]
   82b50:	f9402be5 	ldr	x5, [sp, #80]
   82b54:	f9402fe4 	ldr	x4, [sp, #88]
   82b58:	f94033e3 	ldr	x3, [sp, #96]
   82b5c:	f94037e2 	ldr	x2, [sp, #104]
   82b60:	90000040 	adrp	x0, 8a000 <vector_table_el1>
   82b64:	912b0001 	add	x1, x0, #0xac0
   82b68:	d2800020 	mov	x0, #0x1                   	// #1
   82b6c:	94000e33 	bl	86438 <uart_printf>
   82b70:	f9403fe0 	ldr	x0, [sp, #120]
   82b74:	f90007e0 	str	x0, [sp, #8]
   82b78:	f9403be0 	ldr	x0, [sp, #112]
   82b7c:	f90003e0 	str	x0, [sp]
   82b80:	f9401be7 	ldr	x7, [sp, #48]
   82b84:	f9401fe6 	ldr	x6, [sp, #56]
   82b88:	f94023e5 	ldr	x5, [sp, #64]
   82b8c:	f94027e4 	ldr	x4, [sp, #72]
   82b90:	f9402be3 	ldr	x3, [sp, #80]
   82b94:	f9402fe2 	ldr	x2, [sp, #88]
   82b98:	f94033e1 	ldr	x1, [sp, #96]
   82b9c:	f94037e0 	ldr	x0, [sp, #104]
   82ba0:	97ffffb6 	bl	82a78 <adder>
   82ba4:	aa0003e2 	mov	x2, x0
   82ba8:	90000040 	adrp	x0, 8a000 <vector_table_el1>
   82bac:	912be001 	add	x1, x0, #0xaf8
   82bb0:	d2800020 	mov	x0, #0x1                   	// #1
   82bb4:	94000e21 	bl	86438 <uart_printf>
   82bb8:	94001739 	bl	8889c <Exit>
   82bbc:	d503201f 	nop
   82bc0:	a9427bfd 	ldp	x29, x30, [sp, #32]
   82bc4:	9101c3ff 	add	sp, sp, #0x70
   82bc8:	d65f03c0 	ret

0000000000082bcc <turnaroundTestParseCommand>:
   82bcc:	d11ac3ff 	sub	sp, sp, #0x6b0
   82bd0:	a9007bfd 	stp	x29, x30, [sp]
   82bd4:	910003fd 	mov	x29, sp
   82bd8:	a90153f3 	stp	x19, x20, [sp, #16]
   82bdc:	a9025bf5 	stp	x21, x22, [sp, #32]
   82be0:	a90363f7 	stp	x23, x24, [sp, #48]
   82be4:	a9046bf9 	stp	x25, x26, [sp, #64]
   82be8:	f9002bfb 	str	x27, [sp, #80]
   82bec:	f900f7a0 	str	x0, [x29, #488]
   82bf0:	52800020 	mov	w0, #0x1                   	// #1
   82bf4:	b906a7a0 	str	w0, [x29, #1700]
   82bf8:	b906a3bf 	str	wzr, [x29, #1696]
   82bfc:	f940f7a0 	ldr	x0, [x29, #488]
   82c00:	f9012fa0 	str	x0, [x29, #600]
   82c04:	f940f7a0 	ldr	x0, [x29, #488]
   82c08:	f90357a0 	str	x0, [x29, #1704]
   82c0c:	14000016 	b	82c64 <turnaroundTestParseCommand+0x98>
   82c10:	f94357a0 	ldr	x0, [x29, #1704]
   82c14:	39400000 	ldrb	w0, [x0]
   82c18:	7100801f 	cmp	w0, #0x20
   82c1c:	54000181 	b.ne	82c4c <turnaroundTestParseCommand+0x80>  // b.any
   82c20:	f94357a0 	ldr	x0, [x29, #1704]
   82c24:	3900001f 	strb	wzr, [x0]
   82c28:	b946a7a1 	ldr	w1, [x29, #1700]
   82c2c:	11000420 	add	w0, w1, #0x1
   82c30:	b906a7a0 	str	w0, [x29, #1700]
   82c34:	f94357a0 	ldr	x0, [x29, #1704]
   82c38:	91000402 	add	x2, x0, #0x1
   82c3c:	93407c20 	sxtw	x0, w1
   82c40:	d37df001 	lsl	x1, x0, #3
   82c44:	910963a0 	add	x0, x29, #0x258
   82c48:	f8216802 	str	x2, [x0, x1]
   82c4c:	f94357a0 	ldr	x0, [x29, #1704]
   82c50:	91000400 	add	x0, x0, #0x1
   82c54:	f90357a0 	str	x0, [x29, #1704]
   82c58:	b946a3a0 	ldr	w0, [x29, #1696]
   82c5c:	11000400 	add	w0, w0, #0x1
   82c60:	b906a3a0 	str	w0, [x29, #1696]
   82c64:	f94357a0 	ldr	x0, [x29, #1704]
   82c68:	39400000 	ldrb	w0, [x0]
   82c6c:	7100001f 	cmp	w0, #0x0
   82c70:	54fffd01 	b.ne	82c10 <turnaroundTestParseCommand+0x44>  // b.any
   82c74:	f9412fa1 	ldr	x1, [x29, #600]
   82c78:	910953a3 	add	x3, x29, #0x254
   82c7c:	90000040 	adrp	x0, 8a000 <vector_table_el1>
   82c80:	912c4002 	add	x2, x0, #0xb10
   82c84:	aa0303e0 	mov	x0, x3
   82c88:	97fff873 	bl	80e54 <strcmp>
   82c8c:	b94257a0 	ldr	w0, [x29, #596]
   82c90:	7100001f 	cmp	w0, #0x0
   82c94:	54000060 	b.eq	82ca0 <turnaroundTestParseCommand+0xd4>  // b.none
   82c98:	94001708 	bl	888b8 <Yield>
   82c9c:	1400032a 	b	83944 <turnaroundTestParseCommand+0xd78>
   82ca0:	94001706 	bl	888b8 <Yield>
   82ca4:	f9412fa1 	ldr	x1, [x29, #600]
   82ca8:	910953a3 	add	x3, x29, #0x254
   82cac:	90000040 	adrp	x0, 8a000 <vector_table_el1>
   82cb0:	912c6002 	add	x2, x0, #0xb18
   82cb4:	aa0303e0 	mov	x0, x3
   82cb8:	97fff867 	bl	80e54 <strcmp>
   82cbc:	b94257a0 	ldr	w0, [x29, #596]
   82cc0:	7100001f 	cmp	w0, #0x0
   82cc4:	54002620 	b.eq	83188 <turnaroundTestParseCommand+0x5bc>  // b.none
   82cc8:	910003e0 	mov	x0, sp
   82ccc:	aa0003f3 	mov	x19, x0
   82cd0:	b946a7a0 	ldr	w0, [x29, #1700]
   82cd4:	7100081f 	cmp	w0, #0x2
   82cd8:	540000cc 	b.gt	82cf0 <turnaroundTestParseCommand+0x124>
   82cdc:	90000040 	adrp	x0, 8a000 <vector_table_el1>
   82ce0:	912ca001 	add	x1, x0, #0xb28
   82ce4:	d2800020 	mov	x0, #0x1                   	// #1
   82ce8:	94000dd4 	bl	86438 <uart_printf>
   82cec:	14000125 	b	83180 <turnaroundTestParseCommand+0x5b4>
   82cf0:	f94133a0 	ldr	x0, [x29, #608]
   82cf4:	97fff813 	bl	80d40 <atoi>
   82cf8:	f902efa0 	str	x0, [x29, #1496]
   82cfc:	f94137a0 	ldr	x0, [x29, #616]
   82d00:	97fff810 	bl	80d40 <atoi>
   82d04:	f902eba0 	str	x0, [x29, #1488]
   82d08:	90000000 	adrp	x0, 82000 <gameserver+0x76c>
   82d0c:	911e0001 	add	x1, x0, #0x780
   82d10:	52800040 	mov	w0, #0x2                   	// #2
   82d14:	940016c9 	bl	88838 <Create>
   82d18:	b905cfa0 	str	w0, [x29, #1484]
   82d1c:	f94133a0 	ldr	x0, [x29, #608]
   82d20:	f942eba1 	ldr	x1, [x29, #1488]
   82d24:	2a0103e2 	mov	w2, w1
   82d28:	910943a1 	add	x1, x29, #0x250
   82d2c:	52800024 	mov	w4, #0x1                   	// #1
   82d30:	aa0103e3 	mov	x3, x1
   82d34:	aa0003e1 	mov	x1, x0
   82d38:	b945cfa0 	ldr	w0, [x29, #1484]
   82d3c:	94001693 	bl	88788 <Send>
   82d40:	f94137a0 	ldr	x0, [x29, #616]
   82d44:	f942eba1 	ldr	x1, [x29, #1488]
   82d48:	2a0103e2 	mov	w2, w1
   82d4c:	910943a1 	add	x1, x29, #0x250
   82d50:	52800024 	mov	w4, #0x1                   	// #1
   82d54:	aa0103e3 	mov	x3, x1
   82d58:	aa0003e1 	mov	x1, x0
   82d5c:	b945cfa0 	ldr	w0, [x29, #1484]
   82d60:	9400168a 	bl	88788 <Send>
   82d64:	f942eba0 	ldr	x0, [x29, #1488]
   82d68:	d1000401 	sub	x1, x0, #0x1
   82d6c:	f902e3a1 	str	x1, [x29, #1472]
   82d70:	aa0003e1 	mov	x1, x0
   82d74:	f9009ba1 	str	x1, [x29, #304]
   82d78:	f9009fbf 	str	xzr, [x29, #312]
   82d7c:	a9530fa2 	ldp	x2, x3, [x29, #304]
   82d80:	aa0203e1 	mov	x1, x2
   82d84:	d37dfc21 	lsr	x1, x1, #61
   82d88:	aa0303e4 	mov	x4, x3
   82d8c:	d37df084 	lsl	x4, x4, #3
   82d90:	f900efa4 	str	x4, [x29, #472]
   82d94:	f940efa4 	ldr	x4, [x29, #472]
   82d98:	aa040021 	orr	x1, x1, x4
   82d9c:	f900efa1 	str	x1, [x29, #472]
   82da0:	aa0203e1 	mov	x1, x2
   82da4:	d37df021 	lsl	x1, x1, #3
   82da8:	f900eba1 	str	x1, [x29, #464]
   82dac:	aa0003e1 	mov	x1, x0
   82db0:	f90093a1 	str	x1, [x29, #288]
   82db4:	f90097bf 	str	xzr, [x29, #296]
   82db8:	a9520fa2 	ldp	x2, x3, [x29, #288]
   82dbc:	aa0203e1 	mov	x1, x2
   82dc0:	d37dfc21 	lsr	x1, x1, #61
   82dc4:	aa0303e4 	mov	x4, x3
   82dc8:	d37df084 	lsl	x4, x4, #3
   82dcc:	f900e7a4 	str	x4, [x29, #456]
   82dd0:	f940e7a4 	ldr	x4, [x29, #456]
   82dd4:	aa040021 	orr	x1, x1, x4
   82dd8:	f900e7a1 	str	x1, [x29, #456]
   82ddc:	aa0203e1 	mov	x1, x2
   82de0:	d37df021 	lsl	x1, x1, #3
   82de4:	f900e3a1 	str	x1, [x29, #448]
   82de8:	91003c00 	add	x0, x0, #0xf
   82dec:	d344fc00 	lsr	x0, x0, #4
   82df0:	d37cec00 	lsl	x0, x0, #4
   82df4:	cb2063ff 	sub	sp, sp, x0
   82df8:	910003e0 	mov	x0, sp
   82dfc:	91000000 	add	x0, x0, #0x0
   82e00:	f902dfa0 	str	x0, [x29, #1464]
   82e04:	b9069fbf 	str	wzr, [x29, #1692]
   82e08:	14000015 	b	82e5c <turnaroundTestParseCommand+0x290>
   82e0c:	b9469fa0 	ldr	w0, [x29, #1692]
   82e10:	529d89e1 	mov	w1, #0xec4f                	// #60495
   82e14:	72a9d881 	movk	w1, #0x4ec4, lsl #16
   82e18:	9b217c01 	smull	x1, w0, w1
   82e1c:	d360fc21 	lsr	x1, x1, #32
   82e20:	13037c22 	asr	w2, w1, #3
   82e24:	131f7c01 	asr	w1, w0, #31
   82e28:	4b010041 	sub	w1, w2, w1
   82e2c:	52800342 	mov	w2, #0x1a                  	// #26
   82e30:	1b027c21 	mul	w1, w1, w2
   82e34:	4b010001 	sub	w1, w0, w1
   82e38:	12001c20 	and	w0, w1, #0xff
   82e3c:	11010400 	add	w0, w0, #0x41
   82e40:	12001c02 	and	w2, w0, #0xff
   82e44:	f942dfa1 	ldr	x1, [x29, #1464]
   82e48:	b9869fa0 	ldrsw	x0, [x29, #1692]
   82e4c:	38206822 	strb	w2, [x1, x0]
   82e50:	b9469fa0 	ldr	w0, [x29, #1692]
   82e54:	11000400 	add	w0, w0, #0x1
   82e58:	b9069fa0 	str	w0, [x29, #1692]
   82e5c:	b9869fa0 	ldrsw	x0, [x29, #1692]
   82e60:	f942eba1 	ldr	x1, [x29, #1488]
   82e64:	eb00003f 	cmp	x1, x0
   82e68:	54fffd2c 	b.gt	82e0c <turnaroundTestParseCommand+0x240>
   82e6c:	f942eba0 	ldr	x0, [x29, #1488]
   82e70:	d1000400 	sub	x0, x0, #0x1
   82e74:	f942dfa1 	ldr	x1, [x29, #1464]
   82e78:	3820683f 	strb	wzr, [x1, x0]
   82e7c:	f942eba0 	ldr	x0, [x29, #1488]
   82e80:	d1000401 	sub	x1, x0, #0x1
   82e84:	f902dba1 	str	x1, [x29, #1456]
   82e88:	aa0003e1 	mov	x1, x0
   82e8c:	f9008ba1 	str	x1, [x29, #272]
   82e90:	f9008fbf 	str	xzr, [x29, #280]
   82e94:	a9510fa2 	ldp	x2, x3, [x29, #272]
   82e98:	aa0203e1 	mov	x1, x2
   82e9c:	d37dfc21 	lsr	x1, x1, #61
   82ea0:	aa0303e4 	mov	x4, x3
   82ea4:	d37df09b 	lsl	x27, x4, #3
   82ea8:	aa1b003b 	orr	x27, x1, x27
   82eac:	aa0203e1 	mov	x1, x2
   82eb0:	d37df03a 	lsl	x26, x1, #3
   82eb4:	aa0003e1 	mov	x1, x0
   82eb8:	f90083a1 	str	x1, [x29, #256]
   82ebc:	f90087bf 	str	xzr, [x29, #264]
   82ec0:	a9500fa2 	ldp	x2, x3, [x29, #256]
   82ec4:	aa0203e1 	mov	x1, x2
   82ec8:	d37dfc21 	lsr	x1, x1, #61
   82ecc:	aa0303e4 	mov	x4, x3
   82ed0:	d37df099 	lsl	x25, x4, #3
   82ed4:	aa190039 	orr	x25, x1, x25
   82ed8:	aa0203e1 	mov	x1, x2
   82edc:	d37df038 	lsl	x24, x1, #3
   82ee0:	91003c00 	add	x0, x0, #0xf
   82ee4:	d344fc00 	lsr	x0, x0, #4
   82ee8:	d37cec00 	lsl	x0, x0, #4
   82eec:	cb2063ff 	sub	sp, sp, x0
   82ef0:	910003e0 	mov	x0, sp
   82ef4:	91000000 	add	x0, x0, #0x0
   82ef8:	f902d7a0 	str	x0, [x29, #1448]
   82efc:	94001672 	bl	888c4 <get_timerLO>
   82f00:	b905a7a0 	str	w0, [x29, #1444]
   82f04:	b9069bbf 	str	wzr, [x29, #1688]
   82f08:	1400000d 	b	82f3c <turnaroundTestParseCommand+0x370>
   82f0c:	f942eba0 	ldr	x0, [x29, #1488]
   82f10:	2a0003e1 	mov	w1, w0
   82f14:	f942eba0 	ldr	x0, [x29, #1488]
   82f18:	2a0003e4 	mov	w4, w0
   82f1c:	f942d7a3 	ldr	x3, [x29, #1448]
   82f20:	2a0103e2 	mov	w2, w1
   82f24:	f942dfa1 	ldr	x1, [x29, #1464]
   82f28:	b945cfa0 	ldr	w0, [x29, #1484]
   82f2c:	94001617 	bl	88788 <Send>
   82f30:	b9469ba0 	ldr	w0, [x29, #1688]
   82f34:	11000400 	add	w0, w0, #0x1
   82f38:	b9069ba0 	str	w0, [x29, #1688]
   82f3c:	b9869ba0 	ldrsw	x0, [x29, #1688]
   82f40:	f942efa1 	ldr	x1, [x29, #1496]
   82f44:	eb00003f 	cmp	x1, x0
   82f48:	54fffe2c 	b.gt	82f0c <turnaroundTestParseCommand+0x340>
   82f4c:	9400165e 	bl	888c4 <get_timerLO>
   82f50:	b905a3a0 	str	w0, [x29, #1440]
   82f54:	b945a3a1 	ldr	w1, [x29, #1440]
   82f58:	b945a7a0 	ldr	w0, [x29, #1444]
   82f5c:	4b000020 	sub	w0, w1, w0
   82f60:	2a0003e1 	mov	w1, w0
   82f64:	f942efa0 	ldr	x0, [x29, #1496]
   82f68:	9ac00c20 	sdiv	x0, x1, x0
   82f6c:	b9059fa0 	str	w0, [x29, #1436]
   82f70:	90000000 	adrp	x0, 82000 <gameserver+0x76c>
   82f74:	911e0001 	add	x1, x0, #0x780
   82f78:	52800040 	mov	w0, #0x2                   	// #2
   82f7c:	9400162f 	bl	88838 <Create>
   82f80:	b905cfa0 	str	w0, [x29, #1484]
   82f84:	f94133a0 	ldr	x0, [x29, #608]
   82f88:	f942eba1 	ldr	x1, [x29, #1488]
   82f8c:	2a0103e2 	mov	w2, w1
   82f90:	910943a1 	add	x1, x29, #0x250
   82f94:	52800024 	mov	w4, #0x1                   	// #1
   82f98:	aa0103e3 	mov	x3, x1
   82f9c:	aa0003e1 	mov	x1, x0
   82fa0:	b945cfa0 	ldr	w0, [x29, #1484]
   82fa4:	940015f9 	bl	88788 <Send>
   82fa8:	f94137a0 	ldr	x0, [x29, #616]
   82fac:	f942eba1 	ldr	x1, [x29, #1488]
   82fb0:	2a0103e2 	mov	w2, w1
   82fb4:	910943a1 	add	x1, x29, #0x250
   82fb8:	52800024 	mov	w4, #0x1                   	// #1
   82fbc:	aa0103e3 	mov	x3, x1
   82fc0:	aa0003e1 	mov	x1, x0
   82fc4:	b945cfa0 	ldr	w0, [x29, #1484]
   82fc8:	940015f0 	bl	88788 <Send>
   82fcc:	f9034bbf 	str	xzr, [x29, #1680]
   82fd0:	f942efa0 	ldr	x0, [x29, #1496]
   82fd4:	d1000401 	sub	x1, x0, #0x1
   82fd8:	f902cba1 	str	x1, [x29, #1424]
   82fdc:	aa0003e1 	mov	x1, x0
   82fe0:	f9007ba1 	str	x1, [x29, #240]
   82fe4:	f9007fbf 	str	xzr, [x29, #248]
   82fe8:	a94f0fa2 	ldp	x2, x3, [x29, #240]
   82fec:	aa0203e1 	mov	x1, x2
   82ff0:	d37bfc21 	lsr	x1, x1, #59
   82ff4:	aa0303e4 	mov	x4, x3
   82ff8:	d37be897 	lsl	x23, x4, #5
   82ffc:	aa170037 	orr	x23, x1, x23
   83000:	aa0203e1 	mov	x1, x2
   83004:	d37be836 	lsl	x22, x1, #5
   83008:	aa0003e1 	mov	x1, x0
   8300c:	f90073a1 	str	x1, [x29, #224]
   83010:	f90077bf 	str	xzr, [x29, #232]
   83014:	a94e0fa2 	ldp	x2, x3, [x29, #224]
   83018:	aa0203e1 	mov	x1, x2
   8301c:	d37bfc21 	lsr	x1, x1, #59
   83020:	aa0303e4 	mov	x4, x3
   83024:	d37be895 	lsl	x21, x4, #5
   83028:	aa150035 	orr	x21, x1, x21
   8302c:	aa0203e1 	mov	x1, x2
   83030:	d37be834 	lsl	x20, x1, #5
   83034:	d37ef400 	lsl	x0, x0, #2
   83038:	91003c00 	add	x0, x0, #0xf
   8303c:	d344fc00 	lsr	x0, x0, #4
   83040:	d37cec00 	lsl	x0, x0, #4
   83044:	cb2063ff 	sub	sp, sp, x0
   83048:	910003e0 	mov	x0, sp
   8304c:	91000c00 	add	x0, x0, #0x3
   83050:	d342fc00 	lsr	x0, x0, #2
   83054:	d37ef400 	lsl	x0, x0, #2
   83058:	f902c7a0 	str	x0, [x29, #1416]
   8305c:	b9068fbf 	str	wzr, [x29, #1676]
   83060:	14000019 	b	830c4 <turnaroundTestParseCommand+0x4f8>
   83064:	94001618 	bl	888c4 <get_timerLO>
   83068:	b90587a0 	str	w0, [x29, #1412]
   8306c:	f942eba0 	ldr	x0, [x29, #1488]
   83070:	2a0003e1 	mov	w1, w0
   83074:	f942eba0 	ldr	x0, [x29, #1488]
   83078:	2a0003e4 	mov	w4, w0
   8307c:	f942d7a3 	ldr	x3, [x29, #1448]
   83080:	2a0103e2 	mov	w2, w1
   83084:	f942dfa1 	ldr	x1, [x29, #1464]
   83088:	b945cfa0 	ldr	w0, [x29, #1484]
   8308c:	940015bf 	bl	88788 <Send>
   83090:	9400160d 	bl	888c4 <get_timerLO>
   83094:	b90583a0 	str	w0, [x29, #1408]
   83098:	b94583a1 	ldr	w1, [x29, #1408]
   8309c:	b94587a0 	ldr	w0, [x29, #1412]
   830a0:	4b000020 	sub	w0, w1, w0
   830a4:	b9057fa0 	str	w0, [x29, #1404]
   830a8:	f942c7a0 	ldr	x0, [x29, #1416]
   830ac:	b9868fa1 	ldrsw	x1, [x29, #1676]
   830b0:	b9457fa2 	ldr	w2, [x29, #1404]
   830b4:	b8217802 	str	w2, [x0, x1, lsl #2]
   830b8:	b9468fa0 	ldr	w0, [x29, #1676]
   830bc:	11000400 	add	w0, w0, #0x1
   830c0:	b9068fa0 	str	w0, [x29, #1676]
   830c4:	b9868fa0 	ldrsw	x0, [x29, #1676]
   830c8:	f942efa1 	ldr	x1, [x29, #1496]
   830cc:	eb00003f 	cmp	x1, x0
   830d0:	54fffcac 	b.gt	83064 <turnaroundTestParseCommand+0x498>
   830d4:	b9068bbf 	str	wzr, [x29, #1672]
   830d8:	14000013 	b	83124 <turnaroundTestParseCommand+0x558>
   830dc:	f942c7a0 	ldr	x0, [x29, #1416]
   830e0:	b9868ba1 	ldrsw	x1, [x29, #1672]
   830e4:	b8617801 	ldr	w1, [x0, x1, lsl #2]
   830e8:	b9459fa0 	ldr	w0, [x29, #1436]
   830ec:	4b000021 	sub	w1, w1, w0
   830f0:	f942c7a0 	ldr	x0, [x29, #1416]
   830f4:	b9868ba2 	ldrsw	x2, [x29, #1672]
   830f8:	b8627802 	ldr	w2, [x0, x2, lsl #2]
   830fc:	b9459fa0 	ldr	w0, [x29, #1436]
   83100:	4b000040 	sub	w0, w2, w0
   83104:	1b007c20 	mul	w0, w1, w0
   83108:	2a0003e0 	mov	w0, w0
   8310c:	f9434ba1 	ldr	x1, [x29, #1680]
   83110:	8b000020 	add	x0, x1, x0
   83114:	f9034ba0 	str	x0, [x29, #1680]
   83118:	b9468ba0 	ldr	w0, [x29, #1672]
   8311c:	11000400 	add	w0, w0, #0x1
   83120:	b9068ba0 	str	w0, [x29, #1672]
   83124:	b9868ba0 	ldrsw	x0, [x29, #1672]
   83128:	f942efa1 	ldr	x1, [x29, #1496]
   8312c:	eb00003f 	cmp	x1, x0
   83130:	54fffd6c 	b.gt	830dc <turnaroundTestParseCommand+0x510>
   83134:	f942efa0 	ldr	x0, [x29, #1496]
   83138:	f9434ba1 	ldr	x1, [x29, #1680]
   8313c:	9ac00820 	udiv	x0, x1, x0
   83140:	f9034ba0 	str	x0, [x29, #1680]
   83144:	940015dd 	bl	888b8 <Yield>
   83148:	b9459fa3 	ldr	w3, [x29, #1436]
   8314c:	f942eba2 	ldr	x2, [x29, #1488]
   83150:	f0000020 	adrp	x0, 8a000 <vector_table_el1>
   83154:	912d0001 	add	x1, x0, #0xb40
   83158:	d2800020 	mov	x0, #0x1                   	// #1
   8315c:	94000cb7 	bl	86438 <uart_printf>
   83160:	940015d6 	bl	888b8 <Yield>
   83164:	f9434ba2 	ldr	x2, [x29, #1680]
   83168:	f0000020 	adrp	x0, 8a000 <vector_table_el1>
   8316c:	912dc001 	add	x1, x0, #0xb70
   83170:	d2800020 	mov	x0, #0x1                   	// #1
   83174:	94000cb1 	bl	86438 <uart_printf>
   83178:	940015d0 	bl	888b8 <Yield>
   8317c:	d503201f 	nop
   83180:	9100027f 	mov	sp, x19
   83184:	140001f0 	b	83944 <turnaroundTestParseCommand+0xd78>
   83188:	940015cc 	bl	888b8 <Yield>
   8318c:	f9412fa1 	ldr	x1, [x29, #600]
   83190:	910953a3 	add	x3, x29, #0x254
   83194:	f0000020 	adrp	x0, 8a000 <vector_table_el1>
   83198:	912e2002 	add	x2, x0, #0xb88
   8319c:	aa0303e0 	mov	x0, x3
   831a0:	97fff72d 	bl	80e54 <strcmp>
   831a4:	b94257a0 	ldr	w0, [x29, #596]
   831a8:	7100001f 	cmp	w0, #0x0
   831ac:	54002820 	b.eq	836b0 <turnaroundTestParseCommand+0xae4>  // b.none
   831b0:	910003e0 	mov	x0, sp
   831b4:	aa0003f3 	mov	x19, x0
   831b8:	b946a7a0 	ldr	w0, [x29, #1700]
   831bc:	7100081f 	cmp	w0, #0x2
   831c0:	540000cc 	b.gt	831d8 <turnaroundTestParseCommand+0x60c>
   831c4:	f0000020 	adrp	x0, 8a000 <vector_table_el1>
   831c8:	912ca001 	add	x1, x0, #0xb28
   831cc:	d2800020 	mov	x0, #0x1                   	// #1
   831d0:	94000c9a 	bl	86438 <uart_printf>
   831d4:	14000135 	b	836a8 <turnaroundTestParseCommand+0xadc>
   831d8:	f94133a0 	ldr	x0, [x29, #608]
   831dc:	97fff6d9 	bl	80d40 <atoi>
   831e0:	f90323a0 	str	x0, [x29, #1600]
   831e4:	f94137a0 	ldr	x0, [x29, #616]
   831e8:	97fff6d6 	bl	80d40 <atoi>
   831ec:	f9031fa0 	str	x0, [x29, #1592]
   831f0:	940015b2 	bl	888b8 <Yield>
   831f4:	f0ffffe0 	adrp	x0, 82000 <gameserver+0x76c>
   831f8:	911e0001 	add	x1, x0, #0x780
   831fc:	52800020 	mov	w0, #0x1                   	// #1
   83200:	9400158e 	bl	88838 <Create>
   83204:	b90637a0 	str	w0, [x29, #1588]
   83208:	f94133a0 	ldr	x0, [x29, #608]
   8320c:	f9431fa1 	ldr	x1, [x29, #1592]
   83210:	2a0103e2 	mov	w2, w1
   83214:	910923a1 	add	x1, x29, #0x248
   83218:	52800024 	mov	w4, #0x1                   	// #1
   8321c:	aa0103e3 	mov	x3, x1
   83220:	aa0003e1 	mov	x1, x0
   83224:	b94637a0 	ldr	w0, [x29, #1588]
   83228:	94001558 	bl	88788 <Send>
   8322c:	f94137a0 	ldr	x0, [x29, #616]
   83230:	f9431fa1 	ldr	x1, [x29, #1592]
   83234:	2a0103e2 	mov	w2, w1
   83238:	910923a1 	add	x1, x29, #0x248
   8323c:	52800024 	mov	w4, #0x1                   	// #1
   83240:	aa0103e3 	mov	x3, x1
   83244:	aa0003e1 	mov	x1, x0
   83248:	b94637a0 	ldr	w0, [x29, #1588]
   8324c:	9400154f 	bl	88788 <Send>
   83250:	f9431fa0 	ldr	x0, [x29, #1592]
   83254:	d1000401 	sub	x1, x0, #0x1
   83258:	f90317a1 	str	x1, [x29, #1576]
   8325c:	aa0003e1 	mov	x1, x0
   83260:	f9006ba1 	str	x1, [x29, #208]
   83264:	f9006fbf 	str	xzr, [x29, #216]
   83268:	a94d0fa2 	ldp	x2, x3, [x29, #208]
   8326c:	aa0203e1 	mov	x1, x2
   83270:	d37dfc21 	lsr	x1, x1, #61
   83274:	aa0303e4 	mov	x4, x3
   83278:	d37df084 	lsl	x4, x4, #3
   8327c:	f900dfa4 	str	x4, [x29, #440]
   83280:	f940dfa4 	ldr	x4, [x29, #440]
   83284:	aa040021 	orr	x1, x1, x4
   83288:	f900dfa1 	str	x1, [x29, #440]
   8328c:	aa0203e1 	mov	x1, x2
   83290:	d37df021 	lsl	x1, x1, #3
   83294:	f900dba1 	str	x1, [x29, #432]
   83298:	aa0003e1 	mov	x1, x0
   8329c:	f90063a1 	str	x1, [x29, #192]
   832a0:	f90067bf 	str	xzr, [x29, #200]
   832a4:	a94c0fa2 	ldp	x2, x3, [x29, #192]
   832a8:	aa0203e1 	mov	x1, x2
   832ac:	d37dfc21 	lsr	x1, x1, #61
   832b0:	aa0303e4 	mov	x4, x3
   832b4:	d37df084 	lsl	x4, x4, #3
   832b8:	f900d7a4 	str	x4, [x29, #424]
   832bc:	f940d7a4 	ldr	x4, [x29, #424]
   832c0:	aa040021 	orr	x1, x1, x4
   832c4:	f900d7a1 	str	x1, [x29, #424]
   832c8:	aa0203e1 	mov	x1, x2
   832cc:	d37df021 	lsl	x1, x1, #3
   832d0:	f900d3a1 	str	x1, [x29, #416]
   832d4:	91003c00 	add	x0, x0, #0xf
   832d8:	d344fc00 	lsr	x0, x0, #4
   832dc:	d37cec00 	lsl	x0, x0, #4
   832e0:	cb2063ff 	sub	sp, sp, x0
   832e4:	910003e0 	mov	x0, sp
   832e8:	91000000 	add	x0, x0, #0x0
   832ec:	f90313a0 	str	x0, [x29, #1568]
   832f0:	b90687bf 	str	wzr, [x29, #1668]
   832f4:	14000015 	b	83348 <turnaroundTestParseCommand+0x77c>
   832f8:	b94687a0 	ldr	w0, [x29, #1668]
   832fc:	529d89e1 	mov	w1, #0xec4f                	// #60495
   83300:	72a9d881 	movk	w1, #0x4ec4, lsl #16
   83304:	9b217c01 	smull	x1, w0, w1
   83308:	d360fc21 	lsr	x1, x1, #32
   8330c:	13037c22 	asr	w2, w1, #3
   83310:	131f7c01 	asr	w1, w0, #31
   83314:	4b010041 	sub	w1, w2, w1
   83318:	52800342 	mov	w2, #0x1a                  	// #26
   8331c:	1b027c21 	mul	w1, w1, w2
   83320:	4b010001 	sub	w1, w0, w1
   83324:	12001c20 	and	w0, w1, #0xff
   83328:	11010400 	add	w0, w0, #0x41
   8332c:	12001c02 	and	w2, w0, #0xff
   83330:	f94313a1 	ldr	x1, [x29, #1568]
   83334:	b98687a0 	ldrsw	x0, [x29, #1668]
   83338:	38206822 	strb	w2, [x1, x0]
   8333c:	b94687a0 	ldr	w0, [x29, #1668]
   83340:	11000400 	add	w0, w0, #0x1
   83344:	b90687a0 	str	w0, [x29, #1668]
   83348:	b98687a0 	ldrsw	x0, [x29, #1668]
   8334c:	f9431fa1 	ldr	x1, [x29, #1592]
   83350:	eb00003f 	cmp	x1, x0
   83354:	54fffd2c 	b.gt	832f8 <turnaroundTestParseCommand+0x72c>
   83358:	f9431fa0 	ldr	x0, [x29, #1592]
   8335c:	d1000400 	sub	x0, x0, #0x1
   83360:	f94313a1 	ldr	x1, [x29, #1568]
   83364:	3820683f 	strb	wzr, [x1, x0]
   83368:	f9431fa0 	ldr	x0, [x29, #1592]
   8336c:	d1000401 	sub	x1, x0, #0x1
   83370:	f9030fa1 	str	x1, [x29, #1560]
   83374:	aa0003e1 	mov	x1, x0
   83378:	f9005ba1 	str	x1, [x29, #176]
   8337c:	f9005fbf 	str	xzr, [x29, #184]
   83380:	a94b0fa2 	ldp	x2, x3, [x29, #176]
   83384:	aa0203e1 	mov	x1, x2
   83388:	d37dfc21 	lsr	x1, x1, #61
   8338c:	aa0303e4 	mov	x4, x3
   83390:	d37df084 	lsl	x4, x4, #3
   83394:	f900cfa4 	str	x4, [x29, #408]
   83398:	f940cfa4 	ldr	x4, [x29, #408]
   8339c:	aa040021 	orr	x1, x1, x4
   833a0:	f900cfa1 	str	x1, [x29, #408]
   833a4:	aa0203e1 	mov	x1, x2
   833a8:	d37df021 	lsl	x1, x1, #3
   833ac:	f900cba1 	str	x1, [x29, #400]
   833b0:	aa0003e1 	mov	x1, x0
   833b4:	f90053a1 	str	x1, [x29, #160]
   833b8:	f90057bf 	str	xzr, [x29, #168]
   833bc:	a94a0fa2 	ldp	x2, x3, [x29, #160]
   833c0:	aa0203e1 	mov	x1, x2
   833c4:	d37dfc21 	lsr	x1, x1, #61
   833c8:	aa0303e4 	mov	x4, x3
   833cc:	d37df084 	lsl	x4, x4, #3
   833d0:	f900c7a4 	str	x4, [x29, #392]
   833d4:	f940c7a4 	ldr	x4, [x29, #392]
   833d8:	aa040021 	orr	x1, x1, x4
   833dc:	f900c7a1 	str	x1, [x29, #392]
   833e0:	aa0203e1 	mov	x1, x2
   833e4:	d37df021 	lsl	x1, x1, #3
   833e8:	f900c3a1 	str	x1, [x29, #384]
   833ec:	91003c00 	add	x0, x0, #0xf
   833f0:	d344fc00 	lsr	x0, x0, #4
   833f4:	d37cec00 	lsl	x0, x0, #4
   833f8:	cb2063ff 	sub	sp, sp, x0
   833fc:	910003e0 	mov	x0, sp
   83400:	91000000 	add	x0, x0, #0x0
   83404:	f9030ba0 	str	x0, [x29, #1552]
   83408:	9400152f 	bl	888c4 <get_timerLO>
   8340c:	b9060fa0 	str	w0, [x29, #1548]
   83410:	b90683bf 	str	wzr, [x29, #1664]
   83414:	1400000d 	b	83448 <turnaroundTestParseCommand+0x87c>
   83418:	f9431fa0 	ldr	x0, [x29, #1592]
   8341c:	2a0003e1 	mov	w1, w0
   83420:	f9431fa0 	ldr	x0, [x29, #1592]
   83424:	2a0003e4 	mov	w4, w0
   83428:	f9430ba3 	ldr	x3, [x29, #1552]
   8342c:	2a0103e2 	mov	w2, w1
   83430:	f94313a1 	ldr	x1, [x29, #1568]
   83434:	b94637a0 	ldr	w0, [x29, #1588]
   83438:	940014d4 	bl	88788 <Send>
   8343c:	b94683a0 	ldr	w0, [x29, #1664]
   83440:	11000400 	add	w0, w0, #0x1
   83444:	b90683a0 	str	w0, [x29, #1664]
   83448:	b98683a0 	ldrsw	x0, [x29, #1664]
   8344c:	f94323a1 	ldr	x1, [x29, #1600]
   83450:	eb00003f 	cmp	x1, x0
   83454:	54fffe2c 	b.gt	83418 <turnaroundTestParseCommand+0x84c>
   83458:	9400151b 	bl	888c4 <get_timerLO>
   8345c:	b9060ba0 	str	w0, [x29, #1544]
   83460:	b9460ba1 	ldr	w1, [x29, #1544]
   83464:	b9460fa0 	ldr	w0, [x29, #1548]
   83468:	4b000020 	sub	w0, w1, w0
   8346c:	2a0003e1 	mov	w1, w0
   83470:	f94323a0 	ldr	x0, [x29, #1600]
   83474:	9ac00c20 	sdiv	x0, x1, x0
   83478:	b90607a0 	str	w0, [x29, #1540]
   8347c:	9400150f 	bl	888b8 <Yield>
   83480:	f0ffffe0 	adrp	x0, 82000 <gameserver+0x76c>
   83484:	911e0001 	add	x1, x0, #0x780
   83488:	52800020 	mov	w0, #0x1                   	// #1
   8348c:	940014eb 	bl	88838 <Create>
   83490:	b90637a0 	str	w0, [x29, #1588]
   83494:	f94133a0 	ldr	x0, [x29, #608]
   83498:	f9431fa1 	ldr	x1, [x29, #1592]
   8349c:	2a0103e2 	mov	w2, w1
   834a0:	910923a1 	add	x1, x29, #0x248
   834a4:	52800024 	mov	w4, #0x1                   	// #1
   834a8:	aa0103e3 	mov	x3, x1
   834ac:	aa0003e1 	mov	x1, x0
   834b0:	b94637a0 	ldr	w0, [x29, #1588]
   834b4:	940014b5 	bl	88788 <Send>
   834b8:	f94137a0 	ldr	x0, [x29, #616]
   834bc:	f9431fa1 	ldr	x1, [x29, #1592]
   834c0:	2a0103e2 	mov	w2, w1
   834c4:	910923a1 	add	x1, x29, #0x248
   834c8:	52800024 	mov	w4, #0x1                   	// #1
   834cc:	aa0103e3 	mov	x3, x1
   834d0:	aa0003e1 	mov	x1, x0
   834d4:	b94637a0 	ldr	w0, [x29, #1588]
   834d8:	940014ac 	bl	88788 <Send>
   834dc:	f9033fbf 	str	xzr, [x29, #1656]
   834e0:	f94323a0 	ldr	x0, [x29, #1600]
   834e4:	d1000401 	sub	x1, x0, #0x1
   834e8:	f902ffa1 	str	x1, [x29, #1528]
   834ec:	aa0003e1 	mov	x1, x0
   834f0:	f9004ba1 	str	x1, [x29, #144]
   834f4:	f9004fbf 	str	xzr, [x29, #152]
   834f8:	a9490fa2 	ldp	x2, x3, [x29, #144]
   834fc:	aa0203e1 	mov	x1, x2
   83500:	d37bfc21 	lsr	x1, x1, #59
   83504:	aa0303e4 	mov	x4, x3
   83508:	d37be884 	lsl	x4, x4, #5
   8350c:	f900bfa4 	str	x4, [x29, #376]
   83510:	f940bfa4 	ldr	x4, [x29, #376]
   83514:	aa040021 	orr	x1, x1, x4
   83518:	f900bfa1 	str	x1, [x29, #376]
   8351c:	aa0203e1 	mov	x1, x2
   83520:	d37be821 	lsl	x1, x1, #5
   83524:	f900bba1 	str	x1, [x29, #368]
   83528:	aa0003e1 	mov	x1, x0
   8352c:	f90043a1 	str	x1, [x29, #128]
   83530:	f90047bf 	str	xzr, [x29, #136]
   83534:	a9480fa2 	ldp	x2, x3, [x29, #128]
   83538:	aa0203e1 	mov	x1, x2
   8353c:	d37bfc21 	lsr	x1, x1, #59
   83540:	aa0303e4 	mov	x4, x3
   83544:	d37be884 	lsl	x4, x4, #5
   83548:	f900b7a4 	str	x4, [x29, #360]
   8354c:	f940b7a4 	ldr	x4, [x29, #360]
   83550:	aa040021 	orr	x1, x1, x4
   83554:	f900b7a1 	str	x1, [x29, #360]
   83558:	aa0203e1 	mov	x1, x2
   8355c:	d37be821 	lsl	x1, x1, #5
   83560:	f900b3a1 	str	x1, [x29, #352]
   83564:	d37ef400 	lsl	x0, x0, #2
   83568:	91003c00 	add	x0, x0, #0xf
   8356c:	d344fc00 	lsr	x0, x0, #4
   83570:	d37cec00 	lsl	x0, x0, #4
   83574:	cb2063ff 	sub	sp, sp, x0
   83578:	910003e0 	mov	x0, sp
   8357c:	91000c00 	add	x0, x0, #0x3
   83580:	d342fc00 	lsr	x0, x0, #2
   83584:	d37ef400 	lsl	x0, x0, #2
   83588:	f902fba0 	str	x0, [x29, #1520]
   8358c:	b90677bf 	str	wzr, [x29, #1652]
   83590:	14000019 	b	835f4 <turnaroundTestParseCommand+0xa28>
   83594:	940014cc 	bl	888c4 <get_timerLO>
   83598:	b905efa0 	str	w0, [x29, #1516]
   8359c:	f9431fa0 	ldr	x0, [x29, #1592]
   835a0:	2a0003e1 	mov	w1, w0
   835a4:	f9431fa0 	ldr	x0, [x29, #1592]
   835a8:	2a0003e4 	mov	w4, w0
   835ac:	f9430ba3 	ldr	x3, [x29, #1552]
   835b0:	2a0103e2 	mov	w2, w1
   835b4:	f94313a1 	ldr	x1, [x29, #1568]
   835b8:	b94637a0 	ldr	w0, [x29, #1588]
   835bc:	94001473 	bl	88788 <Send>
   835c0:	940014c1 	bl	888c4 <get_timerLO>
   835c4:	b905eba0 	str	w0, [x29, #1512]
   835c8:	b945eba1 	ldr	w1, [x29, #1512]
   835cc:	b945efa0 	ldr	w0, [x29, #1516]
   835d0:	4b000020 	sub	w0, w1, w0
   835d4:	b905e7a0 	str	w0, [x29, #1508]
   835d8:	f942fba0 	ldr	x0, [x29, #1520]
   835dc:	b98677a1 	ldrsw	x1, [x29, #1652]
   835e0:	b945e7a2 	ldr	w2, [x29, #1508]
   835e4:	b8217802 	str	w2, [x0, x1, lsl #2]
   835e8:	b94677a0 	ldr	w0, [x29, #1652]
   835ec:	11000400 	add	w0, w0, #0x1
   835f0:	b90677a0 	str	w0, [x29, #1652]
   835f4:	b98677a0 	ldrsw	x0, [x29, #1652]
   835f8:	f94323a1 	ldr	x1, [x29, #1600]
   835fc:	eb00003f 	cmp	x1, x0
   83600:	54fffcac 	b.gt	83594 <turnaroundTestParseCommand+0x9c8>
   83604:	b90673bf 	str	wzr, [x29, #1648]
   83608:	14000013 	b	83654 <turnaroundTestParseCommand+0xa88>
   8360c:	f942fba0 	ldr	x0, [x29, #1520]
   83610:	b98673a1 	ldrsw	x1, [x29, #1648]
   83614:	b8617801 	ldr	w1, [x0, x1, lsl #2]
   83618:	b94607a0 	ldr	w0, [x29, #1540]
   8361c:	4b000021 	sub	w1, w1, w0
   83620:	f942fba0 	ldr	x0, [x29, #1520]
   83624:	b98673a2 	ldrsw	x2, [x29, #1648]
   83628:	b8627802 	ldr	w2, [x0, x2, lsl #2]
   8362c:	b94607a0 	ldr	w0, [x29, #1540]
   83630:	4b000040 	sub	w0, w2, w0
   83634:	1b007c20 	mul	w0, w1, w0
   83638:	2a0003e0 	mov	w0, w0
   8363c:	f9433fa1 	ldr	x1, [x29, #1656]
   83640:	8b000020 	add	x0, x1, x0
   83644:	f9033fa0 	str	x0, [x29, #1656]
   83648:	b94673a0 	ldr	w0, [x29, #1648]
   8364c:	11000400 	add	w0, w0, #0x1
   83650:	b90673a0 	str	w0, [x29, #1648]
   83654:	b98673a0 	ldrsw	x0, [x29, #1648]
   83658:	f94323a1 	ldr	x1, [x29, #1600]
   8365c:	eb00003f 	cmp	x1, x0
   83660:	54fffd6c 	b.gt	8360c <turnaroundTestParseCommand+0xa40>
   83664:	f94323a0 	ldr	x0, [x29, #1600]
   83668:	f9433fa1 	ldr	x1, [x29, #1656]
   8366c:	9ac00820 	udiv	x0, x1, x0
   83670:	f9033fa0 	str	x0, [x29, #1656]
   83674:	b94607a3 	ldr	w3, [x29, #1540]
   83678:	f9431fa2 	ldr	x2, [x29, #1592]
   8367c:	f0000020 	adrp	x0, 8a000 <vector_table_el1>
   83680:	912e6001 	add	x1, x0, #0xb98
   83684:	d2800020 	mov	x0, #0x1                   	// #1
   83688:	94000b6c 	bl	86438 <uart_printf>
   8368c:	f9433fa2 	ldr	x2, [x29, #1656]
   83690:	f0000020 	adrp	x0, 8a000 <vector_table_el1>
   83694:	912dc001 	add	x1, x0, #0xb70
   83698:	d2800020 	mov	x0, #0x1                   	// #1
   8369c:	94000b67 	bl	86438 <uart_printf>
   836a0:	94001486 	bl	888b8 <Yield>
   836a4:	d503201f 	nop
   836a8:	9100027f 	mov	sp, x19
   836ac:	140000a6 	b	83944 <turnaroundTestParseCommand+0xd78>
   836b0:	94001482 	bl	888b8 <Yield>
   836b4:	f9412fa1 	ldr	x1, [x29, #600]
   836b8:	910953a3 	add	x3, x29, #0x254
   836bc:	f0000020 	adrp	x0, 8a000 <vector_table_el1>
   836c0:	912f2002 	add	x2, x0, #0xbc8
   836c4:	aa0303e0 	mov	x0, x3
   836c8:	97fff5e3 	bl	80e54 <strcmp>
   836cc:	b94257a0 	ldr	w0, [x29, #596]
   836d0:	7100001f 	cmp	w0, #0x0
   836d4:	54000bc0 	b.eq	8384c <turnaroundTestParseCommand+0xc80>  // b.none
   836d8:	910003e0 	mov	x0, sp
   836dc:	aa0003f3 	mov	x19, x0
   836e0:	b946a7a0 	ldr	w0, [x29, #1700]
   836e4:	7100081f 	cmp	w0, #0x2
   836e8:	540000cc 	b.gt	83700 <turnaroundTestParseCommand+0xb34>
   836ec:	f0000020 	adrp	x0, 8a000 <vector_table_el1>
   836f0:	912ca001 	add	x1, x0, #0xb28
   836f4:	d2800020 	mov	x0, #0x1                   	// #1
   836f8:	94000b50 	bl	86438 <uart_printf>
   836fc:	14000052 	b	83844 <turnaroundTestParseCommand+0xc78>
   83700:	52800040 	mov	w0, #0x2                   	// #2
   83704:	b90667a0 	str	w0, [x29, #1636]
   83708:	b94667a0 	ldr	w0, [x29, #1636]
   8370c:	93407c01 	sxtw	x1, w0
   83710:	d1000421 	sub	x1, x1, #0x1
   83714:	f9032fa1 	str	x1, [x29, #1624]
   83718:	93407c01 	sxtw	x1, w0
   8371c:	f9003ba1 	str	x1, [x29, #112]
   83720:	f9003fbf 	str	xzr, [x29, #120]
   83724:	a9470fa2 	ldp	x2, x3, [x29, #112]
   83728:	aa0203e1 	mov	x1, x2
   8372c:	d37afc21 	lsr	x1, x1, #58
   83730:	aa0303e4 	mov	x4, x3
   83734:	d37ae484 	lsl	x4, x4, #6
   83738:	f900afa4 	str	x4, [x29, #344]
   8373c:	f940afa4 	ldr	x4, [x29, #344]
   83740:	aa040021 	orr	x1, x1, x4
   83744:	f900afa1 	str	x1, [x29, #344]
   83748:	aa0203e1 	mov	x1, x2
   8374c:	d37ae421 	lsl	x1, x1, #6
   83750:	f900aba1 	str	x1, [x29, #336]
   83754:	93407c01 	sxtw	x1, w0
   83758:	f90033a1 	str	x1, [x29, #96]
   8375c:	f90037bf 	str	xzr, [x29, #104]
   83760:	a9460fa2 	ldp	x2, x3, [x29, #96]
   83764:	aa0203e1 	mov	x1, x2
   83768:	d37afc21 	lsr	x1, x1, #58
   8376c:	aa0303e4 	mov	x4, x3
   83770:	d37ae484 	lsl	x4, x4, #6
   83774:	f900a7a4 	str	x4, [x29, #328]
   83778:	f940a7a4 	ldr	x4, [x29, #328]
   8377c:	aa040021 	orr	x1, x1, x4
   83780:	f900a7a1 	str	x1, [x29, #328]
   83784:	aa0203e1 	mov	x1, x2
   83788:	d37ae421 	lsl	x1, x1, #6
   8378c:	f900a3a1 	str	x1, [x29, #320]
   83790:	93407c00 	sxtw	x0, w0
   83794:	d37df000 	lsl	x0, x0, #3
   83798:	91003c00 	add	x0, x0, #0xf
   8379c:	d344fc00 	lsr	x0, x0, #4
   837a0:	d37cec00 	lsl	x0, x0, #4
   837a4:	cb2063ff 	sub	sp, sp, x0
   837a8:	910003e0 	mov	x0, sp
   837ac:	91001c00 	add	x0, x0, #0x7
   837b0:	d343fc00 	lsr	x0, x0, #3
   837b4:	d37df000 	lsl	x0, x0, #3
   837b8:	f9032ba0 	str	x0, [x29, #1616]
   837bc:	f94133a0 	ldr	x0, [x29, #608]
   837c0:	97fff560 	bl	80d40 <atoi>
   837c4:	aa0003e1 	mov	x1, x0
   837c8:	f9432ba0 	ldr	x0, [x29, #1616]
   837cc:	f9000001 	str	x1, [x0]
   837d0:	f94137a0 	ldr	x0, [x29, #616]
   837d4:	97fff55b 	bl	80d40 <atoi>
   837d8:	aa0003e1 	mov	x1, x0
   837dc:	f9432ba0 	ldr	x0, [x29, #1616]
   837e0:	f9000401 	str	x1, [x0, #8]
   837e4:	b94667a2 	ldr	w2, [x29, #1636]
   837e8:	f0000020 	adrp	x0, 8a000 <vector_table_el1>
   837ec:	912f6001 	add	x1, x0, #0xbd8
   837f0:	d2800020 	mov	x0, #0x1                   	// #1
   837f4:	94000b11 	bl	86438 <uart_printf>
   837f8:	f9432ba2 	ldr	x2, [x29, #1616]
   837fc:	f0000020 	adrp	x0, 8a000 <vector_table_el1>
   83800:	912fa001 	add	x1, x0, #0xbe8
   83804:	d2800020 	mov	x0, #0x1                   	// #1
   83808:	94000b0c 	bl	86438 <uart_printf>
   8380c:	b98667a0 	ldrsw	x0, [x29, #1636]
   83810:	f9432ba3 	ldr	x3, [x29, #1616]
   83814:	aa0003e2 	mov	x2, x0
   83818:	f0ffffe0 	adrp	x0, 82000 <gameserver+0x76c>
   8381c:	9128d001 	add	x1, x0, #0xa34
   83820:	528000a0 	mov	w0, #0x5                   	// #5
   83824:	9400140d 	bl	88858 <CreateArgs>
   83828:	b9064fa0 	str	w0, [x29, #1612]
   8382c:	b9464fa2 	ldr	w2, [x29, #1612]
   83830:	f0000020 	adrp	x0, 8a000 <vector_table_el1>
   83834:	912fe001 	add	x1, x0, #0xbf8
   83838:	d2800020 	mov	x0, #0x1                   	// #1
   8383c:	94000aff 	bl	86438 <uart_printf>
   83840:	d503201f 	nop
   83844:	9100027f 	mov	sp, x19
   83848:	1400003f 	b	83944 <turnaroundTestParseCommand+0xd78>
   8384c:	9400141b 	bl	888b8 <Yield>
   83850:	f9412fa1 	ldr	x1, [x29, #600]
   83854:	910953a3 	add	x3, x29, #0x254
   83858:	f0000020 	adrp	x0, 8a000 <vector_table_el1>
   8385c:	91302002 	add	x2, x0, #0xc08
   83860:	aa0303e0 	mov	x0, x3
   83864:	97fff57c 	bl	80e54 <strcmp>
   83868:	b94257a0 	ldr	w0, [x29, #596]
   8386c:	7100001f 	cmp	w0, #0x0
   83870:	54000600 	b.eq	83930 <turnaroundTestParseCommand+0xd64>  // b.none
   83874:	52800140 	mov	w0, #0xa                   	// #10
   83878:	b9066fa0 	str	w0, [x29, #1644]
   8387c:	d2800020 	mov	x0, #0x1                   	// #1
   83880:	f900ffa0 	str	x0, [x29, #504]
   83884:	d2800040 	mov	x0, #0x2                   	// #2
   83888:	f90103a0 	str	x0, [x29, #512]
   8388c:	d2800060 	mov	x0, #0x3                   	// #3
   83890:	f90107a0 	str	x0, [x29, #520]
   83894:	d2800080 	mov	x0, #0x4                   	// #4
   83898:	f9010ba0 	str	x0, [x29, #528]
   8389c:	d28000a0 	mov	x0, #0x5                   	// #5
   838a0:	f9010fa0 	str	x0, [x29, #536]
   838a4:	d28000c0 	mov	x0, #0x6                   	// #6
   838a8:	f90113a0 	str	x0, [x29, #544]
   838ac:	d28000e0 	mov	x0, #0x7                   	// #7
   838b0:	f90117a0 	str	x0, [x29, #552]
   838b4:	d2800100 	mov	x0, #0x8                   	// #8
   838b8:	f9011ba0 	str	x0, [x29, #560]
   838bc:	d2800120 	mov	x0, #0x9                   	// #9
   838c0:	f9011fa0 	str	x0, [x29, #568]
   838c4:	d2800140 	mov	x0, #0xa                   	// #10
   838c8:	f90123a0 	str	x0, [x29, #576]
   838cc:	b9466fa2 	ldr	w2, [x29, #1644]
   838d0:	f0000020 	adrp	x0, 8a000 <vector_table_el1>
   838d4:	912f6001 	add	x1, x0, #0xbd8
   838d8:	d2800020 	mov	x0, #0x1                   	// #1
   838dc:	94000ad7 	bl	86438 <uart_printf>
   838e0:	9107e3a0 	add	x0, x29, #0x1f8
   838e4:	aa0003e2 	mov	x2, x0
   838e8:	f0000020 	adrp	x0, 8a000 <vector_table_el1>
   838ec:	912fa001 	add	x1, x0, #0xbe8
   838f0:	d2800020 	mov	x0, #0x1                   	// #1
   838f4:	94000ad1 	bl	86438 <uart_printf>
   838f8:	9107e3a0 	add	x0, x29, #0x1f8
   838fc:	aa0003e3 	mov	x3, x0
   83900:	d2800142 	mov	x2, #0xa                   	// #10
   83904:	f0ffffe0 	adrp	x0, 82000 <gameserver+0x76c>
   83908:	912bc001 	add	x1, x0, #0xaf0
   8390c:	528000a0 	mov	w0, #0x5                   	// #5
   83910:	940013d2 	bl	88858 <CreateArgs>
   83914:	b9066ba0 	str	w0, [x29, #1640]
   83918:	b9466ba2 	ldr	w2, [x29, #1640]
   8391c:	f0000020 	adrp	x0, 8a000 <vector_table_el1>
   83920:	912fe001 	add	x1, x0, #0xbf8
   83924:	d2800020 	mov	x0, #0x1                   	// #1
   83928:	94000ac4 	bl	86438 <uart_printf>
   8392c:	14000006 	b	83944 <turnaroundTestParseCommand+0xd78>
   83930:	940013e2 	bl	888b8 <Yield>
   83934:	f0000020 	adrp	x0, 8a000 <vector_table_el1>
   83938:	91304001 	add	x1, x0, #0xc10
   8393c:	d2800020 	mov	x0, #0x1                   	// #1
   83940:	94000abe 	bl	86438 <uart_printf>
   83944:	910003bf 	mov	sp, x29
   83948:	a94153f3 	ldp	x19, x20, [sp, #16]
   8394c:	a9425bf5 	ldp	x21, x22, [sp, #32]
   83950:	a94363f7 	ldp	x23, x24, [sp, #48]
   83954:	a9446bf9 	ldp	x25, x26, [sp, #64]
   83958:	f9402bfb 	ldr	x27, [sp, #80]
   8395c:	a9407bfd 	ldp	x29, x30, [sp]
   83960:	911ac3ff 	add	sp, sp, #0x6b0
   83964:	d65f03c0 	ret

0000000000083968 <recieveTask>:
   83968:	a9bf7bfd 	stp	x29, x30, [sp, #-16]!
   8396c:	910003fd 	mov	x29, sp
   83970:	f0000020 	adrp	x0, 8a000 <vector_table_el1>
   83974:	9130a000 	add	x0, x0, #0xc28
   83978:	940006cf 	bl	854b4 <RegisterAs>
   8397c:	940013c8 	bl	8889c <Exit>
   83980:	d503201f 	nop
   83984:	a8c17bfd 	ldp	x29, x30, [sp], #16
   83988:	d65f03c0 	ret

000000000008398c <turnaroundTests>:
   8398c:	a9bf7bfd 	stp	x29, x30, [sp, #-16]!
   83990:	910003fd 	mov	x29, sp
   83994:	f0000020 	adrp	x0, 8a000 <vector_table_el1>
   83998:	9130c000 	add	x0, x0, #0xc30
   8399c:	97fffc8c 	bl	82bcc <turnaroundTestParseCommand>
   839a0:	f0000020 	adrp	x0, 8a000 <vector_table_el1>
   839a4:	91312000 	add	x0, x0, #0xc48
   839a8:	97fffc89 	bl	82bcc <turnaroundTestParseCommand>
   839ac:	f0000020 	adrp	x0, 8a000 <vector_table_el1>
   839b0:	91318000 	add	x0, x0, #0xc60
   839b4:	97fffc86 	bl	82bcc <turnaroundTestParseCommand>
   839b8:	f0000020 	adrp	x0, 8a000 <vector_table_el1>
   839bc:	9131e000 	add	x0, x0, #0xc78
   839c0:	97fffc83 	bl	82bcc <turnaroundTestParseCommand>
   839c4:	f0000020 	adrp	x0, 8a000 <vector_table_el1>
   839c8:	91324000 	add	x0, x0, #0xc90
   839cc:	97fffc80 	bl	82bcc <turnaroundTestParseCommand>
   839d0:	f0000020 	adrp	x0, 8a000 <vector_table_el1>
   839d4:	9132a000 	add	x0, x0, #0xca8
   839d8:	97fffc7d 	bl	82bcc <turnaroundTestParseCommand>
   839dc:	d503201f 	nop
   839e0:	a8c17bfd 	ldp	x29, x30, [sp], #16
   839e4:	d65f03c0 	ret

00000000000839e8 <testNameserver>:
   839e8:	a9be7bfd 	stp	x29, x30, [sp, #-32]!
   839ec:	910003fd 	mov	x29, sp
   839f0:	f0000020 	adrp	x0, 8a000 <vector_table_el1>
   839f4:	91330000 	add	x0, x0, #0xcc0
   839f8:	f9000fe0 	str	x0, [sp, #24]
   839fc:	f0000020 	adrp	x0, 8a000 <vector_table_el1>
   83a00:	91334001 	add	x1, x0, #0xcd0
   83a04:	d2800020 	mov	x0, #0x1                   	// #1
   83a08:	94000a8c 	bl	86438 <uart_printf>
   83a0c:	f9400fe2 	ldr	x2, [sp, #24]
   83a10:	f0000020 	adrp	x0, 8a000 <vector_table_el1>
   83a14:	91336001 	add	x1, x0, #0xcd8
   83a18:	d2800020 	mov	x0, #0x1                   	// #1
   83a1c:	94000a87 	bl	86438 <uart_printf>
   83a20:	f0000020 	adrp	x0, 8a000 <vector_table_el1>
   83a24:	9133e001 	add	x1, x0, #0xcf8
   83a28:	d2800020 	mov	x0, #0x1                   	// #1
   83a2c:	94000a83 	bl	86438 <uart_printf>
   83a30:	f0000020 	adrp	x0, 8a000 <vector_table_el1>
   83a34:	91348001 	add	x1, x0, #0xd20
   83a38:	d2800020 	mov	x0, #0x1                   	// #1
   83a3c:	94000a7f 	bl	86438 <uart_printf>
   83a40:	f9400fe0 	ldr	x0, [sp, #24]
   83a44:	9400069c 	bl	854b4 <RegisterAs>
   83a48:	f0000020 	adrp	x0, 8a000 <vector_table_el1>
   83a4c:	91334001 	add	x1, x0, #0xcd0
   83a50:	d2800020 	mov	x0, #0x1                   	// #1
   83a54:	94000a79 	bl	86438 <uart_printf>
   83a58:	f0000020 	adrp	x0, 8a000 <vector_table_el1>
   83a5c:	9134a001 	add	x1, x0, #0xd28
   83a60:	d2800020 	mov	x0, #0x1                   	// #1
   83a64:	94000a75 	bl	86438 <uart_printf>
   83a68:	f0000020 	adrp	x0, 8a000 <vector_table_el1>
   83a6c:	91348001 	add	x1, x0, #0xd20
   83a70:	d2800020 	mov	x0, #0x1                   	// #1
   83a74:	94000a71 	bl	86438 <uart_printf>
   83a78:	f9400fe0 	ldr	x0, [sp, #24]
   83a7c:	940006d6 	bl	855d4 <WhoIs>
   83a80:	b90017e0 	str	w0, [sp, #20]
   83a84:	f0000020 	adrp	x0, 8a000 <vector_table_el1>
   83a88:	91334001 	add	x1, x0, #0xcd0
   83a8c:	d2800020 	mov	x0, #0x1                   	// #1
   83a90:	94000a6a 	bl	86438 <uart_printf>
   83a94:	b94017e2 	ldr	w2, [sp, #20]
   83a98:	f0000020 	adrp	x0, 8a000 <vector_table_el1>
   83a9c:	91356001 	add	x1, x0, #0xd58
   83aa0:	d2800020 	mov	x0, #0x1                   	// #1
   83aa4:	94000a65 	bl	86438 <uart_printf>
   83aa8:	f0000020 	adrp	x0, 8a000 <vector_table_el1>
   83aac:	91348001 	add	x1, x0, #0xd20
   83ab0:	d2800020 	mov	x0, #0x1                   	// #1
   83ab4:	94000a61 	bl	86438 <uart_printf>
   83ab8:	94001379 	bl	8889c <Exit>
   83abc:	d503201f 	nop
   83ac0:	a8c27bfd 	ldp	x29, x30, [sp], #32
   83ac4:	d65f03c0 	ret

0000000000083ac8 <sender>:
   83ac8:	a9b27bfd 	stp	x29, x30, [sp, #-224]!
   83acc:	910003fd 	mov	x29, sp
   83ad0:	a90153f3 	stp	x19, x20, [sp, #16]
   83ad4:	a9025bf5 	stp	x21, x22, [sp, #32]
   83ad8:	a90363f7 	stp	x23, x24, [sp, #48]
   83adc:	a9046bf9 	stp	x25, x26, [sp, #64]
   83ae0:	f9002bfb 	str	x27, [sp, #80]
   83ae4:	910003e0 	mov	x0, sp
   83ae8:	aa0003f3 	mov	x19, x0
   83aec:	52800140 	mov	w0, #0xa                   	// #10
   83af0:	b900dba0 	str	w0, [x29, #216]
   83af4:	94001349 	bl	88818 <MyTid>
   83af8:	b900d7a0 	str	w0, [x29, #212]
   83afc:	f0000020 	adrp	x0, 8a000 <vector_table_el1>
   83b00:	9135e000 	add	x0, x0, #0xd78
   83b04:	9400066c 	bl	854b4 <RegisterAs>
   83b08:	b940d7a2 	ldr	w2, [x29, #212]
   83b0c:	f0000020 	adrp	x0, 8a000 <vector_table_el1>
   83b10:	91360001 	add	x1, x0, #0xd80
   83b14:	d2800020 	mov	x0, #0x1                   	// #1
   83b18:	94000a48 	bl	86438 <uart_printf>
   83b1c:	b940dba0 	ldr	w0, [x29, #216]
   83b20:	93407c01 	sxtw	x1, w0
   83b24:	d1000421 	sub	x1, x1, #0x1
   83b28:	f90067a1 	str	x1, [x29, #200]
   83b2c:	93407c01 	sxtw	x1, w0
   83b30:	f9004ba1 	str	x1, [x29, #144]
   83b34:	f9004fbf 	str	xzr, [x29, #152]
   83b38:	a9490fa2 	ldp	x2, x3, [x29, #144]
   83b3c:	aa0203e1 	mov	x1, x2
   83b40:	d37dfc21 	lsr	x1, x1, #61
   83b44:	aa0303e4 	mov	x4, x3
   83b48:	d37df09b 	lsl	x27, x4, #3
   83b4c:	aa1b003b 	orr	x27, x1, x27
   83b50:	aa0203e1 	mov	x1, x2
   83b54:	d37df03a 	lsl	x26, x1, #3
   83b58:	93407c01 	sxtw	x1, w0
   83b5c:	f90043a1 	str	x1, [x29, #128]
   83b60:	f90047bf 	str	xzr, [x29, #136]
   83b64:	a9480fa2 	ldp	x2, x3, [x29, #128]
   83b68:	aa0203e1 	mov	x1, x2
   83b6c:	d37dfc21 	lsr	x1, x1, #61
   83b70:	aa0303e4 	mov	x4, x3
   83b74:	d37df099 	lsl	x25, x4, #3
   83b78:	aa190039 	orr	x25, x1, x25
   83b7c:	aa0203e1 	mov	x1, x2
   83b80:	d37df038 	lsl	x24, x1, #3
   83b84:	93407c00 	sxtw	x0, w0
   83b88:	91003c00 	add	x0, x0, #0xf
   83b8c:	d344fc00 	lsr	x0, x0, #4
   83b90:	d37cec00 	lsl	x0, x0, #4
   83b94:	cb2063ff 	sub	sp, sp, x0
   83b98:	910003e0 	mov	x0, sp
   83b9c:	91000000 	add	x0, x0, #0x0
   83ba0:	f90063a0 	str	x0, [x29, #192]
   83ba4:	b900dfbf 	str	wzr, [x29, #220]
   83ba8:	1400000b 	b	83bd4 <sender+0x10c>
   83bac:	b940dfa0 	ldr	w0, [x29, #220]
   83bb0:	12001c00 	and	w0, w0, #0xff
   83bb4:	11010800 	add	w0, w0, #0x42
   83bb8:	12001c02 	and	w2, w0, #0xff
   83bbc:	f94063a1 	ldr	x1, [x29, #192]
   83bc0:	b980dfa0 	ldrsw	x0, [x29, #220]
   83bc4:	38206822 	strb	w2, [x1, x0]
   83bc8:	b940dfa0 	ldr	w0, [x29, #220]
   83bcc:	11000400 	add	w0, w0, #0x1
   83bd0:	b900dfa0 	str	w0, [x29, #220]
   83bd4:	b940dfa1 	ldr	w1, [x29, #220]
   83bd8:	b940dba0 	ldr	w0, [x29, #216]
   83bdc:	6b00003f 	cmp	w1, w0
   83be0:	54fffe6b 	b.lt	83bac <sender+0xe4>  // b.tstop
   83be4:	b940dba0 	ldr	w0, [x29, #216]
   83be8:	51000400 	sub	w0, w0, #0x1
   83bec:	f94063a1 	ldr	x1, [x29, #192]
   83bf0:	93407c00 	sxtw	x0, w0
   83bf4:	3820683f 	strb	wzr, [x1, x0]
   83bf8:	f0000020 	adrp	x0, 8a000 <vector_table_el1>
   83bfc:	9129a000 	add	x0, x0, #0xa68
   83c00:	94000675 	bl	855d4 <WhoIs>
   83c04:	b900d7a0 	str	w0, [x29, #212]
   83c08:	b940dba0 	ldr	w0, [x29, #216]
   83c0c:	93407c01 	sxtw	x1, w0
   83c10:	d1000421 	sub	x1, x1, #0x1
   83c14:	f9005fa1 	str	x1, [x29, #184]
   83c18:	93407c01 	sxtw	x1, w0
   83c1c:	f9003ba1 	str	x1, [x29, #112]
   83c20:	f9003fbf 	str	xzr, [x29, #120]
   83c24:	a9470fa2 	ldp	x2, x3, [x29, #112]
   83c28:	aa0203e1 	mov	x1, x2
   83c2c:	d37dfc21 	lsr	x1, x1, #61
   83c30:	aa0303e4 	mov	x4, x3
   83c34:	d37df097 	lsl	x23, x4, #3
   83c38:	aa170037 	orr	x23, x1, x23
   83c3c:	aa0203e1 	mov	x1, x2
   83c40:	d37df036 	lsl	x22, x1, #3
   83c44:	93407c01 	sxtw	x1, w0
   83c48:	f90033a1 	str	x1, [x29, #96]
   83c4c:	f90037bf 	str	xzr, [x29, #104]
   83c50:	a9460fa2 	ldp	x2, x3, [x29, #96]
   83c54:	aa0203e1 	mov	x1, x2
   83c58:	d37dfc21 	lsr	x1, x1, #61
   83c5c:	aa0303e4 	mov	x4, x3
   83c60:	d37df095 	lsl	x21, x4, #3
   83c64:	aa150035 	orr	x21, x1, x21
   83c68:	aa0203e1 	mov	x1, x2
   83c6c:	d37df034 	lsl	x20, x1, #3
   83c70:	93407c00 	sxtw	x0, w0
   83c74:	91003c00 	add	x0, x0, #0xf
   83c78:	d344fc00 	lsr	x0, x0, #4
   83c7c:	d37cec00 	lsl	x0, x0, #4
   83c80:	cb2063ff 	sub	sp, sp, x0
   83c84:	910003e0 	mov	x0, sp
   83c88:	91000000 	add	x0, x0, #0x0
   83c8c:	f9005ba0 	str	x0, [x29, #176]
   83c90:	b940dba4 	ldr	w4, [x29, #216]
   83c94:	f9405ba3 	ldr	x3, [x29, #176]
   83c98:	b940dba2 	ldr	w2, [x29, #216]
   83c9c:	f94063a1 	ldr	x1, [x29, #192]
   83ca0:	b940d7a0 	ldr	w0, [x29, #212]
   83ca4:	940012b9 	bl	88788 <Send>
   83ca8:	b900afa0 	str	w0, [x29, #172]
   83cac:	b940afa3 	ldr	w3, [x29, #172]
   83cb0:	f9405ba2 	ldr	x2, [x29, #176]
   83cb4:	f0000020 	adrp	x0, 8a000 <vector_table_el1>
   83cb8:	91368001 	add	x1, x0, #0xda0
   83cbc:	d2800020 	mov	x0, #0x1                   	// #1
   83cc0:	940009de 	bl	86438 <uart_printf>
   83cc4:	940012f6 	bl	8889c <Exit>
   83cc8:	9100027f 	mov	sp, x19
   83ccc:	d503201f 	nop
   83cd0:	910003bf 	mov	sp, x29
   83cd4:	a94153f3 	ldp	x19, x20, [sp, #16]
   83cd8:	a9425bf5 	ldp	x21, x22, [sp, #32]
   83cdc:	a94363f7 	ldp	x23, x24, [sp, #48]
   83ce0:	a9446bf9 	ldp	x25, x26, [sp, #64]
   83ce4:	f9402bfb 	ldr	x27, [sp, #80]
   83ce8:	a8ce7bfd 	ldp	x29, x30, [sp], #224
   83cec:	d65f03c0 	ret

0000000000083cf0 <receiver>:
   83cf0:	a9b27bfd 	stp	x29, x30, [sp, #-224]!
   83cf4:	910003fd 	mov	x29, sp
   83cf8:	a90153f3 	stp	x19, x20, [sp, #16]
   83cfc:	a9025bf5 	stp	x21, x22, [sp, #32]
   83d00:	a90363f7 	stp	x23, x24, [sp, #48]
   83d04:	a9046bf9 	stp	x25, x26, [sp, #64]
   83d08:	f9002bfb 	str	x27, [sp, #80]
   83d0c:	910003e0 	mov	x0, sp
   83d10:	aa0003f3 	mov	x19, x0
   83d14:	52800140 	mov	w0, #0xa                   	// #10
   83d18:	b900d7a0 	str	w0, [x29, #212]
   83d1c:	940012bf 	bl	88818 <MyTid>
   83d20:	b900d3a0 	str	w0, [x29, #208]
   83d24:	f0000020 	adrp	x0, 8a000 <vector_table_el1>
   83d28:	9129a000 	add	x0, x0, #0xa68
   83d2c:	940005e2 	bl	854b4 <RegisterAs>
   83d30:	b940d7a0 	ldr	w0, [x29, #212]
   83d34:	93407c01 	sxtw	x1, w0
   83d38:	d1000421 	sub	x1, x1, #0x1
   83d3c:	f90067a1 	str	x1, [x29, #200]
   83d40:	93407c01 	sxtw	x1, w0
   83d44:	f9004ba1 	str	x1, [x29, #144]
   83d48:	f9004fbf 	str	xzr, [x29, #152]
   83d4c:	a9490fa2 	ldp	x2, x3, [x29, #144]
   83d50:	aa0203e1 	mov	x1, x2
   83d54:	d37dfc21 	lsr	x1, x1, #61
   83d58:	aa0303e4 	mov	x4, x3
   83d5c:	d37df09b 	lsl	x27, x4, #3
   83d60:	aa1b003b 	orr	x27, x1, x27
   83d64:	aa0203e1 	mov	x1, x2
   83d68:	d37df03a 	lsl	x26, x1, #3
   83d6c:	93407c01 	sxtw	x1, w0
   83d70:	f90043a1 	str	x1, [x29, #128]
   83d74:	f90047bf 	str	xzr, [x29, #136]
   83d78:	a9480fa2 	ldp	x2, x3, [x29, #128]
   83d7c:	aa0203e1 	mov	x1, x2
   83d80:	d37dfc21 	lsr	x1, x1, #61
   83d84:	aa0303e4 	mov	x4, x3
   83d88:	d37df099 	lsl	x25, x4, #3
   83d8c:	aa190039 	orr	x25, x1, x25
   83d90:	aa0203e1 	mov	x1, x2
   83d94:	d37df038 	lsl	x24, x1, #3
   83d98:	93407c00 	sxtw	x0, w0
   83d9c:	91003c00 	add	x0, x0, #0xf
   83da0:	d344fc00 	lsr	x0, x0, #4
   83da4:	d37cec00 	lsl	x0, x0, #4
   83da8:	cb2063ff 	sub	sp, sp, x0
   83dac:	910003e0 	mov	x0, sp
   83db0:	91000000 	add	x0, x0, #0x0
   83db4:	f90063a0 	str	x0, [x29, #192]
   83db8:	b940d7a0 	ldr	w0, [x29, #212]
   83dbc:	93407c01 	sxtw	x1, w0
   83dc0:	d1000421 	sub	x1, x1, #0x1
   83dc4:	f9005fa1 	str	x1, [x29, #184]
   83dc8:	93407c01 	sxtw	x1, w0
   83dcc:	f9003ba1 	str	x1, [x29, #112]
   83dd0:	f9003fbf 	str	xzr, [x29, #120]
   83dd4:	a9470fa2 	ldp	x2, x3, [x29, #112]
   83dd8:	aa0203e1 	mov	x1, x2
   83ddc:	d37dfc21 	lsr	x1, x1, #61
   83de0:	aa0303e4 	mov	x4, x3
   83de4:	d37df097 	lsl	x23, x4, #3
   83de8:	aa170037 	orr	x23, x1, x23
   83dec:	aa0203e1 	mov	x1, x2
   83df0:	d37df036 	lsl	x22, x1, #3
   83df4:	93407c01 	sxtw	x1, w0
   83df8:	f90033a1 	str	x1, [x29, #96]
   83dfc:	f90037bf 	str	xzr, [x29, #104]
   83e00:	a9460fa2 	ldp	x2, x3, [x29, #96]
   83e04:	aa0203e1 	mov	x1, x2
   83e08:	d37dfc21 	lsr	x1, x1, #61
   83e0c:	aa0303e4 	mov	x4, x3
   83e10:	d37df095 	lsl	x21, x4, #3
   83e14:	aa150035 	orr	x21, x1, x21
   83e18:	aa0203e1 	mov	x1, x2
   83e1c:	d37df034 	lsl	x20, x1, #3
   83e20:	93407c00 	sxtw	x0, w0
   83e24:	91003c00 	add	x0, x0, #0xf
   83e28:	d344fc00 	lsr	x0, x0, #4
   83e2c:	d37cec00 	lsl	x0, x0, #4
   83e30:	cb2063ff 	sub	sp, sp, x0
   83e34:	910003e0 	mov	x0, sp
   83e38:	91000000 	add	x0, x0, #0x0
   83e3c:	f9005ba0 	str	x0, [x29, #176]
   83e40:	b900dfbf 	str	wzr, [x29, #220]
   83e44:	1400000b 	b	83e70 <receiver+0x180>
   83e48:	b940dfa0 	ldr	w0, [x29, #220]
   83e4c:	12001c00 	and	w0, w0, #0xff
   83e50:	11010400 	add	w0, w0, #0x41
   83e54:	12001c02 	and	w2, w0, #0xff
   83e58:	f9405ba1 	ldr	x1, [x29, #176]
   83e5c:	b980dfa0 	ldrsw	x0, [x29, #220]
   83e60:	38206822 	strb	w2, [x1, x0]
   83e64:	b940dfa0 	ldr	w0, [x29, #220]
   83e68:	11000400 	add	w0, w0, #0x1
   83e6c:	b900dfa0 	str	w0, [x29, #220]
   83e70:	b940dfa1 	ldr	w1, [x29, #220]
   83e74:	b940d7a0 	ldr	w0, [x29, #212]
   83e78:	6b00003f 	cmp	w1, w0
   83e7c:	54fffe6b 	b.lt	83e48 <receiver+0x158>  // b.tstop
   83e80:	b940d7a0 	ldr	w0, [x29, #212]
   83e84:	51000400 	sub	w0, w0, #0x1
   83e88:	f94063a1 	ldr	x1, [x29, #192]
   83e8c:	93407c00 	sxtw	x0, w0
   83e90:	3820683f 	strb	wzr, [x1, x0]
   83e94:	b940d3a2 	ldr	w2, [x29, #208]
   83e98:	f0000020 	adrp	x0, 8a000 <vector_table_el1>
   83e9c:	91378001 	add	x1, x0, #0xde0
   83ea0:	d2800020 	mov	x0, #0x1                   	// #1
   83ea4:	94000965 	bl	86438 <uart_printf>
   83ea8:	910293a0 	add	x0, x29, #0xa4
   83eac:	b940d7a2 	ldr	w2, [x29, #212]
   83eb0:	f94063a1 	ldr	x1, [x29, #192]
   83eb4:	94001240 	bl	887b4 <Receive>
   83eb8:	b900afa0 	str	w0, [x29, #172]
   83ebc:	b940afa3 	ldr	w3, [x29, #172]
   83ec0:	f94063a2 	ldr	x2, [x29, #192]
   83ec4:	f0000020 	adrp	x0, 8a000 <vector_table_el1>
   83ec8:	91380001 	add	x1, x0, #0xe00
   83ecc:	d2800020 	mov	x0, #0x1                   	// #1
   83ed0:	9400095a 	bl	86438 <uart_printf>
   83ed4:	b900dbbf 	str	wzr, [x29, #216]
   83ed8:	1400000a 	b	83f00 <receiver+0x210>
   83edc:	f9405ba1 	ldr	x1, [x29, #176]
   83ee0:	b980dba0 	ldrsw	x0, [x29, #216]
   83ee4:	38606820 	ldrb	w0, [x1, x0]
   83ee8:	2a0003e1 	mov	w1, w0
   83eec:	d2800020 	mov	x0, #0x1                   	// #1
   83ef0:	9400085d 	bl	86064 <uart_putc>
   83ef4:	b940dba0 	ldr	w0, [x29, #216]
   83ef8:	11000400 	add	w0, w0, #0x1
   83efc:	b900dba0 	str	w0, [x29, #216]
   83f00:	b940dba1 	ldr	w1, [x29, #216]
   83f04:	b940d7a0 	ldr	w0, [x29, #212]
   83f08:	6b00003f 	cmp	w1, w0
   83f0c:	54fffe8b 	b.lt	83edc <receiver+0x1ec>  // b.tstop
   83f10:	f0000020 	adrp	x0, 8a000 <vector_table_el1>
   83f14:	9138e001 	add	x1, x0, #0xe38
   83f18:	d2800020 	mov	x0, #0x1                   	// #1
   83f1c:	94000947 	bl	86438 <uart_printf>
   83f20:	b940a7a0 	ldr	w0, [x29, #164]
   83f24:	b940d7a2 	ldr	w2, [x29, #212]
   83f28:	f9405ba1 	ldr	x1, [x29, #176]
   83f2c:	9400122b 	bl	887d8 <Reply>
   83f30:	b900aba0 	str	w0, [x29, #168]
   83f34:	b940aba2 	ldr	w2, [x29, #168]
   83f38:	f0000020 	adrp	x0, 8a000 <vector_table_el1>
   83f3c:	91390001 	add	x1, x0, #0xe40
   83f40:	d2800020 	mov	x0, #0x1                   	// #1
   83f44:	9400093d 	bl	86438 <uart_printf>
   83f48:	94001255 	bl	8889c <Exit>
   83f4c:	9100027f 	mov	sp, x19
   83f50:	d503201f 	nop
   83f54:	910003bf 	mov	sp, x29
   83f58:	a94153f3 	ldp	x19, x20, [sp, #16]
   83f5c:	a9425bf5 	ldp	x21, x22, [sp, #32]
   83f60:	a94363f7 	ldp	x23, x24, [sp, #48]
   83f64:	a9446bf9 	ldp	x25, x26, [sp, #64]
   83f68:	f9402bfb 	ldr	x27, [sp, #80]
   83f6c:	a8ce7bfd 	ldp	x29, x30, [sp], #224
   83f70:	d65f03c0 	ret

0000000000083f74 <rockPlayer>:
   83f74:	a9be7bfd 	stp	x29, x30, [sp, #-32]!
   83f78:	910003fd 	mov	x29, sp
   83f7c:	94001227 	bl	88818 <MyTid>
   83f80:	b9001fe0 	str	w0, [sp, #28]
   83f84:	97fff867 	bl	82120 <signup>
   83f88:	f0000020 	adrp	x0, 8a000 <vector_table_el1>
   83f8c:	9139a000 	add	x0, x0, #0xe68
   83f90:	97fff895 	bl	821e4 <play>
   83f94:	12001c00 	and	w0, w0, #0xff
   83f98:	b9001be0 	str	w0, [sp, #24]
   83f9c:	b9401fe3 	ldr	w3, [sp, #28]
   83fa0:	52800022 	mov	w2, #0x1                   	// #1
   83fa4:	f0000020 	adrp	x0, 8a000 <vector_table_el1>
   83fa8:	9139c001 	add	x1, x0, #0xe70
   83fac:	d2800020 	mov	x0, #0x1                   	// #1
   83fb0:	94000922 	bl	86438 <uart_printf>
   83fb4:	b9401be0 	ldr	w0, [sp, #24]
   83fb8:	12001c00 	and	w0, w0, #0xff
   83fbc:	2a0003e1 	mov	w1, w0
   83fc0:	d2800020 	mov	x0, #0x1                   	// #1
   83fc4:	94000828 	bl	86064 <uart_putc>
   83fc8:	f0000020 	adrp	x0, 8a000 <vector_table_el1>
   83fcc:	9138e001 	add	x1, x0, #0xe38
   83fd0:	d2800020 	mov	x0, #0x1                   	// #1
   83fd4:	94000919 	bl	86438 <uart_printf>
   83fd8:	97fff86b 	bl	82184 <quit>
   83fdc:	94001230 	bl	8889c <Exit>
   83fe0:	d503201f 	nop
   83fe4:	a8c27bfd 	ldp	x29, x30, [sp], #32
   83fe8:	d65f03c0 	ret

0000000000083fec <k2ExecuteCommands>:
   83fec:	a9bb7bfd 	stp	x29, x30, [sp, #-80]!
   83ff0:	910003fd 	mov	x29, sp
   83ff4:	f90017e0 	str	x0, [sp, #40]
   83ff8:	f90013e1 	str	x1, [sp, #32]
   83ffc:	b9001fe2 	str	w2, [sp, #28]
   84000:	940011ff 	bl	887fc <MyPriority>
   84004:	b90047e0 	str	w0, [sp, #68]
   84008:	f94013e0 	ldr	x0, [sp, #32]
   8400c:	f9400002 	ldr	x2, [x0]
   84010:	d0000020 	adrp	x0, 8a000 <vector_table_el1>
   84014:	913a4001 	add	x1, x0, #0xe90
   84018:	aa0203e0 	mov	x0, x2
   8401c:	97fff3c0 	bl	80f1c <strcmp_ret>
   84020:	7100001f 	cmp	w0, #0x0
   84024:	54000100 	b.eq	84044 <k2ExecuteCommands+0x58>  // b.none
   84028:	94001224 	bl	888b8 <Yield>
   8402c:	d0000020 	adrp	x0, 8a000 <vector_table_el1>
   84030:	913a6001 	add	x1, x0, #0xe98
   84034:	d2800020 	mov	x0, #0x1                   	// #1
   84038:	94000900 	bl	86438 <uart_printf>
   8403c:	97fffe54 	bl	8398c <turnaroundTests>
   84040:	140000d8 	b	843a0 <k2ExecuteCommands+0x3b4>
   84044:	f94013e0 	ldr	x0, [sp, #32]
   84048:	f9400002 	ldr	x2, [x0]
   8404c:	d0000020 	adrp	x0, 8a000 <vector_table_el1>
   84050:	913b4001 	add	x1, x0, #0xed0
   84054:	aa0203e0 	mov	x0, x2
   84058:	97fff3b1 	bl	80f1c <strcmp_ret>
   8405c:	7100001f 	cmp	w0, #0x0
   84060:	540019c0 	b.eq	84398 <k2ExecuteCommands+0x3ac>  // b.none
   84064:	94001215 	bl	888b8 <Yield>
   84068:	f94013e0 	ldr	x0, [sp, #32]
   8406c:	91002000 	add	x0, x0, #0x8
   84070:	f9400002 	ldr	x2, [x0]
   84074:	d0000020 	adrp	x0, 8a000 <vector_table_el1>
   84078:	913b6001 	add	x1, x0, #0xed8
   8407c:	aa0203e0 	mov	x0, x2
   84080:	97fff3a7 	bl	80f1c <strcmp_ret>
   84084:	7100001f 	cmp	w0, #0x0
   84088:	54000180 	b.eq	840b8 <k2ExecuteCommands+0xcc>  // b.none
   8408c:	b0ffffe0 	adrp	x0, 81000 <strcat+0x58>
   84090:	91225001 	add	x1, x0, #0x894
   84094:	52800140 	mov	w0, #0xa                   	// #10
   84098:	940011e8 	bl	88838 <Create>
   8409c:	b90037e0 	str	w0, [sp, #52]
   840a0:	b94037e2 	ldr	w2, [sp, #52]
   840a4:	d0000020 	adrp	x0, 8a000 <vector_table_el1>
   840a8:	913b8001 	add	x1, x0, #0xee0
   840ac:	d2800020 	mov	x0, #0x1                   	// #1
   840b0:	940008e2 	bl	86438 <uart_printf>
   840b4:	140000bb 	b	843a0 <k2ExecuteCommands+0x3b4>
   840b8:	d0000020 	adrp	x0, 8a000 <vector_table_el1>
   840bc:	913c0000 	add	x0, x0, #0xf00
   840c0:	94000545 	bl	855d4 <WhoIs>
   840c4:	7100501f 	cmp	w0, #0x14
   840c8:	540000e1 	b.ne	840e4 <k2ExecuteCommands+0xf8>  // b.any
   840cc:	d0000020 	adrp	x0, 8a000 <vector_table_el1>
   840d0:	913c4001 	add	x1, x0, #0xf10
   840d4:	d2800020 	mov	x0, #0x1                   	// #1
   840d8:	940008d8 	bl	86438 <uart_printf>
   840dc:	52800000 	mov	w0, #0x0                   	// #0
   840e0:	140000b1 	b	843a4 <k2ExecuteCommands+0x3b8>
   840e4:	f94013e0 	ldr	x0, [sp, #32]
   840e8:	91002000 	add	x0, x0, #0x8
   840ec:	f9400002 	ldr	x2, [x0]
   840f0:	d0000020 	adrp	x0, 8a000 <vector_table_el1>
   840f4:	913d8001 	add	x1, x0, #0xf60
   840f8:	aa0203e0 	mov	x0, x2
   840fc:	97fff388 	bl	80f1c <strcmp_ret>
   84100:	7100001f 	cmp	w0, #0x0
   84104:	540000e0 	b.eq	84120 <k2ExecuteCommands+0x134>  // b.none
   84108:	d0000020 	adrp	x0, 8a000 <vector_table_el1>
   8410c:	913dc001 	add	x1, x0, #0xf70
   84110:	d2800020 	mov	x0, #0x1                   	// #1
   84114:	940008c9 	bl	86438 <uart_printf>
   84118:	97fff846 	bl	82230 <RPCShutdown>
   8411c:	140000a1 	b	843a0 <k2ExecuteCommands+0x3b4>
   84120:	f94013e0 	ldr	x0, [sp, #32]
   84124:	91002000 	add	x0, x0, #0x8
   84128:	f9400002 	ldr	x2, [x0]
   8412c:	d0000020 	adrp	x0, 8a000 <vector_table_el1>
   84130:	913ea001 	add	x1, x0, #0xfa8
   84134:	aa0203e0 	mov	x0, x2
   84138:	97fff379 	bl	80f1c <strcmp_ret>
   8413c:	7100001f 	cmp	w0, #0x0
   84140:	54000b00 	b.eq	842a0 <k2ExecuteCommands+0x2b4>  // b.none
   84144:	b9401fe0 	ldr	w0, [sp, #28]
   84148:	7100101f 	cmp	w0, #0x4
   8414c:	540000e0 	b.eq	84168 <k2ExecuteCommands+0x17c>  // b.none
   84150:	d0000020 	adrp	x0, 8a000 <vector_table_el1>
   84154:	913ec001 	add	x1, x0, #0xfb0
   84158:	d2800020 	mov	x0, #0x1                   	// #1
   8415c:	940008b7 	bl	86438 <uart_printf>
   84160:	52800000 	mov	w0, #0x0                   	// #0
   84164:	14000090 	b	843a4 <k2ExecuteCommands+0x3b8>
   84168:	f94013e0 	ldr	x0, [sp, #32]
   8416c:	91004000 	add	x0, x0, #0x10
   84170:	f9400000 	ldr	x0, [x0]
   84174:	97fff2f3 	bl	80d40 <atoi>
   84178:	f9001fe0 	str	x0, [sp, #56]
   8417c:	f9401fe0 	ldr	x0, [sp, #56]
   84180:	f100281f 	cmp	x0, #0xa
   84184:	540000e9 	b.ls	841a0 <k2ExecuteCommands+0x1b4>  // b.plast
   84188:	f9401fe2 	ldr	x2, [sp, #56]
   8418c:	d0000020 	adrp	x0, 8a000 <vector_table_el1>
   84190:	913fc001 	add	x1, x0, #0xff0
   84194:	d2800020 	mov	x0, #0x1                   	// #1
   84198:	940008a8 	bl	86438 <uart_printf>
   8419c:	14000082 	b	843a4 <k2ExecuteCommands+0x3b8>
   841a0:	f94013e0 	ldr	x0, [sp, #32]
   841a4:	91006000 	add	x0, x0, #0x18
   841a8:	f9400002 	ldr	x2, [x0]
   841ac:	d0000020 	adrp	x0, 8a000 <vector_table_el1>
   841b0:	9139a001 	add	x1, x0, #0xe68
   841b4:	aa0203e0 	mov	x0, x2
   841b8:	97fff359 	bl	80f1c <strcmp_ret>
   841bc:	7100001f 	cmp	w0, #0x0
   841c0:	54000060 	b.eq	841cc <k2ExecuteCommands+0x1e0>  // b.none
   841c4:	f90027ff 	str	xzr, [sp, #72]
   841c8:	1400002f 	b	84284 <k2ExecuteCommands+0x298>
   841cc:	f94013e0 	ldr	x0, [sp, #32]
   841d0:	91006000 	add	x0, x0, #0x18
   841d4:	f9400002 	ldr	x2, [x0]
   841d8:	f0000020 	adrp	x0, 8b000 <el1_a32_serror+0x880>
   841dc:	91004001 	add	x1, x0, #0x10
   841e0:	aa0203e0 	mov	x0, x2
   841e4:	97fff34e 	bl	80f1c <strcmp_ret>
   841e8:	7100001f 	cmp	w0, #0x0
   841ec:	54000080 	b.eq	841fc <k2ExecuteCommands+0x210>  // b.none
   841f0:	d2800020 	mov	x0, #0x1                   	// #1
   841f4:	f90027e0 	str	x0, [sp, #72]
   841f8:	14000023 	b	84284 <k2ExecuteCommands+0x298>
   841fc:	f94013e0 	ldr	x0, [sp, #32]
   84200:	91006000 	add	x0, x0, #0x18
   84204:	f9400002 	ldr	x2, [x0]
   84208:	f0000020 	adrp	x0, 8b000 <el1_a32_serror+0x880>
   8420c:	91006001 	add	x1, x0, #0x18
   84210:	aa0203e0 	mov	x0, x2
   84214:	97fff342 	bl	80f1c <strcmp_ret>
   84218:	7100001f 	cmp	w0, #0x0
   8421c:	54000080 	b.eq	8422c <k2ExecuteCommands+0x240>  // b.none
   84220:	d2800040 	mov	x0, #0x2                   	// #2
   84224:	f90027e0 	str	x0, [sp, #72]
   84228:	14000017 	b	84284 <k2ExecuteCommands+0x298>
   8422c:	f94013e0 	ldr	x0, [sp, #32]
   84230:	91006000 	add	x0, x0, #0x18
   84234:	f9400002 	ldr	x2, [x0]
   84238:	f0000020 	adrp	x0, 8b000 <el1_a32_serror+0x880>
   8423c:	9100a001 	add	x1, x0, #0x28
   84240:	aa0203e0 	mov	x0, x2
   84244:	97fff336 	bl	80f1c <strcmp_ret>
   84248:	7100001f 	cmp	w0, #0x0
   8424c:	54000080 	b.eq	8425c <k2ExecuteCommands+0x270>  // b.none
   84250:	d2800060 	mov	x0, #0x3                   	// #3
   84254:	f90027e0 	str	x0, [sp, #72]
   84258:	1400000b 	b	84284 <k2ExecuteCommands+0x298>
   8425c:	f94013e0 	ldr	x0, [sp, #32]
   84260:	91006000 	add	x0, x0, #0x18
   84264:	f9400000 	ldr	x0, [x0]
   84268:	aa0003e2 	mov	x2, x0
   8426c:	f0000020 	adrp	x0, 8b000 <el1_a32_serror+0x880>
   84270:	9100c001 	add	x1, x0, #0x30
   84274:	d2800020 	mov	x0, #0x1                   	// #1
   84278:	94000870 	bl	86438 <uart_printf>
   8427c:	52800000 	mov	w0, #0x0                   	// #0
   84280:	14000049 	b	843a4 <k2ExecuteCommands+0x3b8>
   84284:	b94047e0 	ldr	w0, [sp, #68]
   84288:	11000400 	add	w0, w0, #0x1
   8428c:	2a0003e2 	mov	w2, w0
   84290:	f94027e1 	ldr	x1, [sp, #72]
   84294:	f9401fe0 	ldr	x0, [sp, #56]
   84298:	9400016e 	bl	84850 <initPlayer>
   8429c:	14000041 	b	843a0 <k2ExecuteCommands+0x3b4>
   842a0:	f94013e0 	ldr	x0, [sp, #32]
   842a4:	91002000 	add	x0, x0, #0x8
   842a8:	f9400002 	ldr	x2, [x0]
   842ac:	f0000020 	adrp	x0, 8b000 <el1_a32_serror+0x880>
   842b0:	91016001 	add	x1, x0, #0x58
   842b4:	aa0203e0 	mov	x0, x2
   842b8:	97fff319 	bl	80f1c <strcmp_ret>
   842bc:	7100001f 	cmp	w0, #0x0
   842c0:	54000360 	b.eq	8432c <k2ExecuteCommands+0x340>  // b.none
   842c4:	f94013e0 	ldr	x0, [sp, #32]
   842c8:	91004000 	add	x0, x0, #0x10
   842cc:	f9400000 	ldr	x0, [x0]
   842d0:	97fff7c5 	bl	821e4 <play>
   842d4:	39010fe0 	strb	w0, [sp, #67]
   842d8:	39410fe0 	ldrb	w0, [sp, #67]
   842dc:	7101141f 	cmp	w0, #0x45
   842e0:	540000e1 	b.ne	842fc <k2ExecuteCommands+0x310>  // b.any
   842e4:	f0000020 	adrp	x0, 8b000 <el1_a32_serror+0x880>
   842e8:	91018001 	add	x1, x0, #0x60
   842ec:	d2800020 	mov	x0, #0x1                   	// #1
   842f0:	94000852 	bl	86438 <uart_printf>
   842f4:	52800000 	mov	w0, #0x0                   	// #0
   842f8:	1400002b 	b	843a4 <k2ExecuteCommands+0x3b8>
   842fc:	f0000020 	adrp	x0, 8b000 <el1_a32_serror+0x880>
   84300:	91028001 	add	x1, x0, #0xa0
   84304:	d2800020 	mov	x0, #0x1                   	// #1
   84308:	9400084c 	bl	86438 <uart_printf>
   8430c:	39410fe1 	ldrb	w1, [sp, #67]
   84310:	d2800020 	mov	x0, #0x1                   	// #1
   84314:	94000754 	bl	86064 <uart_putc>
   84318:	d0000020 	adrp	x0, 8a000 <vector_table_el1>
   8431c:	9138e001 	add	x1, x0, #0xe38
   84320:	d2800020 	mov	x0, #0x1                   	// #1
   84324:	94000845 	bl	86438 <uart_printf>
   84328:	1400001e 	b	843a0 <k2ExecuteCommands+0x3b4>
   8432c:	f94013e0 	ldr	x0, [sp, #32]
   84330:	91002000 	add	x0, x0, #0x8
   84334:	f9400002 	ldr	x2, [x0]
   84338:	f0000020 	adrp	x0, 8b000 <el1_a32_serror+0x880>
   8433c:	9102c001 	add	x1, x0, #0xb0
   84340:	aa0203e0 	mov	x0, x2
   84344:	97fff2f6 	bl	80f1c <strcmp_ret>
   84348:	7100001f 	cmp	w0, #0x0
   8434c:	54000060 	b.eq	84358 <k2ExecuteCommands+0x36c>  // b.none
   84350:	97fff774 	bl	82120 <signup>
   84354:	14000013 	b	843a0 <k2ExecuteCommands+0x3b4>
   84358:	f94013e0 	ldr	x0, [sp, #32]
   8435c:	91002000 	add	x0, x0, #0x8
   84360:	f9400002 	ldr	x2, [x0]
   84364:	f0000020 	adrp	x0, 8b000 <el1_a32_serror+0x880>
   84368:	9102e001 	add	x1, x0, #0xb8
   8436c:	aa0203e0 	mov	x0, x2
   84370:	97fff2eb 	bl	80f1c <strcmp_ret>
   84374:	7100001f 	cmp	w0, #0x0
   84378:	54000060 	b.eq	84384 <k2ExecuteCommands+0x398>  // b.none
   8437c:	97fff782 	bl	82184 <quit>
   84380:	14000008 	b	843a0 <k2ExecuteCommands+0x3b4>
   84384:	f0000020 	adrp	x0, 8b000 <el1_a32_serror+0x880>
   84388:	91030001 	add	x1, x0, #0xc0
   8438c:	d2800020 	mov	x0, #0x1                   	// #1
   84390:	9400082a 	bl	86438 <uart_printf>
   84394:	14000003 	b	843a0 <k2ExecuteCommands+0x3b4>
   84398:	12800000 	mov	w0, #0xffffffff            	// #-1
   8439c:	14000002 	b	843a4 <k2ExecuteCommands+0x3b8>
   843a0:	52800020 	mov	w0, #0x1                   	// #1
   843a4:	a8c57bfd 	ldp	x29, x30, [sp], #80
   843a8:	d65f03c0 	ret

00000000000843ac <k2FirstUserTask>:
   843ac:	a9be7bfd 	stp	x29, x30, [sp, #-32]!
   843b0:	910003fd 	mov	x29, sp
   843b4:	f0000020 	adrp	x0, 8b000 <el1_a32_serror+0x880>
   843b8:	9103a000 	add	x0, x0, #0xe8
   843bc:	9400043e 	bl	854b4 <RegisterAs>
   843c0:	b0ffffe0 	adrp	x0, 81000 <strcat+0x58>
   843c4:	91225001 	add	x1, x0, #0x894
   843c8:	52800040 	mov	w0, #0x2                   	// #2
   843cc:	9400111b 	bl	88838 <Create>
   843d0:	b9001fe0 	str	w0, [sp, #28]
   843d4:	52800042 	mov	w2, #0x2                   	// #2
   843d8:	52800001 	mov	w1, #0x0                   	// #0
   843dc:	52800020 	mov	w0, #0x1                   	// #1
   843e0:	9400011c 	bl	84850 <initPlayer>
   843e4:	52800042 	mov	w2, #0x2                   	// #2
   843e8:	52800021 	mov	w1, #0x1                   	// #1
   843ec:	52800020 	mov	w0, #0x1                   	// #1
   843f0:	94000118 	bl	84850 <initPlayer>
   843f4:	97fff78f 	bl	82230 <RPCShutdown>
   843f8:	b0000000 	adrp	x0, 85000 <myfree+0x1a8>
   843fc:	91192001 	add	x1, x0, #0x648
   84400:	52800020 	mov	w0, #0x1                   	// #1
   84404:	9400110d 	bl	88838 <Create>
   84408:	94001125 	bl	8889c <Exit>
   8440c:	d503201f 	nop
   84410:	a8c27bfd 	ldp	x29, x30, [sp], #32
   84414:	d65f03c0 	ret

0000000000084418 <rock_play>:
   84418:	a9bd7bfd 	stp	x29, x30, [sp, #-48]!
   8441c:	910003fd 	mov	x29, sp
   84420:	b9001fe0 	str	w0, [sp, #28]
   84424:	b9001be1 	str	w1, [sp, #24]
   84428:	f0000020 	adrp	x0, 8b000 <el1_a32_serror+0x880>
   8442c:	9103e000 	add	x0, x0, #0xf8
   84430:	97fff76d 	bl	821e4 <play>
   84434:	3900bfe0 	strb	w0, [sp, #47]
   84438:	b9401be3 	ldr	w3, [sp, #24]
   8443c:	b9401fe2 	ldr	w2, [sp, #28]
   84440:	f0000020 	adrp	x0, 8b000 <el1_a32_serror+0x880>
   84444:	91040001 	add	x1, x0, #0x100
   84448:	d2800020 	mov	x0, #0x1                   	// #1
   8444c:	940007fb 	bl	86438 <uart_printf>
   84450:	3940bfe1 	ldrb	w1, [sp, #47]
   84454:	d2800020 	mov	x0, #0x1                   	// #1
   84458:	94000703 	bl	86064 <uart_putc>
   8445c:	f0000020 	adrp	x0, 8b000 <el1_a32_serror+0x880>
   84460:	91048001 	add	x1, x0, #0x120
   84464:	d2800020 	mov	x0, #0x1                   	// #1
   84468:	940007f4 	bl	86438 <uart_printf>
   8446c:	3940bfe0 	ldrb	w0, [sp, #47]
   84470:	a8c37bfd 	ldp	x29, x30, [sp], #48
   84474:	d65f03c0 	ret

0000000000084478 <paper_play>:
   84478:	a9bd7bfd 	stp	x29, x30, [sp, #-48]!
   8447c:	910003fd 	mov	x29, sp
   84480:	b9001fe0 	str	w0, [sp, #28]
   84484:	b9001be1 	str	w1, [sp, #24]
   84488:	f0000020 	adrp	x0, 8b000 <el1_a32_serror+0x880>
   8448c:	9104a000 	add	x0, x0, #0x128
   84490:	97fff755 	bl	821e4 <play>
   84494:	3900bfe0 	strb	w0, [sp, #47]
   84498:	b9401be3 	ldr	w3, [sp, #24]
   8449c:	b9401fe2 	ldr	w2, [sp, #28]
   844a0:	f0000020 	adrp	x0, 8b000 <el1_a32_serror+0x880>
   844a4:	9104c001 	add	x1, x0, #0x130
   844a8:	d2800020 	mov	x0, #0x1                   	// #1
   844ac:	940007e3 	bl	86438 <uart_printf>
   844b0:	3940bfe1 	ldrb	w1, [sp, #47]
   844b4:	d2800020 	mov	x0, #0x1                   	// #1
   844b8:	940006eb 	bl	86064 <uart_putc>
   844bc:	f0000020 	adrp	x0, 8b000 <el1_a32_serror+0x880>
   844c0:	91048001 	add	x1, x0, #0x120
   844c4:	d2800020 	mov	x0, #0x1                   	// #1
   844c8:	940007dc 	bl	86438 <uart_printf>
   844cc:	3940bfe0 	ldrb	w0, [sp, #47]
   844d0:	a8c37bfd 	ldp	x29, x30, [sp], #48
   844d4:	d65f03c0 	ret

00000000000844d8 <scissors_play>:
   844d8:	a9bd7bfd 	stp	x29, x30, [sp, #-48]!
   844dc:	910003fd 	mov	x29, sp
   844e0:	b9001fe0 	str	w0, [sp, #28]
   844e4:	b9001be1 	str	w1, [sp, #24]
   844e8:	f0000020 	adrp	x0, 8b000 <el1_a32_serror+0x880>
   844ec:	91054000 	add	x0, x0, #0x150
   844f0:	97fff73d 	bl	821e4 <play>
   844f4:	3900bfe0 	strb	w0, [sp, #47]
   844f8:	b9401be3 	ldr	w3, [sp, #24]
   844fc:	b9401fe2 	ldr	w2, [sp, #28]
   84500:	f0000020 	adrp	x0, 8b000 <el1_a32_serror+0x880>
   84504:	9104c001 	add	x1, x0, #0x130
   84508:	d2800020 	mov	x0, #0x1                   	// #1
   8450c:	940007cb 	bl	86438 <uart_printf>
   84510:	3940bfe1 	ldrb	w1, [sp, #47]
   84514:	d2800020 	mov	x0, #0x1                   	// #1
   84518:	940006d3 	bl	86064 <uart_putc>
   8451c:	f0000020 	adrp	x0, 8b000 <el1_a32_serror+0x880>
   84520:	91048001 	add	x1, x0, #0x120
   84524:	d2800020 	mov	x0, #0x1                   	// #1
   84528:	940007c4 	bl	86438 <uart_printf>
   8452c:	3940bfe0 	ldrb	w0, [sp, #47]
   84530:	a8c37bfd 	ldp	x29, x30, [sp], #48
   84534:	d65f03c0 	ret

0000000000084538 <random_play>:
   84538:	a9bd7bfd 	stp	x29, x30, [sp, #-48]!
   8453c:	910003fd 	mov	x29, sp
   84540:	b9001fe0 	str	w0, [sp, #28]
   84544:	b9001be1 	str	w1, [sp, #24]
   84548:	940010df 	bl	888c4 <get_timerLO>
   8454c:	b9002be0 	str	w0, [sp, #40]
   84550:	52800400 	mov	w0, #0x20                  	// #32
   84554:	3900bfe0 	strb	w0, [sp, #47]
   84558:	b9402be2 	ldr	w2, [sp, #40]
   8455c:	52955560 	mov	w0, #0xaaab                	// #43691
   84560:	72b55540 	movk	w0, #0xaaaa, lsl #16
   84564:	9ba07c40 	umull	x0, w2, w0
   84568:	d360fc00 	lsr	x0, x0, #32
   8456c:	53017c01 	lsr	w1, w0, #1
   84570:	2a0103e0 	mov	w0, w1
   84574:	531f7800 	lsl	w0, w0, #1
   84578:	0b010000 	add	w0, w0, w1
   8457c:	4b000041 	sub	w1, w2, w0
   84580:	7100003f 	cmp	w1, #0x0
   84584:	540000c1 	b.ne	8459c <random_play+0x64>  // b.any
   84588:	f0000020 	adrp	x0, 8b000 <el1_a32_serror+0x880>
   8458c:	9103e000 	add	x0, x0, #0xf8
   84590:	97fff715 	bl	821e4 <play>
   84594:	3900bfe0 	strb	w0, [sp, #47]
   84598:	14000022 	b	84620 <random_play+0xe8>
   8459c:	b9402be2 	ldr	w2, [sp, #40]
   845a0:	52955560 	mov	w0, #0xaaab                	// #43691
   845a4:	72b55540 	movk	w0, #0xaaaa, lsl #16
   845a8:	9ba07c40 	umull	x0, w2, w0
   845ac:	d360fc00 	lsr	x0, x0, #32
   845b0:	53017c01 	lsr	w1, w0, #1
   845b4:	2a0103e0 	mov	w0, w1
   845b8:	531f7800 	lsl	w0, w0, #1
   845bc:	0b010000 	add	w0, w0, w1
   845c0:	4b000041 	sub	w1, w2, w0
   845c4:	7100043f 	cmp	w1, #0x1
   845c8:	540000c1 	b.ne	845e0 <random_play+0xa8>  // b.any
   845cc:	f0000020 	adrp	x0, 8b000 <el1_a32_serror+0x880>
   845d0:	9104a000 	add	x0, x0, #0x128
   845d4:	97fff704 	bl	821e4 <play>
   845d8:	3900bfe0 	strb	w0, [sp, #47]
   845dc:	14000011 	b	84620 <random_play+0xe8>
   845e0:	b9402be2 	ldr	w2, [sp, #40]
   845e4:	52955560 	mov	w0, #0xaaab                	// #43691
   845e8:	72b55540 	movk	w0, #0xaaaa, lsl #16
   845ec:	9ba07c40 	umull	x0, w2, w0
   845f0:	d360fc00 	lsr	x0, x0, #32
   845f4:	53017c01 	lsr	w1, w0, #1
   845f8:	2a0103e0 	mov	w0, w1
   845fc:	531f7800 	lsl	w0, w0, #1
   84600:	0b010000 	add	w0, w0, w1
   84604:	4b000041 	sub	w1, w2, w0
   84608:	7100083f 	cmp	w1, #0x2
   8460c:	540000a1 	b.ne	84620 <random_play+0xe8>  // b.any
   84610:	f0000020 	adrp	x0, 8b000 <el1_a32_serror+0x880>
   84614:	91054000 	add	x0, x0, #0x150
   84618:	97fff6f3 	bl	821e4 <play>
   8461c:	3900bfe0 	strb	w0, [sp, #47]
   84620:	b9401be3 	ldr	w3, [sp, #24]
   84624:	b9401fe2 	ldr	w2, [sp, #28]
   84628:	f0000020 	adrp	x0, 8b000 <el1_a32_serror+0x880>
   8462c:	9104c001 	add	x1, x0, #0x130
   84630:	d2800020 	mov	x0, #0x1                   	// #1
   84634:	94000781 	bl	86438 <uart_printf>
   84638:	3940bfe1 	ldrb	w1, [sp, #47]
   8463c:	d2800020 	mov	x0, #0x1                   	// #1
   84640:	94000689 	bl	86064 <uart_putc>
   84644:	f0000020 	adrp	x0, 8b000 <el1_a32_serror+0x880>
   84648:	91048001 	add	x1, x0, #0x120
   8464c:	d2800020 	mov	x0, #0x1                   	// #1
   84650:	9400077a 	bl	86438 <uart_printf>
   84654:	3940bfe0 	ldrb	w0, [sp, #47]
   84658:	a8c37bfd 	ldp	x29, x30, [sp], #48
   8465c:	d65f03c0 	ret

0000000000084660 <function_stack>:
   84660:	a9bd7bfd 	stp	x29, x30, [sp, #-48]!
   84664:	910003fd 	mov	x29, sp
   84668:	f90017e0 	str	x0, [sp, #40]
   8466c:	f90013e1 	str	x1, [sp, #32]
   84670:	f9000fe2 	str	x2, [sp, #24]
   84674:	f9400fe0 	ldr	x0, [sp, #24]
   84678:	f100001f 	cmp	x0, #0x0
   8467c:	54000081 	b.ne	8468c <function_stack+0x2c>  // b.any
   84680:	f94013e0 	ldr	x0, [sp, #32]
   84684:	12001c00 	and	w0, w0, #0xff
   84688:	14000022 	b	84710 <function_stack+0xb0>
   8468c:	f9400fe0 	ldr	x0, [sp, #24]
   84690:	f100041f 	cmp	x0, #0x1
   84694:	54000121 	b.ne	846b8 <function_stack+0x58>  // b.any
   84698:	f94017e0 	ldr	x0, [sp, #40]
   8469c:	2a0003e2 	mov	w2, w0
   846a0:	f94013e0 	ldr	x0, [sp, #32]
   846a4:	2a0003e1 	mov	w1, w0
   846a8:	2a0203e0 	mov	w0, w2
   846ac:	97ffff73 	bl	84478 <paper_play>
   846b0:	12001c00 	and	w0, w0, #0xff
   846b4:	14000017 	b	84710 <function_stack+0xb0>
   846b8:	f9400fe0 	ldr	x0, [sp, #24]
   846bc:	f100081f 	cmp	x0, #0x2
   846c0:	54000121 	b.ne	846e4 <function_stack+0x84>  // b.any
   846c4:	f94017e0 	ldr	x0, [sp, #40]
   846c8:	2a0003e2 	mov	w2, w0
   846cc:	f94013e0 	ldr	x0, [sp, #32]
   846d0:	2a0003e1 	mov	w1, w0
   846d4:	2a0203e0 	mov	w0, w2
   846d8:	97ffff80 	bl	844d8 <scissors_play>
   846dc:	12001c00 	and	w0, w0, #0xff
   846e0:	1400000c 	b	84710 <function_stack+0xb0>
   846e4:	f9400fe0 	ldr	x0, [sp, #24]
   846e8:	f1000c1f 	cmp	x0, #0x3
   846ec:	54000121 	b.ne	84710 <function_stack+0xb0>  // b.any
   846f0:	f94017e0 	ldr	x0, [sp, #40]
   846f4:	2a0003e2 	mov	w2, w0
   846f8:	f94013e0 	ldr	x0, [sp, #32]
   846fc:	2a0003e1 	mov	w1, w0
   84700:	2a0203e0 	mov	w0, w2
   84704:	97ffff8d 	bl	84538 <random_play>
   84708:	12001c00 	and	w0, w0, #0xff
   8470c:	14000001 	b	84710 <function_stack+0xb0>
   84710:	a8c37bfd 	ldp	x29, x30, [sp], #48
   84714:	d65f03c0 	ret

0000000000084718 <player>:
   84718:	a9b67bfd 	stp	x29, x30, [sp, #-160]!
   8471c:	910003fd 	mov	x29, sp
   84720:	9400103e 	bl	88818 <MyTid>
   84724:	b9007fe0 	str	w0, [sp, #124]
   84728:	52800640 	mov	w0, #0x32                  	// #50
   8472c:	b90097e0 	str	w0, [sp, #148]
   84730:	d28d8e00 	mov	x0, #0x6c70                	// #27760
   84734:	f2af2c20 	movk	x0, #0x7961, lsl #16
   84738:	f2ce4ca0 	movk	x0, #0x7265, lsl #32
   8473c:	f2e005a0 	movk	x0, #0x2d, lsl #48
   84740:	d2800001 	mov	x1, #0x0                   	// #0
   84744:	a90107e0 	stp	x0, x1, [sp, #16]
   84748:	a9027fff 	stp	xzr, xzr, [sp, #32]
   8474c:	a9037fff 	stp	xzr, xzr, [sp, #48]
   84750:	790083ff 	strh	wzr, [sp, #64]
   84754:	b9407fe0 	ldr	w0, [sp, #124]
   84758:	2a0003e3 	mov	w3, w0
   8475c:	910123e0 	add	x0, sp, #0x48
   84760:	aa0003e2 	mov	x2, x0
   84764:	52800141 	mov	w1, #0xa                   	// #10
   84768:	2a0303e0 	mov	w0, w3
   8476c:	940010b5 	bl	88a40 <ui2a>
   84770:	910123e1 	add	x1, sp, #0x48
   84774:	910043e0 	add	x0, sp, #0x10
   84778:	97fff20c 	bl	80fa8 <strcat>
   8477c:	910043e0 	add	x0, sp, #0x10
   84780:	aa0003e2 	mov	x2, x0
   84784:	f0000020 	adrp	x0, 8b000 <el1_a32_serror+0x880>
   84788:	91058001 	add	x1, x0, #0x160
   8478c:	d2800020 	mov	x0, #0x1                   	// #1
   84790:	9400072a 	bl	86438 <uart_printf>
   84794:	910043e0 	add	x0, sp, #0x10
   84798:	94000347 	bl	854b4 <RegisterAs>
   8479c:	910043e1 	add	x1, sp, #0x10
   847a0:	9101f3e0 	add	x0, sp, #0x7c
   847a4:	52800042 	mov	w2, #0x2                   	// #2
   847a8:	94001003 	bl	887b4 <Receive>
   847ac:	394043e0 	ldrb	w0, [sp, #16]
   847b0:	92401c00 	and	x0, x0, #0xff
   847b4:	f90047e0 	str	x0, [sp, #136]
   847b8:	394047e0 	ldrb	w0, [sp, #17]
   847bc:	92401c00 	and	x0, x0, #0xff
   847c0:	f90043e0 	str	x0, [sp, #128]
   847c4:	b9407fe0 	ldr	w0, [sp, #124]
   847c8:	910043e1 	add	x1, sp, #0x10
   847cc:	52800042 	mov	w2, #0x2                   	// #2
   847d0:	94001002 	bl	887d8 <Reply>
   847d4:	f94047e3 	ldr	x3, [sp, #136]
   847d8:	f94043e2 	ldr	x2, [sp, #128]
   847dc:	f0000020 	adrp	x0, 8b000 <el1_a32_serror+0x880>
   847e0:	9105c001 	add	x1, x0, #0x170
   847e4:	d2800020 	mov	x0, #0x1                   	// #1
   847e8:	94000714 	bl	86438 <uart_printf>
   847ec:	97fff64d 	bl	82120 <signup>
   847f0:	f9004fff 	str	xzr, [sp, #152]
   847f4:	1400000e 	b	8482c <player+0x114>
   847f8:	b9407fe0 	ldr	w0, [sp, #124]
   847fc:	93407c00 	sxtw	x0, w0
   84800:	f94043e2 	ldr	x2, [sp, #128]
   84804:	aa0003e1 	mov	x1, x0
   84808:	f9404fe0 	ldr	x0, [sp, #152]
   8480c:	97ffff95 	bl	84660 <function_stack>
   84810:	12001c00 	and	w0, w0, #0xff
   84814:	71012c1f 	cmp	w0, #0x4b
   84818:	54000041 	b.ne	84820 <player+0x108>  // b.any
   8481c:	94001020 	bl	8889c <Exit>
   84820:	f9404fe0 	ldr	x0, [sp, #152]
   84824:	91000400 	add	x0, x0, #0x1
   84828:	f9004fe0 	str	x0, [sp, #152]
   8482c:	f9404fe1 	ldr	x1, [sp, #152]
   84830:	f94047e0 	ldr	x0, [sp, #136]
   84834:	eb00003f 	cmp	x1, x0
   84838:	54fffe03 	b.cc	847f8 <player+0xe0>  // b.lo, b.ul, b.last
   8483c:	97fff652 	bl	82184 <quit>
   84840:	94001017 	bl	8889c <Exit>
   84844:	d503201f 	nop
   84848:	a8ca7bfd 	ldp	x29, x30, [sp], #160
   8484c:	d65f03c0 	ret

0000000000084850 <initPlayer>:
   84850:	a9b97bfd 	stp	x29, x30, [sp, #-112]!
   84854:	910003fd 	mov	x29, sp
   84858:	f90017e0 	str	x0, [sp, #40]
   8485c:	f90013e1 	str	x1, [sp, #32]
   84860:	b9001fe2 	str	w2, [sp, #28]
   84864:	90000000 	adrp	x0, 84000 <k2ExecuteCommands+0x14>
   84868:	911c6001 	add	x1, x0, #0x718
   8486c:	b9401fe0 	ldr	w0, [sp, #28]
   84870:	94000ff2 	bl	88838 <Create>
   84874:	b9006fe0 	str	w0, [sp, #108]
   84878:	52800640 	mov	w0, #0x32                  	// #50
   8487c:	b9006be0 	str	w0, [sp, #104]
   84880:	f94017e0 	ldr	x0, [sp, #40]
   84884:	12001c00 	and	w0, w0, #0xff
   84888:	3900c3e0 	strb	w0, [sp, #48]
   8488c:	f94013e0 	ldr	x0, [sp, #32]
   84890:	12001c00 	and	w0, w0, #0xff
   84894:	3900c7e0 	strb	w0, [sp, #49]
   84898:	9100c3e1 	add	x1, sp, #0x30
   8489c:	9100c3e0 	add	x0, sp, #0x30
   848a0:	52800044 	mov	w4, #0x2                   	// #2
   848a4:	aa0103e3 	mov	x3, x1
   848a8:	52800042 	mov	w2, #0x2                   	// #2
   848ac:	aa0003e1 	mov	x1, x0
   848b0:	b9406fe0 	ldr	w0, [sp, #108]
   848b4:	94000fb5 	bl	88788 <Send>
   848b8:	d503201f 	nop
   848bc:	a8c77bfd 	ldp	x29, x30, [sp], #112
   848c0:	d65f03c0 	ret

00000000000848c4 <k3ExecuteCommands>:
   848c4:	a9bc7bfd 	stp	x29, x30, [sp, #-64]!
   848c8:	910003fd 	mov	x29, sp
   848cc:	f90017e0 	str	x0, [sp, #40]
   848d0:	f90013e1 	str	x1, [sp, #32]
   848d4:	b9001fe2 	str	w2, [sp, #28]
   848d8:	f94013e0 	ldr	x0, [sp, #32]
   848dc:	f9400002 	ldr	x2, [x0]
   848e0:	f0000020 	adrp	x0, 8b000 <el1_a32_serror+0x880>
   848e4:	91064001 	add	x1, x0, #0x190
   848e8:	aa0203e0 	mov	x0, x2
   848ec:	97fff18c 	bl	80f1c <strcmp_ret>
   848f0:	7100001f 	cmp	w0, #0x0
   848f4:	54000160 	b.eq	84920 <k3ExecuteCommands+0x5c>  // b.none
   848f8:	f0000020 	adrp	x0, 8b000 <el1_a32_serror+0x880>
   848fc:	91066000 	add	x0, x0, #0x198
   84900:	94000335 	bl	855d4 <WhoIs>
   84904:	97fff072 	bl	80acc <Time>
   84908:	2a0003e2 	mov	w2, w0
   8490c:	f0000020 	adrp	x0, 8b000 <el1_a32_serror+0x880>
   84910:	9106a001 	add	x1, x0, #0x1a8
   84914:	d2800020 	mov	x0, #0x1                   	// #1
   84918:	940006c8 	bl	86438 <uart_printf>
   8491c:	14000032 	b	849e4 <k3ExecuteCommands+0x120>
   84920:	f94013e0 	ldr	x0, [sp, #32]
   84924:	f9400002 	ldr	x2, [x0]
   84928:	f0000020 	adrp	x0, 8b000 <el1_a32_serror+0x880>
   8492c:	91070001 	add	x1, x0, #0x1c0
   84930:	aa0203e0 	mov	x0, x2
   84934:	97fff17a 	bl	80f1c <strcmp_ret>
   84938:	7100001f 	cmp	w0, #0x0
   8493c:	540002c0 	b.eq	84994 <k3ExecuteCommands+0xd0>  // b.none
   84940:	b9401fe0 	ldr	w0, [sp, #28]
   84944:	71000c1f 	cmp	w0, #0x3
   84948:	54000100 	b.eq	84968 <k3ExecuteCommands+0xa4>  // b.none
   8494c:	b9401fe2 	ldr	w2, [sp, #28]
   84950:	f0000020 	adrp	x0, 8b000 <el1_a32_serror+0x880>
   84954:	91072001 	add	x1, x0, #0x1c8
   84958:	d2800020 	mov	x0, #0x1                   	// #1
   8495c:	940006b7 	bl	86438 <uart_printf>
   84960:	52800000 	mov	w0, #0x0                   	// #0
   84964:	14000021 	b	849e8 <k3ExecuteCommands+0x124>
   84968:	f94013e0 	ldr	x0, [sp, #32]
   8496c:	91004000 	add	x0, x0, #0x10
   84970:	f9400000 	ldr	x0, [x0]
   84974:	97fff0f3 	bl	80d40 <atoi>
   84978:	b9003fe0 	str	w0, [sp, #60]
   8497c:	f94013e0 	ldr	x0, [sp, #32]
   84980:	91002000 	add	x0, x0, #0x8
   84984:	f9400000 	ldr	x0, [x0]
   84988:	b9403fe1 	ldr	w1, [sp, #60]
   8498c:	9400006b 	bl	84b38 <init_clock_proc>
   84990:	14000015 	b	849e4 <k3ExecuteCommands+0x120>
   84994:	f94013e0 	ldr	x0, [sp, #32]
   84998:	f9400002 	ldr	x2, [x0]
   8499c:	f0000020 	adrp	x0, 8b000 <el1_a32_serror+0x880>
   849a0:	91082001 	add	x1, x0, #0x208
   849a4:	aa0203e0 	mov	x0, x2
   849a8:	97fff15d 	bl	80f1c <strcmp_ret>
   849ac:	7100001f 	cmp	w0, #0x0
   849b0:	54000160 	b.eq	849dc <k3ExecuteCommands+0x118>  // b.none
   849b4:	b9401fe0 	ldr	w0, [sp, #28]
   849b8:	71000c1f 	cmp	w0, #0x3
   849bc:	54000140 	b.eq	849e4 <k3ExecuteCommands+0x120>  // b.none
   849c0:	b9401fe2 	ldr	w2, [sp, #28]
   849c4:	f0000020 	adrp	x0, 8b000 <el1_a32_serror+0x880>
   849c8:	91086001 	add	x1, x0, #0x218
   849cc:	d2800020 	mov	x0, #0x1                   	// #1
   849d0:	9400069a 	bl	86438 <uart_printf>
   849d4:	52800000 	mov	w0, #0x0                   	// #0
   849d8:	14000004 	b	849e8 <k3ExecuteCommands+0x124>
   849dc:	12800000 	mov	w0, #0xffffffff            	// #-1
   849e0:	14000002 	b	849e8 <k3ExecuteCommands+0x124>
   849e4:	52800020 	mov	w0, #0x1                   	// #1
   849e8:	a8c47bfd 	ldp	x29, x30, [sp], #64
   849ec:	d65f03c0 	ret

00000000000849f0 <clock_proc>:
   849f0:	a9bd7bfd 	stp	x29, x30, [sp, #-48]!
   849f4:	910003fd 	mov	x29, sp
   849f8:	f0000020 	adrp	x0, 8b000 <el1_a32_serror+0x880>
   849fc:	91094001 	add	x1, x0, #0x250
   84a00:	d2800020 	mov	x0, #0x1                   	// #1
   84a04:	9400068d 	bl	86438 <uart_printf>
   84a08:	94000f84 	bl	88818 <MyTid>
   84a0c:	93407c00 	sxtw	x0, w0
   84a10:	f90013e0 	str	x0, [sp, #32]
   84a14:	d28d8c60 	mov	x0, #0x6c63                	// #27747
   84a18:	f2ac6de0 	movk	x0, #0x636f, lsl #16
   84a1c:	f2c00d60 	movk	x0, #0x6b, lsl #32
   84a20:	f9000fe0 	str	x0, [sp, #24]
   84a24:	52800140 	mov	w0, #0xa                   	// #10
   84a28:	b90017e0 	str	w0, [sp, #20]
   84a2c:	b90013ff 	str	wzr, [sp, #16]
   84a30:	910063e1 	add	x1, sp, #0x18
   84a34:	910083e0 	add	x0, sp, #0x20
   84a38:	52800102 	mov	w2, #0x8                   	// #8
   84a3c:	94000f5e 	bl	887b4 <Receive>
   84a40:	f94013e0 	ldr	x0, [sp, #32]
   84a44:	2a0003e3 	mov	w3, w0
   84a48:	910063e0 	add	x0, sp, #0x18
   84a4c:	52800102 	mov	w2, #0x8                   	// #8
   84a50:	aa0003e1 	mov	x1, x0
   84a54:	2a0303e0 	mov	w0, w3
   84a58:	94000f60 	bl	887d8 <Reply>
   84a5c:	910053e1 	add	x1, sp, #0x14
   84a60:	910083e0 	add	x0, sp, #0x20
   84a64:	52800082 	mov	w2, #0x4                   	// #4
   84a68:	94000f53 	bl	887b4 <Receive>
   84a6c:	f94013e0 	ldr	x0, [sp, #32]
   84a70:	2a0003e3 	mov	w3, w0
   84a74:	910053e0 	add	x0, sp, #0x14
   84a78:	52800082 	mov	w2, #0x4                   	// #4
   84a7c:	aa0003e1 	mov	x1, x0
   84a80:	2a0303e0 	mov	w0, w3
   84a84:	94000f55 	bl	887d8 <Reply>
   84a88:	910043e1 	add	x1, sp, #0x10
   84a8c:	910083e0 	add	x0, sp, #0x20
   84a90:	52800082 	mov	w2, #0x4                   	// #4
   84a94:	94000f48 	bl	887b4 <Receive>
   84a98:	f94013e0 	ldr	x0, [sp, #32]
   84a9c:	2a0003e3 	mov	w3, w0
   84aa0:	910043e0 	add	x0, sp, #0x10
   84aa4:	52800082 	mov	w2, #0x4                   	// #4
   84aa8:	aa0003e1 	mov	x1, x0
   84aac:	2a0303e0 	mov	w0, w3
   84ab0:	94000f4a 	bl	887d8 <Reply>
   84ab4:	910063e0 	add	x0, sp, #0x18
   84ab8:	9400027f 	bl	854b4 <RegisterAs>
   84abc:	b9002fff 	str	wzr, [sp, #44]
   84ac0:	14000016 	b	84b18 <clock_proc+0x128>
   84ac4:	f0000020 	adrp	x0, 8b000 <el1_a32_serror+0x880>
   84ac8:	91066000 	add	x0, x0, #0x198
   84acc:	940002c2 	bl	855d4 <WhoIs>
   84ad0:	2a0003e2 	mov	w2, w0
   84ad4:	b94017e0 	ldr	w0, [sp, #20]
   84ad8:	2a0003e1 	mov	w1, w0
   84adc:	2a0203e0 	mov	w0, w2
   84ae0:	97fff00f 	bl	80b1c <Delay>
   84ae4:	b9002be0 	str	w0, [sp, #40]
   84ae8:	b94017e1 	ldr	w1, [sp, #20]
   84aec:	910063e0 	add	x0, sp, #0x18
   84af0:	2a0103e4 	mov	w4, w1
   84af4:	aa0003e3 	mov	x3, x0
   84af8:	b9402fe2 	ldr	w2, [sp, #44]
   84afc:	f0000020 	adrp	x0, 8b000 <el1_a32_serror+0x880>
   84b00:	9109a001 	add	x1, x0, #0x268
   84b04:	d2800020 	mov	x0, #0x1                   	// #1
   84b08:	9400064c 	bl	86438 <uart_printf>
   84b0c:	b9402fe0 	ldr	w0, [sp, #44]
   84b10:	11000400 	add	w0, w0, #0x1
   84b14:	b9002fe0 	str	w0, [sp, #44]
   84b18:	b94013e0 	ldr	w0, [sp, #16]
   84b1c:	b9402fe1 	ldr	w1, [sp, #44]
   84b20:	6b00003f 	cmp	w1, w0
   84b24:	54fffd0b 	b.lt	84ac4 <clock_proc+0xd4>  // b.tstop
   84b28:	94000f5d 	bl	8889c <Exit>
   84b2c:	d503201f 	nop
   84b30:	a8c37bfd 	ldp	x29, x30, [sp], #48
   84b34:	d65f03c0 	ret

0000000000084b38 <init_clock_proc>:
   84b38:	a9bc7bfd 	stp	x29, x30, [sp, #-64]!
   84b3c:	910003fd 	mov	x29, sp
   84b40:	b9002fe0 	str	w0, [sp, #44]
   84b44:	f90013e1 	str	x1, [sp, #32]
   84b48:	b9002be2 	str	w2, [sp, #40]
   84b4c:	b9001fe3 	str	w3, [sp, #28]
   84b50:	b9402be0 	ldr	w0, [sp, #40]
   84b54:	2a0003e3 	mov	w3, w0
   84b58:	f94013e2 	ldr	x2, [sp, #32]
   84b5c:	f0000020 	adrp	x0, 8b000 <el1_a32_serror+0x880>
   84b60:	910a4001 	add	x1, x0, #0x290
   84b64:	d2800020 	mov	x0, #0x1                   	// #1
   84b68:	94000634 	bl	86438 <uart_printf>
   84b6c:	90000000 	adrp	x0, 84000 <k2ExecuteCommands+0x14>
   84b70:	9127c001 	add	x1, x0, #0x9f0
   84b74:	b9402fe0 	ldr	w0, [sp, #44]
   84b78:	94000f30 	bl	88838 <Create>
   84b7c:	b9003fe0 	str	w0, [sp, #60]
   84b80:	f94013e0 	ldr	x0, [sp, #32]
   84b84:	91001c00 	add	x0, x0, #0x7
   84b88:	3900001f 	strb	wzr, [x0]
   84b8c:	52800104 	mov	w4, #0x8                   	// #8
   84b90:	f94013e3 	ldr	x3, [sp, #32]
   84b94:	52800102 	mov	w2, #0x8                   	// #8
   84b98:	f94013e1 	ldr	x1, [sp, #32]
   84b9c:	b9403fe0 	ldr	w0, [sp, #60]
   84ba0:	94000efa 	bl	88788 <Send>
   84ba4:	9100a3e1 	add	x1, sp, #0x28
   84ba8:	9100a3e0 	add	x0, sp, #0x28
   84bac:	52800084 	mov	w4, #0x4                   	// #4
   84bb0:	aa0103e3 	mov	x3, x1
   84bb4:	52800082 	mov	w2, #0x4                   	// #4
   84bb8:	aa0003e1 	mov	x1, x0
   84bbc:	b9403fe0 	ldr	w0, [sp, #60]
   84bc0:	94000ef2 	bl	88788 <Send>
   84bc4:	910073e1 	add	x1, sp, #0x1c
   84bc8:	910073e0 	add	x0, sp, #0x1c
   84bcc:	52800084 	mov	w4, #0x4                   	// #4
   84bd0:	aa0103e3 	mov	x3, x1
   84bd4:	52800082 	mov	w2, #0x4                   	// #4
   84bd8:	aa0003e1 	mov	x1, x0
   84bdc:	b9403fe0 	ldr	w0, [sp, #60]
   84be0:	94000eea 	bl	88788 <Send>
   84be4:	d503201f 	nop
   84be8:	a8c47bfd 	ldp	x29, x30, [sp], #64
   84bec:	d65f03c0 	ret

0000000000084bf0 <kmain>:
   84bf0:	a9bd7bfd 	stp	x29, x30, [sp, #-48]!
   84bf4:	910003fd 	mov	x29, sp
   84bf8:	f9000fe0 	str	x0, [sp, #24]
   84bfc:	d0001000 	adrp	x0, 286000 <AWAIT_INTERRUPT_LIST_LEN+0x50>
   84c00:	913ee000 	add	x0, x0, #0xfb8
   84c04:	f9400fe1 	ldr	x1, [sp, #24]
   84c08:	f9000001 	str	x1, [x0]
   84c0c:	f9400fe0 	ldr	x0, [sp, #24]
   84c10:	9400075b 	bl	8697c <InitSys>
   84c14:	940003bb 	bl	85b00 <uart_init>
   84c18:	52800002 	mov	w2, #0x0                   	// #0
   84c1c:	52984001 	mov	w1, #0xc200                	// #49664
   84c20:	72a00021 	movk	w1, #0x1, lsl #16
   84c24:	d2800020 	mov	x0, #0x1                   	// #1
   84c28:	940003df 	bl	85ba4 <uart_config_and_enable>
   84c2c:	52800022 	mov	w2, #0x1                   	// #1
   84c30:	52812c01 	mov	w1, #0x960                 	// #2400
   84c34:	d2800040 	mov	x0, #0x2                   	// #2
   84c38:	940003db 	bl	85ba4 <uart_config_and_enable>
   84c3c:	f0000020 	adrp	x0, 8b000 <el1_a32_serror+0x880>
   84c40:	910ac000 	add	x0, x0, #0x2b0
   84c44:	f90017e0 	str	x0, [sp, #40]
   84c48:	f94017e2 	ldr	x2, [sp, #40]
   84c4c:	f0000020 	adrp	x0, 8b000 <el1_a32_serror+0x880>
   84c50:	91114001 	add	x1, x0, #0x450
   84c54:	d2800020 	mov	x0, #0x1                   	// #1
   84c58:	940005f8 	bl	86438 <uart_printf>
   84c5c:	f0000020 	adrp	x0, 8b000 <el1_a32_serror+0x880>
   84c60:	91116001 	add	x1, x0, #0x458
   84c64:	d2800020 	mov	x0, #0x1                   	// #1
   84c68:	940005f4 	bl	86438 <uart_printf>
   84c6c:	52800001 	mov	w1, #0x0                   	// #0
   84c70:	52800c60 	mov	w0, #0x63                  	// #99
   84c74:	97fff58b 	bl	822a0 <route_interrupt>
   84c78:	52800c60 	mov	w0, #0x63                  	// #99
   84c7c:	97fff5dd 	bl	823f0 <enable_interrupt>
   84c80:	52800002 	mov	w2, #0x0                   	// #0
   84c84:	b0000000 	adrp	x0, 85000 <myfree+0x1a8>
   84c88:	9108b001 	add	x1, x0, #0x22c
   84c8c:	52800000 	mov	w0, #0x0                   	// #0
   84c90:	94000e28 	bl	88530 <KernelCreate>
   84c94:	b90027e0 	str	w0, [sp, #36]
   84c98:	b94027e2 	ldr	w2, [sp, #36]
   84c9c:	f0000020 	adrp	x0, 8b000 <el1_a32_serror+0x880>
   84ca0:	91122001 	add	x1, x0, #0x488
   84ca4:	d2800020 	mov	x0, #0x1                   	// #1
   84ca8:	940005e4 	bl	86438 <uart_printf>
   84cac:	52800002 	mov	w2, #0x0                   	// #0
   84cb0:	b0000000 	adrp	x0, 85000 <myfree+0x1a8>
   84cb4:	9122f001 	add	x1, x0, #0x8bc
   84cb8:	52800000 	mov	w0, #0x0                   	// #0
   84cbc:	94000e1d 	bl	88530 <KernelCreate>
   84cc0:	94000de6 	bl	88458 <Schedule>
   84cc4:	52800000 	mov	w0, #0x0                   	// #0
   84cc8:	a8c37bfd 	ldp	x29, x30, [sp], #48
   84ccc:	d65f03c0 	ret

0000000000084cd0 <mymalloc>:
   84cd0:	d10103ff 	sub	sp, sp, #0x40
   84cd4:	f90007e0 	str	x0, [sp, #8]
   84cd8:	f94007e0 	ldr	x0, [sp, #8]
   84cdc:	91000400 	add	x0, x0, #0x1
   84ce0:	d37df000 	lsl	x0, x0, #3
   84ce4:	f9001fe0 	str	x0, [sp, #56]
   84ce8:	f0000020 	adrp	x0, 8b000 <el1_a32_serror+0x880>
   84cec:	91230000 	add	x0, x0, #0x8c0
   84cf0:	f9001be0 	str	x0, [sp, #48]
   84cf4:	f9401be0 	ldr	x0, [sp, #48]
   84cf8:	f9400000 	ldr	x0, [x0]
   84cfc:	f90017e0 	str	x0, [sp, #40]
   84d00:	1400001e 	b	84d78 <mymalloc+0xa8>
   84d04:	f9401be0 	ldr	x0, [sp, #48]
   84d08:	f9400000 	ldr	x0, [x0]
   84d0c:	f90017e0 	str	x0, [sp, #40]
   84d10:	f94017e0 	ldr	x0, [sp, #40]
   84d14:	f9400000 	ldr	x0, [x0]
   84d18:	f90013e0 	str	x0, [sp, #32]
   84d1c:	f94013e1 	ldr	x1, [sp, #32]
   84d20:	f9401fe0 	ldr	x0, [sp, #56]
   84d24:	eb00003f 	cmp	x1, x0
   84d28:	540001a3 	b.cc	84d5c <mymalloc+0x8c>  // b.lo, b.ul, b.last
   84d2c:	f94013e1 	ldr	x1, [sp, #32]
   84d30:	f9401fe0 	ldr	x0, [sp, #56]
   84d34:	cb000020 	sub	x0, x1, x0
   84d38:	f100201f 	cmp	x0, #0x8
   84d3c:	54000261 	b.ne	84d88 <mymalloc+0xb8>  // b.any
   84d40:	f94007e0 	ldr	x0, [sp, #8]
   84d44:	91000400 	add	x0, x0, #0x1
   84d48:	f90007e0 	str	x0, [sp, #8]
   84d4c:	f9401fe0 	ldr	x0, [sp, #56]
   84d50:	91002000 	add	x0, x0, #0x8
   84d54:	f9001fe0 	str	x0, [sp, #56]
   84d58:	1400000c 	b	84d88 <mymalloc+0xb8>
   84d5c:	f9401be0 	ldr	x0, [sp, #48]
   84d60:	f9400000 	ldr	x0, [x0]
   84d64:	91002000 	add	x0, x0, #0x8
   84d68:	f9001be0 	str	x0, [sp, #48]
   84d6c:	f9401be0 	ldr	x0, [sp, #48]
   84d70:	f9400000 	ldr	x0, [x0]
   84d74:	f90017e0 	str	x0, [sp, #40]
   84d78:	f94017e0 	ldr	x0, [sp, #40]
   84d7c:	f100001f 	cmp	x0, #0x0
   84d80:	54fffc21 	b.ne	84d04 <mymalloc+0x34>  // b.any
   84d84:	14000002 	b	84d8c <mymalloc+0xbc>
   84d88:	d503201f 	nop
   84d8c:	f94017e0 	ldr	x0, [sp, #40]
   84d90:	f100001f 	cmp	x0, #0x0
   84d94:	54000061 	b.ne	84da0 <mymalloc+0xd0>  // b.any
   84d98:	d2800000 	mov	x0, #0x0                   	// #0
   84d9c:	1400002d 	b	84e50 <mymalloc+0x180>
   84da0:	f94017e0 	ldr	x0, [sp, #40]
   84da4:	f9400000 	ldr	x0, [x0]
   84da8:	f9000fe0 	str	x0, [sp, #24]
   84dac:	f94017e0 	ldr	x0, [sp, #40]
   84db0:	f9400000 	ldr	x0, [x0]
   84db4:	f9401fe1 	ldr	x1, [sp, #56]
   84db8:	eb00003f 	cmp	x1, x0
   84dbc:	54000382 	b.cs	84e2c <mymalloc+0x15c>  // b.hs, b.nlast
   84dc0:	f94017e0 	ldr	x0, [sp, #40]
   84dc4:	f9400002 	ldr	x2, [x0]
   84dc8:	f94007e0 	ldr	x0, [sp, #8]
   84dcc:	91000400 	add	x0, x0, #0x1
   84dd0:	d37df000 	lsl	x0, x0, #3
   84dd4:	f94017e1 	ldr	x1, [sp, #40]
   84dd8:	8b000020 	add	x0, x1, x0
   84ddc:	f9401fe1 	ldr	x1, [sp, #56]
   84de0:	cb010041 	sub	x1, x2, x1
   84de4:	f9000001 	str	x1, [x0]
   84de8:	f94007e0 	ldr	x0, [sp, #8]
   84dec:	91000800 	add	x0, x0, #0x2
   84df0:	d37df000 	lsl	x0, x0, #3
   84df4:	f94017e1 	ldr	x1, [sp, #40]
   84df8:	8b000020 	add	x0, x1, x0
   84dfc:	f94017e1 	ldr	x1, [sp, #40]
   84e00:	f9400421 	ldr	x1, [x1, #8]
   84e04:	f9000001 	str	x1, [x0]
   84e08:	f94007e0 	ldr	x0, [sp, #8]
   84e0c:	91000400 	add	x0, x0, #0x1
   84e10:	d37df000 	lsl	x0, x0, #3
   84e14:	f94017e1 	ldr	x1, [sp, #40]
   84e18:	8b000020 	add	x0, x1, x0
   84e1c:	aa0003e1 	mov	x1, x0
   84e20:	f9401be0 	ldr	x0, [sp, #48]
   84e24:	f9000001 	str	x1, [x0]
   84e28:	14000005 	b	84e3c <mymalloc+0x16c>
   84e2c:	f94017e0 	ldr	x0, [sp, #40]
   84e30:	f9400401 	ldr	x1, [x0, #8]
   84e34:	f9401be0 	ldr	x0, [sp, #48]
   84e38:	f9000001 	str	x1, [x0]
   84e3c:	f94017e0 	ldr	x0, [sp, #40]
   84e40:	f9401fe1 	ldr	x1, [sp, #56]
   84e44:	f9000001 	str	x1, [x0]
   84e48:	f94017e0 	ldr	x0, [sp, #40]
   84e4c:	91002000 	add	x0, x0, #0x8
   84e50:	910103ff 	add	sp, sp, #0x40
   84e54:	d65f03c0 	ret

0000000000084e58 <myfree>:
   84e58:	d100c3ff 	sub	sp, sp, #0x30
   84e5c:	f90007e0 	str	x0, [sp, #8]
   84e60:	f94007e0 	ldr	x0, [sp, #8]
   84e64:	f100001f 	cmp	x0, #0x0
   84e68:	54001060 	b.eq	85074 <myfree+0x21c>  // b.none
   84e6c:	f0000020 	adrp	x0, 8b000 <el1_a32_serror+0x880>
   84e70:	91230000 	add	x0, x0, #0x8c0
   84e74:	f9400000 	ldr	x0, [x0]
   84e78:	f9000fe0 	str	x0, [sp, #24]
   84e7c:	f0000020 	adrp	x0, 8b000 <el1_a32_serror+0x880>
   84e80:	91230000 	add	x0, x0, #0x8c0
   84e84:	f9400000 	ldr	x0, [x0]
   84e88:	f90017e0 	str	x0, [sp, #40]
   84e8c:	f94017e0 	ldr	x0, [sp, #40]
   84e90:	91002000 	add	x0, x0, #0x8
   84e94:	f9400000 	ldr	x0, [x0]
   84e98:	f90013e0 	str	x0, [sp, #32]
   84e9c:	f94007e0 	ldr	x0, [sp, #8]
   84ea0:	d1002000 	sub	x0, x0, #0x8
   84ea4:	f90007e0 	str	x0, [sp, #8]
   84ea8:	f0000020 	adrp	x0, 8b000 <el1_a32_serror+0x880>
   84eac:	91230000 	add	x0, x0, #0x8c0
   84eb0:	f9400000 	ldr	x0, [x0]
   84eb4:	aa0003e1 	mov	x1, x0
   84eb8:	f94007e0 	ldr	x0, [sp, #8]
   84ebc:	eb01001f 	cmp	x0, x1
   84ec0:	54000622 	b.cs	84f84 <myfree+0x12c>  // b.hs, b.nlast
   84ec4:	f94007e0 	ldr	x0, [sp, #8]
   84ec8:	91002000 	add	x0, x0, #0x8
   84ecc:	f94017e1 	ldr	x1, [sp, #40]
   84ed0:	f9000001 	str	x1, [x0]
   84ed4:	f94007e1 	ldr	x1, [sp, #8]
   84ed8:	f0000020 	adrp	x0, 8b000 <el1_a32_serror+0x880>
   84edc:	91230000 	add	x0, x0, #0x8c0
   84ee0:	f9000001 	str	x1, [x0]
   84ee4:	f94007e0 	ldr	x0, [sp, #8]
   84ee8:	f9400001 	ldr	x1, [x0]
   84eec:	f94007e0 	ldr	x0, [sp, #8]
   84ef0:	8b000021 	add	x1, x1, x0
   84ef4:	f94007e0 	ldr	x0, [sp, #8]
   84ef8:	91002000 	add	x0, x0, #0x8
   84efc:	f9400000 	ldr	x0, [x0]
   84f00:	eb00003f 	cmp	x1, x0
   84f04:	54000bc1 	b.ne	8507c <myfree+0x224>  // b.any
   84f08:	f94007e0 	ldr	x0, [sp, #8]
   84f0c:	f9400001 	ldr	x1, [x0]
   84f10:	f94007e0 	ldr	x0, [sp, #8]
   84f14:	91002000 	add	x0, x0, #0x8
   84f18:	f9400000 	ldr	x0, [x0]
   84f1c:	f9400000 	ldr	x0, [x0]
   84f20:	8b000021 	add	x1, x1, x0
   84f24:	f94007e0 	ldr	x0, [sp, #8]
   84f28:	f9000001 	str	x1, [x0]
   84f2c:	f94017e0 	ldr	x0, [sp, #40]
   84f30:	91002000 	add	x0, x0, #0x8
   84f34:	aa0003e1 	mov	x1, x0
   84f38:	f94007e0 	ldr	x0, [sp, #8]
   84f3c:	91002000 	add	x0, x0, #0x8
   84f40:	f9400021 	ldr	x1, [x1]
   84f44:	f9000001 	str	x1, [x0]
   84f48:	1400004d 	b	8507c <myfree+0x224>
   84f4c:	f94017e0 	ldr	x0, [sp, #40]
   84f50:	91002000 	add	x0, x0, #0x8
   84f54:	f9400000 	ldr	x0, [x0]
   84f58:	f90013e0 	str	x0, [sp, #32]
   84f5c:	f94017e1 	ldr	x1, [sp, #40]
   84f60:	f94013e0 	ldr	x0, [sp, #32]
   84f64:	eb00003f 	cmp	x1, x0
   84f68:	540008e0 	b.eq	85084 <myfree+0x22c>  // b.none
   84f6c:	f94013e0 	ldr	x0, [sp, #32]
   84f70:	f90017e0 	str	x0, [sp, #40]
   84f74:	f94017e0 	ldr	x0, [sp, #40]
   84f78:	91002000 	add	x0, x0, #0x8
   84f7c:	f9400000 	ldr	x0, [x0]
   84f80:	f90013e0 	str	x0, [sp, #32]
   84f84:	f94013e0 	ldr	x0, [sp, #32]
   84f88:	f100001f 	cmp	x0, #0x0
   84f8c:	540000a0 	b.eq	84fa0 <myfree+0x148>  // b.none
   84f90:	f94007e0 	ldr	x0, [sp, #8]
   84f94:	f94013e1 	ldr	x1, [sp, #32]
   84f98:	eb00003f 	cmp	x1, x0
   84f9c:	54fffd83 	b.cc	84f4c <myfree+0xf4>  // b.lo, b.ul, b.last
   84fa0:	f94007e0 	ldr	x0, [sp, #8]
   84fa4:	91002000 	add	x0, x0, #0x8
   84fa8:	f94013e1 	ldr	x1, [sp, #32]
   84fac:	f9000001 	str	x1, [x0]
   84fb0:	f94007e0 	ldr	x0, [sp, #8]
   84fb4:	f9400001 	ldr	x1, [x0]
   84fb8:	f94007e0 	ldr	x0, [sp, #8]
   84fbc:	8b000021 	add	x1, x1, x0
   84fc0:	f94007e0 	ldr	x0, [sp, #8]
   84fc4:	91002000 	add	x0, x0, #0x8
   84fc8:	f9400000 	ldr	x0, [x0]
   84fcc:	eb00003f 	cmp	x1, x0
   84fd0:	540001e1 	b.ne	8500c <myfree+0x1b4>  // b.any
   84fd4:	f94007e0 	ldr	x0, [sp, #8]
   84fd8:	f9400001 	ldr	x1, [x0]
   84fdc:	f94013e0 	ldr	x0, [sp, #32]
   84fe0:	f9400000 	ldr	x0, [x0]
   84fe4:	8b000021 	add	x1, x1, x0
   84fe8:	f94007e0 	ldr	x0, [sp, #8]
   84fec:	f9000001 	str	x1, [x0]
   84ff0:	f94013e0 	ldr	x0, [sp, #32]
   84ff4:	91002000 	add	x0, x0, #0x8
   84ff8:	aa0003e1 	mov	x1, x0
   84ffc:	f94007e0 	ldr	x0, [sp, #8]
   85000:	91002000 	add	x0, x0, #0x8
   85004:	f9400021 	ldr	x1, [x1]
   85008:	f9000001 	str	x1, [x0]
   8500c:	f94017e0 	ldr	x0, [sp, #40]
   85010:	91002000 	add	x0, x0, #0x8
   85014:	aa0003e1 	mov	x1, x0
   85018:	f94007e0 	ldr	x0, [sp, #8]
   8501c:	f9000020 	str	x0, [x1]
   85020:	f94017e0 	ldr	x0, [sp, #40]
   85024:	f9400001 	ldr	x1, [x0]
   85028:	f94017e0 	ldr	x0, [sp, #40]
   8502c:	8b000021 	add	x1, x1, x0
   85030:	f94007e0 	ldr	x0, [sp, #8]
   85034:	eb00003f 	cmp	x1, x0
   85038:	54000281 	b.ne	85088 <myfree+0x230>  // b.any
   8503c:	f94017e0 	ldr	x0, [sp, #40]
   85040:	f9400002 	ldr	x2, [x0]
   85044:	f94007e0 	ldr	x0, [sp, #8]
   85048:	f9400001 	ldr	x1, [x0]
   8504c:	f94017e0 	ldr	x0, [sp, #40]
   85050:	8b010041 	add	x1, x2, x1
   85054:	f9000001 	str	x1, [x0]
   85058:	f94017e0 	ldr	x0, [sp, #40]
   8505c:	91002000 	add	x0, x0, #0x8
   85060:	aa0003e1 	mov	x1, x0
   85064:	f94007e0 	ldr	x0, [sp, #8]
   85068:	f9400400 	ldr	x0, [x0, #8]
   8506c:	f9000020 	str	x0, [x1]
   85070:	14000006 	b	85088 <myfree+0x230>
   85074:	d503201f 	nop
   85078:	14000004 	b	85088 <myfree+0x230>
   8507c:	d503201f 	nop
   85080:	14000002 	b	85088 <myfree+0x230>
   85084:	d503201f 	nop
   85088:	9100c3ff 	add	sp, sp, #0x30
   8508c:	d65f03c0 	ret

0000000000085090 <malloctest>:
   85090:	d11f83ff 	sub	sp, sp, #0x7e0
   85094:	a9007bfd 	stp	x29, x30, [sp]
   85098:	910003fd 	mov	x29, sp
   8509c:	f903efff 	str	xzr, [sp, #2008]
   850a0:	d2801e20 	mov	x0, #0xf1                  	// #241
   850a4:	97ffff0b 	bl	84cd0 <mymalloc>
   850a8:	f903e3e0 	str	x0, [sp, #1984]
   850ac:	d2801e20 	mov	x0, #0xf1                  	// #241
   850b0:	97ffff08 	bl	84cd0 <mymalloc>
   850b4:	f903dfe0 	str	x0, [sp, #1976]
   850b8:	f943e3e0 	ldr	x0, [sp, #1984]
   850bc:	97ffff67 	bl	84e58 <myfree>
   850c0:	d2801e00 	mov	x0, #0xf0                  	// #240
   850c4:	97ffff03 	bl	84cd0 <mymalloc>
   850c8:	f903dbe0 	str	x0, [sp, #1968]
   850cc:	d2800020 	mov	x0, #0x1                   	// #1
   850d0:	97ffff00 	bl	84cd0 <mymalloc>
   850d4:	f903d7e0 	str	x0, [sp, #1960]
   850d8:	f943dbe0 	ldr	x0, [sp, #1968]
   850dc:	91006000 	add	x0, x0, #0x18
   850e0:	d2801e01 	mov	x1, #0xf0                  	// #240
   850e4:	f9000001 	str	x1, [x0]
   850e8:	f943dbe0 	ldr	x0, [sp, #1968]
   850ec:	91006000 	add	x0, x0, #0x18
   850f0:	f9400000 	ldr	x0, [x0]
   850f4:	91000401 	add	x1, x0, #0x1
   850f8:	f943d7e0 	ldr	x0, [sp, #1960]
   850fc:	f9000001 	str	x1, [x0]
   85100:	f943dbe0 	ldr	x0, [sp, #1968]
   85104:	97ffff55 	bl	84e58 <myfree>
   85108:	b907d7ff 	str	wzr, [sp, #2004]
   8510c:	14000011 	b	85150 <malloctest+0xc0>
   85110:	d2800020 	mov	x0, #0x1                   	// #1
   85114:	97fffeef 	bl	84cd0 <mymalloc>
   85118:	aa0003e2 	mov	x2, x0
   8511c:	b987d7e0 	ldrsw	x0, [sp, #2004]
   85120:	d37df000 	lsl	x0, x0, #3
   85124:	910063e1 	add	x1, sp, #0x18
   85128:	f8206822 	str	x2, [x1, x0]
   8512c:	b987d7e0 	ldrsw	x0, [sp, #2004]
   85130:	d37df000 	lsl	x0, x0, #3
   85134:	910063e1 	add	x1, sp, #0x18
   85138:	f8606820 	ldr	x0, [x1, x0]
   8513c:	d2800021 	mov	x1, #0x1                   	// #1
   85140:	f9000001 	str	x1, [x0]
   85144:	b947d7e0 	ldr	w0, [sp, #2004]
   85148:	11000400 	add	w0, w0, #0x1
   8514c:	b907d7e0 	str	w0, [sp, #2004]
   85150:	b947d7e0 	ldr	w0, [sp, #2004]
   85154:	7103c01f 	cmp	w0, #0xf0
   85158:	54fffdcd 	b.le	85110 <malloctest+0x80>
   8515c:	d2807d00 	mov	x0, #0x3e8                 	// #1000
   85160:	97fffedc 	bl	84cd0 <mymalloc>
   85164:	f903d3e0 	str	x0, [sp, #1952]
   85168:	b907d3ff 	str	wzr, [sp, #2000]
   8516c:	1400000a 	b	85194 <malloctest+0x104>
   85170:	b987d3e0 	ldrsw	x0, [sp, #2000]
   85174:	d37df000 	lsl	x0, x0, #3
   85178:	f943d3e1 	ldr	x1, [sp, #1952]
   8517c:	8b000020 	add	x0, x1, x0
   85180:	d2807d01 	mov	x1, #0x3e8                 	// #1000
   85184:	f9000001 	str	x1, [x0]
   85188:	b947d3e0 	ldr	w0, [sp, #2000]
   8518c:	11000400 	add	w0, w0, #0x1
   85190:	b907d3e0 	str	w0, [sp, #2000]
   85194:	b947d3e0 	ldr	w0, [sp, #2000]
   85198:	710f9c1f 	cmp	w0, #0x3e7
   8519c:	54fffead 	b.le	85170 <malloctest+0xe0>
   851a0:	b907cfff 	str	wzr, [sp, #1996]
   851a4:	14000011 	b	851e8 <malloctest+0x158>
   851a8:	b987cfe0 	ldrsw	x0, [sp, #1996]
   851ac:	d37df000 	lsl	x0, x0, #3
   851b0:	910063e1 	add	x1, sp, #0x18
   851b4:	f8606820 	ldr	x0, [x1, x0]
   851b8:	f9400000 	ldr	x0, [x0]
   851bc:	f943efe1 	ldr	x1, [sp, #2008]
   851c0:	8b000020 	add	x0, x1, x0
   851c4:	f903efe0 	str	x0, [sp, #2008]
   851c8:	b987cfe0 	ldrsw	x0, [sp, #1996]
   851cc:	d37df000 	lsl	x0, x0, #3
   851d0:	910063e1 	add	x1, sp, #0x18
   851d4:	f8606820 	ldr	x0, [x1, x0]
   851d8:	97ffff20 	bl	84e58 <myfree>
   851dc:	b947cfe0 	ldr	w0, [sp, #1996]
   851e0:	11000400 	add	w0, w0, #0x1
   851e4:	b907cfe0 	str	w0, [sp, #1996]
   851e8:	b947cfe0 	ldr	w0, [sp, #1996]
   851ec:	7103c01f 	cmp	w0, #0xf0
   851f0:	54fffdcd 	b.le	851a8 <malloctest+0x118>
   851f4:	f943d7e0 	ldr	x0, [sp, #1960]
   851f8:	f9400000 	ldr	x0, [x0]
   851fc:	f943efe1 	ldr	x1, [sp, #2008]
   85200:	8b000020 	add	x0, x1, x0
   85204:	f903efe0 	str	x0, [sp, #2008]
   85208:	f943d7e0 	ldr	x0, [sp, #1960]
   8520c:	97ffff13 	bl	84e58 <myfree>
   85210:	f943efe0 	ldr	x0, [sp, #2008]
   85214:	f107881f 	cmp	x0, #0x1e2
   85218:	1a9f07e0 	cset	w0, ne	// ne = any
   8521c:	12001c00 	and	w0, w0, #0xff
   85220:	a9407bfd 	ldp	x29, x30, [sp]
   85224:	911f83ff 	add	sp, sp, #0x7e0
   85228:	d65f03c0 	ret

000000000008522c <nameserver>:
   8522c:	d284060c 	mov	x12, #0x2030                	// #8240
   85230:	cb2c63ff 	sub	sp, sp, x12
   85234:	a9007bfd 	stp	x29, x30, [sp]
   85238:	910003fd 	mov	x29, sp
   8523c:	52800620 	mov	w0, #0x31                  	// #49
   85240:	b92027e0 	str	w0, [sp, #8228]
   85244:	b9202fff 	str	wzr, [sp, #8236]
   85248:	1400000d 	b	8527c <nameserver+0x50>
   8524c:	b9a02fe1 	ldrsw	x1, [sp, #8236]
   85250:	aa0103e0 	mov	x0, x1
   85254:	d37ff800 	lsl	x0, x0, #1
   85258:	8b010000 	add	x0, x0, x1
   8525c:	d37df000 	lsl	x0, x0, #3
   85260:	8b010000 	add	x0, x0, x1
   85264:	d37cec00 	lsl	x0, x0, #4
   85268:	910323e1 	add	x1, sp, #0xc8
   8526c:	f820683f 	str	xzr, [x1, x0]
   85270:	b9602fe0 	ldr	w0, [sp, #8236]
   85274:	11000400 	add	w0, w0, #0x1
   85278:	b9202fe0 	str	w0, [sp, #8236]
   8527c:	b9602fe0 	ldr	w0, [sp, #8236]
   85280:	71004c1f 	cmp	w0, #0x13
   85284:	54fffe4d 	b.le	8524c <nameserver+0x20>
   85288:	910323e0 	add	x0, sp, #0xc8
   8528c:	91064004 	add	x4, x0, #0x190
   85290:	52800643 	mov	w3, #0x32                  	// #50
   85294:	d0000020 	adrp	x0, 8b000 <el1_a32_serror+0x880>
   85298:	9112a002 	add	x2, x0, #0x4a8
   8529c:	52800641 	mov	w1, #0x32                  	// #50
   852a0:	aa0403e0 	mov	x0, x4
   852a4:	97ffefd9 	bl	81208 <strcpy>
   852a8:	910323e4 	add	x4, sp, #0xc8
   852ac:	52800643 	mov	w3, #0x32                  	// #50
   852b0:	d0000020 	adrp	x0, 8b000 <el1_a32_serror+0x880>
   852b4:	9112e002 	add	x2, x0, #0x4b8
   852b8:	52800641 	mov	w1, #0x32                  	// #50
   852bc:	aa0403e0 	mov	x0, x4
   852c0:	97ffefd2 	bl	81208 <strcpy>
   852c4:	910243e1 	add	x1, sp, #0x90
   852c8:	910313e0 	add	x0, sp, #0xc4
   852cc:	b96027e2 	ldr	w2, [sp, #8228]
   852d0:	94000d39 	bl	887b4 <Receive>
   852d4:	b92023e0 	str	w0, [sp, #8224]
   852d8:	910243e1 	add	x1, sp, #0x90
   852dc:	910043e0 	add	x0, sp, #0x10
   852e0:	52800023 	mov	w3, #0x1                   	// #1
   852e4:	aa0103e2 	mov	x2, x1
   852e8:	52800641 	mov	w1, #0x32                  	// #50
   852ec:	97ffef92 	bl	81134 <parsestring>
   852f0:	910243e1 	add	x1, sp, #0x90
   852f4:	910123e0 	add	x0, sp, #0x48
   852f8:	52800043 	mov	w3, #0x2                   	// #2
   852fc:	aa0103e2 	mov	x2, x1
   85300:	52800641 	mov	w1, #0x32                  	// #50
   85304:	97ffef8c 	bl	81134 <parsestring>
   85308:	d0000020 	adrp	x0, 8b000 <el1_a32_serror+0x880>
   8530c:	91130000 	add	x0, x0, #0x4c0
   85310:	f9100fe0 	str	x0, [sp, #8216]
   85314:	910043e0 	add	x0, sp, #0x10
   85318:	f9500fe1 	ldr	x1, [sp, #8216]
   8531c:	97ffef00 	bl	80f1c <strcmp_ret>
   85320:	b9008fe0 	str	w0, [sp, #140]
   85324:	b9408fe0 	ldr	w0, [sp, #140]
   85328:	7100001f 	cmp	w0, #0x0
   8532c:	540002e0 	b.eq	85388 <nameserver+0x15c>  // b.none
   85330:	b940c7e0 	ldr	w0, [sp, #196]
   85334:	910323e2 	add	x2, sp, #0xc8
   85338:	93407c01 	sxtw	x1, w0
   8533c:	aa0103e0 	mov	x0, x1
   85340:	d37ff800 	lsl	x0, x0, #1
   85344:	8b010000 	add	x0, x0, x1
   85348:	d37df000 	lsl	x0, x0, #3
   8534c:	8b010000 	add	x0, x0, x1
   85350:	d37cec00 	lsl	x0, x0, #4
   85354:	8b000040 	add	x0, x2, x0
   85358:	910123e1 	add	x1, sp, #0x48
   8535c:	52800643 	mov	w3, #0x32                  	// #50
   85360:	aa0103e2 	mov	x2, x1
   85364:	52800641 	mov	w1, #0x32                  	// #50
   85368:	97ffefa8 	bl	81208 <strcpy>
   8536c:	b940c7e3 	ldr	w3, [sp, #196]
   85370:	52800322 	mov	w2, #0x19                  	// #25
   85374:	d0000020 	adrp	x0, 8b000 <el1_a32_serror+0x880>
   85378:	91134001 	add	x1, x0, #0x4d0
   8537c:	2a0303e0 	mov	w0, w3
   85380:	94000d16 	bl	887d8 <Reply>
   85384:	b92017e0 	str	w0, [sp, #8212]
   85388:	d0000020 	adrp	x0, 8b000 <el1_a32_serror+0x880>
   8538c:	91138000 	add	x0, x0, #0x4e0
   85390:	f9100fe0 	str	x0, [sp, #8216]
   85394:	910043e1 	add	x1, sp, #0x10
   85398:	910233e0 	add	x0, sp, #0x8c
   8539c:	f9500fe2 	ldr	x2, [sp, #8216]
   853a0:	97ffeead 	bl	80e54 <strcmp>
   853a4:	b9408fe0 	ldr	w0, [sp, #140]
   853a8:	7100001f 	cmp	w0, #0x0
   853ac:	54000460 	b.eq	85438 <nameserver+0x20c>  // b.none
   853b0:	b9202bff 	str	wzr, [sp, #8232]
   853b4:	14000011 	b	853f8 <nameserver+0x1cc>
   853b8:	910323e2 	add	x2, sp, #0xc8
   853bc:	b9a02be1 	ldrsw	x1, [sp, #8232]
   853c0:	aa0103e0 	mov	x0, x1
   853c4:	d37ff800 	lsl	x0, x0, #1
   853c8:	8b010000 	add	x0, x0, x1
   853cc:	d37df000 	lsl	x0, x0, #3
   853d0:	8b010000 	add	x0, x0, x1
   853d4:	d37cec00 	lsl	x0, x0, #4
   853d8:	8b000040 	add	x0, x2, x0
   853dc:	910123e1 	add	x1, sp, #0x48
   853e0:	97ffeecf 	bl	80f1c <strcmp_ret>
   853e4:	7100001f 	cmp	w0, #0x0
   853e8:	54000101 	b.ne	85408 <nameserver+0x1dc>  // b.any
   853ec:	b9602be0 	ldr	w0, [sp, #8232]
   853f0:	11000400 	add	w0, w0, #0x1
   853f4:	b9202be0 	str	w0, [sp, #8232]
   853f8:	b9602be0 	ldr	w0, [sp, #8232]
   853fc:	71004c1f 	cmp	w0, #0x13
   85400:	54fffdcd 	b.le	853b8 <nameserver+0x18c>
   85404:	14000002 	b	8540c <nameserver+0x1e0>
   85408:	d503201f 	nop
   8540c:	f90043ff 	str	xzr, [sp, #128]
   85410:	790113ff 	strh	wzr, [sp, #136]
   85414:	910203e0 	add	x0, sp, #0x80
   85418:	aa0003e1 	mov	x1, x0
   8541c:	b9602be0 	ldr	w0, [sp, #8232]
   85420:	94000dcc 	bl	88b50 <i2a>
   85424:	b940c7e0 	ldr	w0, [sp, #196]
   85428:	910203e1 	add	x1, sp, #0x80
   8542c:	52800322 	mov	w2, #0x19                  	// #25
   85430:	94000cea 	bl	887d8 <Reply>
   85434:	b92013e0 	str	w0, [sp, #8208]
   85438:	d0000020 	adrp	x0, 8b000 <el1_a32_serror+0x880>
   8543c:	9113a000 	add	x0, x0, #0x4e8
   85440:	f9100fe0 	str	x0, [sp, #8216]
   85444:	910043e1 	add	x1, sp, #0x10
   85448:	910233e0 	add	x0, sp, #0x8c
   8544c:	f9500fe2 	ldr	x2, [sp, #8216]
   85450:	97ffee81 	bl	80e54 <strcmp>
   85454:	b9408fe0 	ldr	w0, [sp, #140]
   85458:	7100001f 	cmp	w0, #0x0
   8545c:	54000240 	b.eq	854a4 <nameserver+0x278>  // b.none
   85460:	b940c7e0 	ldr	w0, [sp, #196]
   85464:	93407c01 	sxtw	x1, w0
   85468:	aa0103e0 	mov	x0, x1
   8546c:	d37ff800 	lsl	x0, x0, #1
   85470:	8b010000 	add	x0, x0, x1
   85474:	d37df000 	lsl	x0, x0, #3
   85478:	8b010000 	add	x0, x0, x1
   8547c:	d37cec00 	lsl	x0, x0, #4
   85480:	910323e1 	add	x1, sp, #0xc8
   85484:	f820683f 	str	xzr, [x1, x0]
   85488:	b940c7e3 	ldr	w3, [sp, #196]
   8548c:	52800322 	mov	w2, #0x19                  	// #25
   85490:	d0000020 	adrp	x0, 8b000 <el1_a32_serror+0x880>
   85494:	9113e001 	add	x1, x0, #0x4f8
   85498:	2a0303e0 	mov	w0, w3
   8549c:	94000ccf 	bl	887d8 <Reply>
   854a0:	b9200fe0 	str	w0, [sp, #8204]
   854a4:	d0000020 	adrp	x0, 8b000 <el1_a32_serror+0x880>
   854a8:	91144000 	add	x0, x0, #0x510
   854ac:	f9100fe0 	str	x0, [sp, #8216]
   854b0:	17ffff85 	b	852c4 <nameserver+0x98>

00000000000854b4 <RegisterAs>:
   854b4:	a9b77bfd 	stp	x29, x30, [sp, #-144]!
   854b8:	910003fd 	mov	x29, sp
   854bc:	f9000fe0 	str	x0, [sp, #24]
   854c0:	d0000020 	adrp	x0, 8b000 <el1_a32_serror+0x880>
   854c4:	91146001 	add	x1, x0, #0x518
   854c8:	910083e0 	add	x0, sp, #0x20
   854cc:	aa0103e3 	mov	x3, x1
   854d0:	d2800141 	mov	x1, #0xa                   	// #10
   854d4:	aa0103e2 	mov	x2, x1
   854d8:	aa0303e1 	mov	x1, x3
   854dc:	94000dc9 	bl	88c00 <memcpy>
   854e0:	9100abe0 	add	x0, sp, #0x2a
   854e4:	d2800501 	mov	x1, #0x28                  	// #40
   854e8:	aa0103e2 	mov	x2, x1
   854ec:	52800001 	mov	w1, #0x0                   	// #0
   854f0:	94000dae 	bl	88ba8 <memset>
   854f4:	52800640 	mov	w0, #0x32                  	// #50
   854f8:	b9008fe0 	str	w0, [sp, #140]
   854fc:	910083e0 	add	x0, sp, #0x20
   85500:	f9400fe1 	ldr	x1, [sp, #24]
   85504:	97ffeea9 	bl	80fa8 <strcat>
   85508:	b9008fe0 	str	w0, [sp, #140]
   8550c:	910163e1 	add	x1, sp, #0x58
   85510:	910083e0 	add	x0, sp, #0x20
   85514:	52800644 	mov	w4, #0x32                  	// #50
   85518:	aa0103e3 	mov	x3, x1
   8551c:	52800642 	mov	w2, #0x32                  	// #50
   85520:	aa0003e1 	mov	x1, x0
   85524:	52800020 	mov	w0, #0x1                   	// #1
   85528:	94000c98 	bl	88788 <Send>
   8552c:	52800000 	mov	w0, #0x0                   	// #0
   85530:	a8c97bfd 	ldp	x29, x30, [sp], #144
   85534:	d65f03c0 	ret

0000000000085538 <Deregister>:
   85538:	a9b67bfd 	stp	x29, x30, [sp, #-160]!
   8553c:	910003fd 	mov	x29, sp
   85540:	94000cb6 	bl	88818 <MyTid>
   85544:	b9009fe0 	str	w0, [sp, #156]
   85548:	d288a880 	mov	x0, #0x4544                	// #17732
   8554c:	f2a8aa40 	movk	x0, #0x4552, lsl #16
   85550:	f2c928e0 	movk	x0, #0x4947, lsl #32
   85554:	f2ea8a60 	movk	x0, #0x5453, lsl #48
   85558:	f90017e0 	str	x0, [sp, #40]
   8555c:	d28a48a0 	mov	x0, #0x5245                	// #21061
   85560:	f2a00400 	movk	x0, #0x20, lsl #16
   85564:	f9001be0 	str	x0, [sp, #48]
   85568:	f9001fff 	str	xzr, [sp, #56]
   8556c:	f90023ff 	str	xzr, [sp, #64]
   85570:	f90027ff 	str	xzr, [sp, #72]
   85574:	f9002bff 	str	xzr, [sp, #80]
   85578:	7900b3ff 	strh	wzr, [sp, #88]
   8557c:	f9000fff 	str	xzr, [sp, #24]
   85580:	790043ff 	strh	wzr, [sp, #32]
   85584:	910063e0 	add	x0, sp, #0x18
   85588:	aa0003e1 	mov	x1, x0
   8558c:	b9409fe0 	ldr	w0, [sp, #156]
   85590:	94000d70 	bl	88b50 <i2a>
   85594:	52800640 	mov	w0, #0x32                  	// #50
   85598:	b9009be0 	str	w0, [sp, #152]
   8559c:	910063e1 	add	x1, sp, #0x18
   855a0:	9100a3e0 	add	x0, sp, #0x28
   855a4:	97ffee81 	bl	80fa8 <strcat>
   855a8:	b9009be0 	str	w0, [sp, #152]
   855ac:	910183e1 	add	x1, sp, #0x60
   855b0:	9100a3e0 	add	x0, sp, #0x28
   855b4:	52800644 	mov	w4, #0x32                  	// #50
   855b8:	aa0103e3 	mov	x3, x1
   855bc:	52800642 	mov	w2, #0x32                  	// #50
   855c0:	aa0003e1 	mov	x1, x0
   855c4:	52800020 	mov	w0, #0x1                   	// #1
   855c8:	94000c70 	bl	88788 <Send>
   855cc:	a8ca7bfd 	ldp	x29, x30, [sp], #160
   855d0:	d65f03c0 	ret

00000000000855d4 <WhoIs>:
   855d4:	a9b77bfd 	stp	x29, x30, [sp, #-144]!
   855d8:	910003fd 	mov	x29, sp
   855dc:	f9000fe0 	str	x0, [sp, #24]
   855e0:	d2890ae0 	mov	x0, #0x4857                	// #18519
   855e4:	f2a929e0 	movk	x0, #0x494f, lsl #16
   855e8:	f2c40a60 	movk	x0, #0x2053, lsl #32
   855ec:	d2800001 	mov	x1, #0x0                   	// #0
   855f0:	a90207e0 	stp	x0, x1, [sp, #32]
   855f4:	a9037fff 	stp	xzr, xzr, [sp, #48]
   855f8:	a9047fff 	stp	xzr, xzr, [sp, #64]
   855fc:	7900a3ff 	strh	wzr, [sp, #80]
   85600:	52800640 	mov	w0, #0x32                  	// #50
   85604:	b9008fe0 	str	w0, [sp, #140]
   85608:	910083e0 	add	x0, sp, #0x20
   8560c:	f9400fe1 	ldr	x1, [sp, #24]
   85610:	97ffee66 	bl	80fa8 <strcat>
   85614:	b9008fe0 	str	w0, [sp, #140]
   85618:	910163e1 	add	x1, sp, #0x58
   8561c:	910083e0 	add	x0, sp, #0x20
   85620:	52800644 	mov	w4, #0x32                  	// #50
   85624:	aa0103e3 	mov	x3, x1
   85628:	52800642 	mov	w2, #0x32                  	// #50
   8562c:	aa0003e1 	mov	x1, x0
   85630:	52800020 	mov	w0, #0x1                   	// #1
   85634:	94000c55 	bl	88788 <Send>
   85638:	910163e0 	add	x0, sp, #0x58
   8563c:	97ffedc1 	bl	80d40 <atoi>
   85640:	a8c97bfd 	ldp	x29, x30, [sp], #144
   85644:	d65f03c0 	ret

0000000000085648 <main>:
   85648:	d10e03ff 	sub	sp, sp, #0x380
   8564c:	a9007bfd 	stp	x29, x30, [sp]
   85650:	910003fd 	mov	x29, sp
   85654:	d0000020 	adrp	x0, 8b000 <el1_a32_serror+0x880>
   85658:	9114a000 	add	x0, x0, #0x528
   8565c:	97ffff96 	bl	854b4 <RegisterAs>
   85660:	52800020 	mov	w0, #0x1                   	// #1
   85664:	b9037fe0 	str	w0, [sp, #892]
   85668:	b9037bff 	str	wzr, [sp, #888]
   8566c:	390cc3ff 	strb	wzr, [sp, #816]
   85670:	52800400 	mov	w0, #0x20                  	// #32
   85674:	390dcfe0 	strb	w0, [sp, #883]
   85678:	94000c93 	bl	888c4 <get_timerLO>
   8567c:	b9036fe0 	str	w0, [sp, #876]
   85680:	b9436fe1 	ldr	w1, [sp, #876]
   85684:	5284e200 	mov	w0, #0x2710                	// #10000
   85688:	0b000020 	add	w0, w1, w0
   8568c:	94000ca4 	bl	8891c <set_timerC3>
   85690:	94000caf 	bl	8894c <get_timerC3>
   85694:	2a0003e2 	mov	w2, w0
   85698:	d0000020 	adrp	x0, 8b000 <el1_a32_serror+0x880>
   8569c:	9114c001 	add	x1, x0, #0x530
   856a0:	d2800020 	mov	x0, #0x1                   	// #1
   856a4:	94000365 	bl	86438 <uart_printf>
   856a8:	b9437fe0 	ldr	w0, [sp, #892]
   856ac:	11000401 	add	w1, w0, #0x1
   856b0:	b9037fe1 	str	w1, [sp, #892]
   856b4:	2a0003e2 	mov	w2, w0
   856b8:	d0000020 	adrp	x0, 8b000 <el1_a32_serror+0x880>
   856bc:	91150001 	add	x1, x0, #0x540
   856c0:	d2800020 	mov	x0, #0x1                   	// #1
   856c4:	9400035d 	bl	86438 <uart_printf>
   856c8:	14000063 	b	85854 <main+0x20c>
   856cc:	94000c7b 	bl	888b8 <Yield>
   856d0:	d2800020 	mov	x0, #0x1                   	// #1
   856d4:	940001f7 	bl	85eb0 <uart_getc_queue>
   856d8:	12001c00 	and	w0, w0, #0xff
   856dc:	7100001f 	cmp	w0, #0x0
   856e0:	54ffff60 	b.eq	856cc <main+0x84>  // b.none
   856e4:	d2800020 	mov	x0, #0x1                   	// #1
   856e8:	94000205 	bl	85efc <uart_getc_modified>
   856ec:	390dcfe0 	strb	w0, [sp, #883]
   856f0:	394dcfe0 	ldrb	w0, [sp, #883]
   856f4:	7100341f 	cmp	w0, #0xd
   856f8:	54000721 	b.ne	857dc <main+0x194>  // b.any
   856fc:	d0000020 	adrp	x0, 8b000 <el1_a32_serror+0x880>
   85700:	91154001 	add	x1, x0, #0x550
   85704:	d2800020 	mov	x0, #0x1                   	// #1
   85708:	9400034c 	bl	86438 <uart_printf>
   8570c:	910043e1 	add	x1, sp, #0x10
   85710:	910cc3e0 	add	x0, sp, #0x330
   85714:	52800c82 	mov	w2, #0x64                  	// #100
   85718:	97ffee4a 	bl	81040 <parse_char_arr>
   8571c:	b9036be0 	str	w0, [sp, #872]
   85720:	910043e1 	add	x1, sp, #0x10
   85724:	910cc3e0 	add	x0, sp, #0x330
   85728:	b9436be2 	ldr	w2, [sp, #872]
   8572c:	97fffa30 	bl	83fec <k2ExecuteCommands>
   85730:	910043e1 	add	x1, sp, #0x10
   85734:	910cc3e0 	add	x0, sp, #0x330
   85738:	b9436be2 	ldr	w2, [sp, #872]
   8573c:	97fffc62 	bl	848c4 <k3ExecuteCommands>
   85740:	3100041f 	cmn	w0, #0x1
   85744:	54000321 	b.ne	857a8 <main+0x160>  // b.any
   85748:	b9436be2 	ldr	w2, [sp, #872]
   8574c:	d0000020 	adrp	x0, 8b000 <el1_a32_serror+0x880>
   85750:	91156001 	add	x1, x0, #0x558
   85754:	d2800020 	mov	x0, #0x1                   	// #1
   85758:	94000338 	bl	86438 <uart_printf>
   8575c:	b90377ff 	str	wzr, [sp, #884]
   85760:	1400000e 	b	85798 <main+0x150>
   85764:	b98377e0 	ldrsw	x0, [sp, #884]
   85768:	d37df000 	lsl	x0, x0, #3
   8576c:	910043e1 	add	x1, sp, #0x10
   85770:	f8606820 	ldr	x0, [x1, x0]
   85774:	aa0003e3 	mov	x3, x0
   85778:	b94377e2 	ldr	w2, [sp, #884]
   8577c:	d0000020 	adrp	x0, 8b000 <el1_a32_serror+0x880>
   85780:	91164001 	add	x1, x0, #0x590
   85784:	d2800020 	mov	x0, #0x1                   	// #1
   85788:	9400032c 	bl	86438 <uart_printf>
   8578c:	b94377e0 	ldr	w0, [sp, #884]
   85790:	11000400 	add	w0, w0, #0x1
   85794:	b90377e0 	str	w0, [sp, #884]
   85798:	b94377e1 	ldr	w1, [sp, #884]
   8579c:	b9436be0 	ldr	w0, [sp, #872]
   857a0:	6b00003f 	cmp	w1, w0
   857a4:	54fffe0b 	b.lt	85764 <main+0x11c>  // b.tstop
   857a8:	b9037bff 	str	wzr, [sp, #888]
   857ac:	390cc3ff 	strb	wzr, [sp, #816]
   857b0:	94000c42 	bl	888b8 <Yield>
   857b4:	b9437fe0 	ldr	w0, [sp, #892]
   857b8:	11000401 	add	w1, w0, #0x1
   857bc:	b9037fe1 	str	w1, [sp, #892]
   857c0:	2a0003e2 	mov	w2, w0
   857c4:	d0000020 	adrp	x0, 8b000 <el1_a32_serror+0x880>
   857c8:	91150001 	add	x1, x0, #0x540
   857cc:	d2800020 	mov	x0, #0x1                   	// #1
   857d0:	9400031a 	bl	86438 <uart_printf>
   857d4:	94000c39 	bl	888b8 <Yield>
   857d8:	1400001f 	b	85854 <main+0x20c>
   857dc:	394dcfe0 	ldrb	w0, [sp, #883]
   857e0:	7100201f 	cmp	w0, #0x8
   857e4:	540001e1 	b.ne	85820 <main+0x1d8>  // b.any
   857e8:	b9437be0 	ldr	w0, [sp, #888]
   857ec:	7100001f 	cmp	w0, #0x0
   857f0:	5400032d 	b.le	85854 <main+0x20c>
   857f4:	b9437be0 	ldr	w0, [sp, #888]
   857f8:	51000400 	sub	w0, w0, #0x1
   857fc:	b9037be0 	str	w0, [sp, #888]
   85800:	b9837be0 	ldrsw	x0, [sp, #888]
   85804:	910cc3e1 	add	x1, sp, #0x330
   85808:	3820683f 	strb	wzr, [x1, x0]
   8580c:	d0000020 	adrp	x0, 8b000 <el1_a32_serror+0x880>
   85810:	91168001 	add	x1, x0, #0x5a0
   85814:	d2800020 	mov	x0, #0x1                   	// #1
   85818:	94000308 	bl	86438 <uart_printf>
   8581c:	1400000e 	b	85854 <main+0x20c>
   85820:	b9837be0 	ldrsw	x0, [sp, #888]
   85824:	910cc3e1 	add	x1, sp, #0x330
   85828:	394dcfe2 	ldrb	w2, [sp, #883]
   8582c:	38206822 	strb	w2, [x1, x0]
   85830:	b9437be0 	ldr	w0, [sp, #888]
   85834:	11000400 	add	w0, w0, #0x1
   85838:	b9037be0 	str	w0, [sp, #888]
   8583c:	b9837be0 	ldrsw	x0, [sp, #888]
   85840:	910cc3e1 	add	x1, sp, #0x330
   85844:	3820683f 	strb	wzr, [x1, x0]
   85848:	394dcfe1 	ldrb	w1, [sp, #883]
   8584c:	d2800020 	mov	x0, #0x1                   	// #1
   85850:	94000205 	bl	86064 <uart_putc>
   85854:	910cc3e2 	add	x2, sp, #0x330
   85858:	d0000020 	adrp	x0, 8b000 <el1_a32_serror+0x880>
   8585c:	9116a001 	add	x1, x0, #0x5a8
   85860:	aa0203e0 	mov	x0, x2
   85864:	97ffedae 	bl	80f1c <strcmp_ret>
   85868:	7100001f 	cmp	w0, #0x0
   8586c:	54fff320 	b.eq	856d0 <main+0x88>  // b.none
   85870:	d0000020 	adrp	x0, 8b000 <el1_a32_serror+0x880>
   85874:	91154001 	add	x1, x0, #0x550
   85878:	d2800020 	mov	x0, #0x1                   	// #1
   8587c:	940002ef 	bl	86438 <uart_printf>
   85880:	d0000020 	adrp	x0, 8b000 <el1_a32_serror+0x880>
   85884:	9116c001 	add	x1, x0, #0x5b0
   85888:	d2800020 	mov	x0, #0x1                   	// #1
   8588c:	940002eb 	bl	86438 <uart_printf>
   85890:	94000c03 	bl	8889c <Exit>
   85894:	d503201f 	nop
   85898:	a9407bfd 	ldp	x29, x30, [sp]
   8589c:	910e03ff 	add	sp, sp, #0x380
   858a0:	d65f03c0 	ret

00000000000858a4 <idle>:
   858a4:	a9bf7bfd 	stp	x29, x30, [sp, #-16]!
   858a8:	910003fd 	mov	x29, sp
   858ac:	94001097 	bl	89b08 <wfi>
   858b0:	d503201f 	nop
   858b4:	a8c17bfd 	ldp	x29, x30, [sp], #16
   858b8:	d65f03c0 	ret

00000000000858bc <FirstUserTask>:
   858bc:	a9be7bfd 	stp	x29, x30, [sp, #-32]!
   858c0:	910003fd 	mov	x29, sp
   858c4:	d0000020 	adrp	x0, 8b000 <el1_a32_serror+0x880>
   858c8:	9116e000 	add	x0, x0, #0x5b8
   858cc:	97fffefa 	bl	854b4 <RegisterAs>
   858d0:	f0ffffc0 	adrp	x0, 80000 <_start>
   858d4:	91200001 	add	x1, x0, #0x800
   858d8:	52800040 	mov	w0, #0x2                   	// #2
   858dc:	94000bd7 	bl	88838 <Create>
   858e0:	b9001fe0 	str	w0, [sp, #28]
   858e4:	f0ffffc0 	adrp	x0, 80000 <_start>
   858e8:	91217001 	add	x1, x0, #0x85c
   858ec:	52800000 	mov	w0, #0x0                   	// #0
   858f0:	94000bd2 	bl	88838 <Create>
   858f4:	b9001fe0 	str	w0, [sp, #28]
   858f8:	90000000 	adrp	x0, 85000 <myfree+0x1a8>
   858fc:	91229001 	add	x1, x0, #0x8a4
   85900:	52800020 	mov	w0, #0x1                   	// #1
   85904:	94000bcd 	bl	88838 <Create>
   85908:	52800283 	mov	w3, #0x14                  	// #20
   8590c:	52800142 	mov	w2, #0xa                   	// #10
   85910:	d0000020 	adrp	x0, 8b000 <el1_a32_serror+0x880>
   85914:	91172001 	add	x1, x0, #0x5c8
   85918:	52800060 	mov	w0, #0x3                   	// #3
   8591c:	97fffc87 	bl	84b38 <init_clock_proc>
   85920:	52800123 	mov	w3, #0x9                   	// #9
   85924:	528002e2 	mov	w2, #0x17                  	// #23
   85928:	d0000020 	adrp	x0, 8b000 <el1_a32_serror+0x880>
   8592c:	91174001 	add	x1, x0, #0x5d0
   85930:	52800080 	mov	w0, #0x4                   	// #4
   85934:	97fffc81 	bl	84b38 <init_clock_proc>
   85938:	528000c3 	mov	w3, #0x6                   	// #6
   8593c:	52800422 	mov	w2, #0x21                  	// #33
   85940:	d0000020 	adrp	x0, 8b000 <el1_a32_serror+0x880>
   85944:	91176001 	add	x1, x0, #0x5d8
   85948:	528000a0 	mov	w0, #0x5                   	// #5
   8594c:	97fffc7b 	bl	84b38 <init_clock_proc>
   85950:	52800063 	mov	w3, #0x3                   	// #3
   85954:	528008e2 	mov	w2, #0x47                  	// #71
   85958:	d0000020 	adrp	x0, 8b000 <el1_a32_serror+0x880>
   8595c:	91178001 	add	x1, x0, #0x5e0
   85960:	528000c0 	mov	w0, #0x6                   	// #6
   85964:	97fffc75 	bl	84b38 <init_clock_proc>
   85968:	94000bcd 	bl	8889c <Exit>
   8596c:	d503201f 	nop
   85970:	a8c27bfd 	ldp	x29, x30, [sp], #32
   85974:	d65f03c0 	ret

0000000000085978 <setup_gpio>:
   85978:	d10083ff 	sub	sp, sp, #0x20
   8597c:	b9000fe0 	str	w0, [sp, #12]
   85980:	b9000be1 	str	w1, [sp, #8]
   85984:	b90007e2 	str	w2, [sp, #4]
   85988:	b9400fe1 	ldr	w1, [sp, #12]
   8598c:	529999a0 	mov	w0, #0xcccd                	// #52429
   85990:	72b99980 	movk	w0, #0xcccc, lsl #16
   85994:	9ba07c20 	umull	x0, w1, w0
   85998:	d360fc00 	lsr	x0, x0, #32
   8599c:	53037c00 	lsr	w0, w0, #3
   859a0:	b9001fe0 	str	w0, [sp, #28]
   859a4:	b9400fe2 	ldr	w2, [sp, #12]
   859a8:	529999a0 	mov	w0, #0xcccd                	// #52429
   859ac:	72b99980 	movk	w0, #0xcccc, lsl #16
   859b0:	9ba07c40 	umull	x0, w2, w0
   859b4:	d360fc00 	lsr	x0, x0, #32
   859b8:	53037c01 	lsr	w1, w0, #3
   859bc:	2a0103e0 	mov	w0, w1
   859c0:	531e7400 	lsl	w0, w0, #2
   859c4:	0b010000 	add	w0, w0, w1
   859c8:	531f7800 	lsl	w0, w0, #1
   859cc:	4b000041 	sub	w1, w2, w0
   859d0:	2a0103e0 	mov	w0, w1
   859d4:	531f7800 	lsl	w0, w0, #1
   859d8:	0b010000 	add	w0, w0, w1
   859dc:	b9001be0 	str	w0, [sp, #24]
   859e0:	d2bfc401 	mov	x1, #0xfe200000            	// #4263510016
   859e4:	d0000020 	adrp	x0, 8b000 <el1_a32_serror+0x880>
   859e8:	9117e000 	add	x0, x0, #0x5f8
   859ec:	b9401fe2 	ldr	w2, [sp, #28]
   859f0:	b8627800 	ldr	w0, [x0, x2, lsl #2]
   859f4:	2a0003e0 	mov	w0, w0
   859f8:	8b000020 	add	x0, x1, x0
   859fc:	b9400000 	ldr	w0, [x0]
   85a00:	b90017e0 	str	w0, [sp, #20]
   85a04:	b9401be0 	ldr	w0, [sp, #24]
   85a08:	528000e1 	mov	w1, #0x7                   	// #7
   85a0c:	1ac02020 	lsl	w0, w1, w0
   85a10:	2a2003e0 	mvn	w0, w0
   85a14:	b94017e1 	ldr	w1, [sp, #20]
   85a18:	0a000020 	and	w0, w1, w0
   85a1c:	b90017e0 	str	w0, [sp, #20]
   85a20:	b9401be0 	ldr	w0, [sp, #24]
   85a24:	b9400be1 	ldr	w1, [sp, #8]
   85a28:	1ac02020 	lsl	w0, w1, w0
   85a2c:	b94017e1 	ldr	w1, [sp, #20]
   85a30:	2a000020 	orr	w0, w1, w0
   85a34:	b90017e0 	str	w0, [sp, #20]
   85a38:	d2bfc401 	mov	x1, #0xfe200000            	// #4263510016
   85a3c:	d0000020 	adrp	x0, 8b000 <el1_a32_serror+0x880>
   85a40:	9117e000 	add	x0, x0, #0x5f8
   85a44:	b9401fe2 	ldr	w2, [sp, #28]
   85a48:	b8627800 	ldr	w0, [x0, x2, lsl #2]
   85a4c:	2a0003e0 	mov	w0, w0
   85a50:	8b000020 	add	x0, x1, x0
   85a54:	b94017e1 	ldr	w1, [sp, #20]
   85a58:	b9000001 	str	w1, [x0]
   85a5c:	b9400fe0 	ldr	w0, [sp, #12]
   85a60:	53047c00 	lsr	w0, w0, #4
   85a64:	b9001fe0 	str	w0, [sp, #28]
   85a68:	b9400fe0 	ldr	w0, [sp, #12]
   85a6c:	12000c00 	and	w0, w0, #0xf
   85a70:	531f7800 	lsl	w0, w0, #1
   85a74:	b9001be0 	str	w0, [sp, #24]
   85a78:	d2bfc401 	mov	x1, #0xfe200000            	// #4263510016
   85a7c:	d0000020 	adrp	x0, 8b000 <el1_a32_serror+0x880>
   85a80:	91184000 	add	x0, x0, #0x610
   85a84:	b9401fe2 	ldr	w2, [sp, #28]
   85a88:	b8627800 	ldr	w0, [x0, x2, lsl #2]
   85a8c:	2a0003e0 	mov	w0, w0
   85a90:	8b000020 	add	x0, x1, x0
   85a94:	b9400000 	ldr	w0, [x0]
   85a98:	b90017e0 	str	w0, [sp, #20]
   85a9c:	b9401be0 	ldr	w0, [sp, #24]
   85aa0:	52800061 	mov	w1, #0x3                   	// #3
   85aa4:	1ac02020 	lsl	w0, w1, w0
   85aa8:	2a2003e0 	mvn	w0, w0
   85aac:	b94017e1 	ldr	w1, [sp, #20]
   85ab0:	0a000020 	and	w0, w1, w0
   85ab4:	b90017e0 	str	w0, [sp, #20]
   85ab8:	b9401be0 	ldr	w0, [sp, #24]
   85abc:	b94007e1 	ldr	w1, [sp, #4]
   85ac0:	1ac02020 	lsl	w0, w1, w0
   85ac4:	b94017e1 	ldr	w1, [sp, #20]
   85ac8:	2a000020 	orr	w0, w1, w0
   85acc:	b90017e0 	str	w0, [sp, #20]
   85ad0:	d2bfc401 	mov	x1, #0xfe200000            	// #4263510016
   85ad4:	d0000020 	adrp	x0, 8b000 <el1_a32_serror+0x880>
   85ad8:	91184000 	add	x0, x0, #0x610
   85adc:	b9401fe2 	ldr	w2, [sp, #28]
   85ae0:	b8627800 	ldr	w0, [x0, x2, lsl #2]
   85ae4:	2a0003e0 	mov	w0, w0
   85ae8:	8b000020 	add	x0, x1, x0
   85aec:	b94017e1 	ldr	w1, [sp, #20]
   85af0:	b9000001 	str	w1, [x0]
   85af4:	d503201f 	nop
   85af8:	910083ff 	add	sp, sp, #0x20
   85afc:	d65f03c0 	ret

0000000000085b00 <uart_init>:
   85b00:	a9bf7bfd 	stp	x29, x30, [sp, #-16]!
   85b04:	910003fd 	mov	x29, sp
   85b08:	52800060 	mov	w0, #0x3                   	// #3
   85b0c:	52800001 	mov	w1, #0x0                   	// #0
   85b10:	2a0103e2 	mov	w2, w1
   85b14:	2a0003e1 	mov	w1, w0
   85b18:	52800080 	mov	w0, #0x4                   	// #4
   85b1c:	97ffff97 	bl	85978 <setup_gpio>
   85b20:	52800060 	mov	w0, #0x3                   	// #3
   85b24:	52800001 	mov	w1, #0x0                   	// #0
   85b28:	2a0103e2 	mov	w2, w1
   85b2c:	2a0003e1 	mov	w1, w0
   85b30:	528000a0 	mov	w0, #0x5                   	// #5
   85b34:	97ffff91 	bl	85978 <setup_gpio>
   85b38:	52800060 	mov	w0, #0x3                   	// #3
   85b3c:	52800001 	mov	w1, #0x0                   	// #0
   85b40:	2a0103e2 	mov	w2, w1
   85b44:	2a0003e1 	mov	w1, w0
   85b48:	528000c0 	mov	w0, #0x6                   	// #6
   85b4c:	97ffff8b 	bl	85978 <setup_gpio>
   85b50:	52800060 	mov	w0, #0x3                   	// #3
   85b54:	52800001 	mov	w1, #0x0                   	// #0
   85b58:	2a0103e2 	mov	w2, w1
   85b5c:	2a0003e1 	mov	w1, w0
   85b60:	528000e0 	mov	w0, #0x7                   	// #7
   85b64:	97ffff85 	bl	85978 <setup_gpio>
   85b68:	52800080 	mov	w0, #0x4                   	// #4
   85b6c:	52800001 	mov	w1, #0x0                   	// #0
   85b70:	2a0103e2 	mov	w2, w1
   85b74:	2a0003e1 	mov	w1, w0
   85b78:	528001c0 	mov	w0, #0xe                   	// #14
   85b7c:	97ffff7f 	bl	85978 <setup_gpio>
   85b80:	52800080 	mov	w0, #0x4                   	// #4
   85b84:	52800001 	mov	w1, #0x0                   	// #0
   85b88:	2a0103e2 	mov	w2, w1
   85b8c:	2a0003e1 	mov	w1, w0
   85b90:	528001e0 	mov	w0, #0xf                   	// #15
   85b94:	97ffff79 	bl	85978 <setup_gpio>
   85b98:	d503201f 	nop
   85b9c:	a8c17bfd 	ldp	x29, x30, [sp], #16
   85ba0:	d65f03c0 	ret

0000000000085ba4 <uart_config_and_enable>:
   85ba4:	d10083ff 	sub	sp, sp, #0x20
   85ba8:	f90007e0 	str	x0, [sp, #8]
   85bac:	b90007e1 	str	w1, [sp, #4]
   85bb0:	b90003e2 	str	w2, [sp]
   85bb4:	528d8000 	mov	w0, #0x6c00                	// #27648
   85bb8:	72a05b80 	movk	w0, #0x2dc, lsl #16
   85bbc:	2a0003e0 	mov	w0, w0
   85bc0:	d37ef401 	lsl	x1, x0, #2
   85bc4:	b94007e0 	ldr	w0, [sp, #4]
   85bc8:	9ac00820 	udiv	x0, x1, x0
   85bcc:	b9001fe0 	str	w0, [sp, #28]
   85bd0:	d0000020 	adrp	x0, 8b000 <el1_a32_serror+0x880>
   85bd4:	91198000 	add	x0, x0, #0x660
   85bd8:	f94007e1 	ldr	x1, [sp, #8]
   85bdc:	f8617801 	ldr	x1, [x0, x1, lsl #3]
   85be0:	52800600 	mov	w0, #0x30                  	// #48
   85be4:	2a0003e0 	mov	w0, w0
   85be8:	8b000020 	add	x0, x1, x0
   85bec:	b9400000 	ldr	w0, [x0]
   85bf0:	b9001be0 	str	w0, [sp, #24]
   85bf4:	52800020 	mov	w0, #0x1                   	// #1
   85bf8:	2a2003e2 	mvn	w2, w0
   85bfc:	d0000020 	adrp	x0, 8b000 <el1_a32_serror+0x880>
   85c00:	91198000 	add	x0, x0, #0x660
   85c04:	f94007e1 	ldr	x1, [sp, #8]
   85c08:	f8617801 	ldr	x1, [x0, x1, lsl #3]
   85c0c:	52800600 	mov	w0, #0x30                  	// #48
   85c10:	2a0003e0 	mov	w0, w0
   85c14:	8b000020 	add	x0, x1, x0
   85c18:	b9401be1 	ldr	w1, [sp, #24]
   85c1c:	0a010041 	and	w1, w2, w1
   85c20:	b9000001 	str	w1, [x0]
   85c24:	b94003e0 	ldr	w0, [sp]
   85c28:	7100001f 	cmp	w0, #0x0
   85c2c:	54000220 	b.eq	85c70 <uart_config_and_enable+0xcc>  // b.none
   85c30:	52800801 	mov	w1, #0x40                  	// #64
   85c34:	52800400 	mov	w0, #0x20                  	// #32
   85c38:	2a000021 	orr	w1, w1, w0
   85c3c:	52800200 	mov	w0, #0x10                  	// #16
   85c40:	2a000022 	orr	w2, w1, w0
   85c44:	52800101 	mov	w1, #0x8                   	// #8
   85c48:	d0000020 	adrp	x0, 8b000 <el1_a32_serror+0x880>
   85c4c:	91198000 	add	x0, x0, #0x660
   85c50:	f94007e3 	ldr	x3, [sp, #8]
   85c54:	f8637803 	ldr	x3, [x0, x3, lsl #3]
   85c58:	52800580 	mov	w0, #0x2c                  	// #44
   85c5c:	2a0003e0 	mov	w0, w0
   85c60:	8b000060 	add	x0, x3, x0
   85c64:	2a010041 	orr	w1, w2, w1
   85c68:	b9000001 	str	w1, [x0]
   85c6c:	1400000e 	b	85ca4 <uart_config_and_enable+0x100>
   85c70:	52800801 	mov	w1, #0x40                  	// #64
   85c74:	52800400 	mov	w0, #0x20                  	// #32
   85c78:	2a000022 	orr	w2, w1, w0
   85c7c:	52800201 	mov	w1, #0x10                  	// #16
   85c80:	d0000020 	adrp	x0, 8b000 <el1_a32_serror+0x880>
   85c84:	91198000 	add	x0, x0, #0x660
   85c88:	f94007e3 	ldr	x3, [sp, #8]
   85c8c:	f8637803 	ldr	x3, [x0, x3, lsl #3]
   85c90:	52800580 	mov	w0, #0x2c                  	// #44
   85c94:	2a0003e0 	mov	w0, w0
   85c98:	8b000060 	add	x0, x3, x0
   85c9c:	2a010041 	orr	w1, w2, w1
   85ca0:	b9000001 	str	w1, [x0]
   85ca4:	d0000020 	adrp	x0, 8b000 <el1_a32_serror+0x880>
   85ca8:	91198000 	add	x0, x0, #0x660
   85cac:	f94007e1 	ldr	x1, [sp, #8]
   85cb0:	f8617801 	ldr	x1, [x0, x1, lsl #3]
   85cb4:	52800480 	mov	w0, #0x24                  	// #36
   85cb8:	2a0003e0 	mov	w0, w0
   85cbc:	8b000020 	add	x0, x1, x0
   85cc0:	b9401fe1 	ldr	w1, [sp, #28]
   85cc4:	53067c21 	lsr	w1, w1, #6
   85cc8:	b9000001 	str	w1, [x0]
   85ccc:	d0000020 	adrp	x0, 8b000 <el1_a32_serror+0x880>
   85cd0:	91198000 	add	x0, x0, #0x660
   85cd4:	f94007e1 	ldr	x1, [sp, #8]
   85cd8:	f8617801 	ldr	x1, [x0, x1, lsl #3]
   85cdc:	52800500 	mov	w0, #0x28                  	// #40
   85ce0:	2a0003e0 	mov	w0, w0
   85ce4:	8b000020 	add	x0, x1, x0
   85ce8:	b9401fe1 	ldr	w1, [sp, #28]
   85cec:	12001421 	and	w1, w1, #0x3f
   85cf0:	b9000001 	str	w1, [x0]
   85cf4:	b94003e0 	ldr	w0, [sp]
   85cf8:	7100001f 	cmp	w0, #0x0
   85cfc:	54000260 	b.eq	85d48 <uart_config_and_enable+0x1a4>  // b.none
   85d00:	52800021 	mov	w1, #0x1                   	// #1
   85d04:	b9401be0 	ldr	w0, [sp, #24]
   85d08:	2a000021 	orr	w1, w1, w0
   85d0c:	52802000 	mov	w0, #0x100                 	// #256
   85d10:	2a000021 	orr	w1, w1, w0
   85d14:	52804000 	mov	w0, #0x200                 	// #512
   85d18:	2a000022 	orr	w2, w1, w0
   85d1c:	52900001 	mov	w1, #0x8000                	// #32768
   85d20:	d0000020 	adrp	x0, 8b000 <el1_a32_serror+0x880>
   85d24:	91198000 	add	x0, x0, #0x660
   85d28:	f94007e3 	ldr	x3, [sp, #8]
   85d2c:	f8637803 	ldr	x3, [x0, x3, lsl #3]
   85d30:	52800600 	mov	w0, #0x30                  	// #48
   85d34:	2a0003e0 	mov	w0, w0
   85d38:	8b000060 	add	x0, x3, x0
   85d3c:	2a010041 	orr	w1, w2, w1
   85d40:	b9000001 	str	w1, [x0]
   85d44:	14000010 	b	85d84 <uart_config_and_enable+0x1e0>
   85d48:	52800021 	mov	w1, #0x1                   	// #1
   85d4c:	b9401be0 	ldr	w0, [sp, #24]
   85d50:	2a000021 	orr	w1, w1, w0
   85d54:	52802000 	mov	w0, #0x100                 	// #256
   85d58:	2a000022 	orr	w2, w1, w0
   85d5c:	52804001 	mov	w1, #0x200                 	// #512
   85d60:	d0000020 	adrp	x0, 8b000 <el1_a32_serror+0x880>
   85d64:	91198000 	add	x0, x0, #0x660
   85d68:	f94007e3 	ldr	x3, [sp, #8]
   85d6c:	f8637803 	ldr	x3, [x0, x3, lsl #3]
   85d70:	52800600 	mov	w0, #0x30                  	// #48
   85d74:	2a0003e0 	mov	w0, w0
   85d78:	8b000060 	add	x0, x3, x0
   85d7c:	2a010041 	orr	w1, w2, w1
   85d80:	b9000001 	str	w1, [x0]
   85d84:	d503201f 	nop
   85d88:	910083ff 	add	sp, sp, #0x20
   85d8c:	d65f03c0 	ret

0000000000085d90 <uart_config_and_enable_marklin>:
   85d90:	d10043ff 	sub	sp, sp, #0x10
   85d94:	52812c00 	mov	w0, #0x960                 	// #2400
   85d98:	b9000fe0 	str	w0, [sp, #12]
   85d9c:	528d8000 	mov	w0, #0x6c00                	// #27648
   85da0:	72a05b80 	movk	w0, #0x2dc, lsl #16
   85da4:	2a0003e0 	mov	w0, w0
   85da8:	d37ef401 	lsl	x1, x0, #2
   85dac:	b9400fe0 	ldr	w0, [sp, #12]
   85db0:	9ac00820 	udiv	x0, x1, x0
   85db4:	b9000be0 	str	w0, [sp, #8]
   85db8:	d282c001 	mov	x1, #0x1600                	// #5632
   85dbc:	f2bfc401 	movk	x1, #0xfe20, lsl #16
   85dc0:	52800600 	mov	w0, #0x30                  	// #48
   85dc4:	2a0003e0 	mov	w0, w0
   85dc8:	8b000020 	add	x0, x1, x0
   85dcc:	b9400000 	ldr	w0, [x0]
   85dd0:	b90007e0 	str	w0, [sp, #4]
   85dd4:	52800020 	mov	w0, #0x1                   	// #1
   85dd8:	2a2003e2 	mvn	w2, w0
   85ddc:	d282c001 	mov	x1, #0x1600                	// #5632
   85de0:	f2bfc401 	movk	x1, #0xfe20, lsl #16
   85de4:	52800600 	mov	w0, #0x30                  	// #48
   85de8:	2a0003e0 	mov	w0, w0
   85dec:	8b000020 	add	x0, x1, x0
   85df0:	b94007e1 	ldr	w1, [sp, #4]
   85df4:	0a010041 	and	w1, w2, w1
   85df8:	b9000001 	str	w1, [x0]
   85dfc:	d282c001 	mov	x1, #0x1600                	// #5632
   85e00:	f2bfc401 	movk	x1, #0xfe20, lsl #16
   85e04:	52800480 	mov	w0, #0x24                  	// #36
   85e08:	2a0003e0 	mov	w0, w0
   85e0c:	8b000020 	add	x0, x1, x0
   85e10:	b9400be1 	ldr	w1, [sp, #8]
   85e14:	53067c21 	lsr	w1, w1, #6
   85e18:	b9000001 	str	w1, [x0]
   85e1c:	d282c001 	mov	x1, #0x1600                	// #5632
   85e20:	f2bfc401 	movk	x1, #0xfe20, lsl #16
   85e24:	52800500 	mov	w0, #0x28                  	// #40
   85e28:	2a0003e0 	mov	w0, w0
   85e2c:	8b000020 	add	x0, x1, x0
   85e30:	b9400be1 	ldr	w1, [sp, #8]
   85e34:	12001421 	and	w1, w1, #0x3f
   85e38:	b9000001 	str	w1, [x0]
   85e3c:	52800801 	mov	w1, #0x40                  	// #64
   85e40:	52800400 	mov	w0, #0x20                  	// #32
   85e44:	2a000021 	orr	w1, w1, w0
   85e48:	52800100 	mov	w0, #0x8                   	// #8
   85e4c:	2a000022 	orr	w2, w1, w0
   85e50:	52800201 	mov	w1, #0x10                  	// #16
   85e54:	d282c003 	mov	x3, #0x1600                	// #5632
   85e58:	f2bfc403 	movk	x3, #0xfe20, lsl #16
   85e5c:	52800580 	mov	w0, #0x2c                  	// #44
   85e60:	2a0003e0 	mov	w0, w0
   85e64:	8b000060 	add	x0, x3, x0
   85e68:	2a010041 	orr	w1, w2, w1
   85e6c:	b9000001 	str	w1, [x0]
   85e70:	52800021 	mov	w1, #0x1                   	// #1
   85e74:	b94007e0 	ldr	w0, [sp, #4]
   85e78:	2a000021 	orr	w1, w1, w0
   85e7c:	52802000 	mov	w0, #0x100                 	// #256
   85e80:	2a000022 	orr	w2, w1, w0
   85e84:	52804001 	mov	w1, #0x200                 	// #512
   85e88:	d282c003 	mov	x3, #0x1600                	// #5632
   85e8c:	f2bfc403 	movk	x3, #0xfe20, lsl #16
   85e90:	52800600 	mov	w0, #0x30                  	// #48
   85e94:	2a0003e0 	mov	w0, w0
   85e98:	8b000060 	add	x0, x3, x0
   85e9c:	2a010041 	orr	w1, w2, w1
   85ea0:	b9000001 	str	w1, [x0]
   85ea4:	d503201f 	nop
   85ea8:	910043ff 	add	sp, sp, #0x10
   85eac:	d65f03c0 	ret

0000000000085eb0 <uart_getc_queue>:
   85eb0:	d10043ff 	sub	sp, sp, #0x10
   85eb4:	f90007e0 	str	x0, [sp, #8]
   85eb8:	d0000020 	adrp	x0, 8b000 <el1_a32_serror+0x880>
   85ebc:	91198000 	add	x0, x0, #0x660
   85ec0:	f94007e1 	ldr	x1, [sp, #8]
   85ec4:	f8617801 	ldr	x1, [x0, x1, lsl #3]
   85ec8:	52800300 	mov	w0, #0x18                  	// #24
   85ecc:	2a0003e0 	mov	w0, w0
   85ed0:	8b000020 	add	x0, x1, x0
   85ed4:	b9400001 	ldr	w1, [x0]
   85ed8:	52800200 	mov	w0, #0x10                  	// #16
   85edc:	0a000020 	and	w0, w1, w0
   85ee0:	7100001f 	cmp	w0, #0x0
   85ee4:	54000060 	b.eq	85ef0 <uart_getc_queue+0x40>  // b.none
   85ee8:	52800000 	mov	w0, #0x0                   	// #0
   85eec:	14000002 	b	85ef4 <uart_getc_queue+0x44>
   85ef0:	52800020 	mov	w0, #0x1                   	// #1
   85ef4:	910043ff 	add	sp, sp, #0x10
   85ef8:	d65f03c0 	ret

0000000000085efc <uart_getc_modified>:
   85efc:	d10083ff 	sub	sp, sp, #0x20
   85f00:	f90007e0 	str	x0, [sp, #8]
   85f04:	d0000020 	adrp	x0, 8b000 <el1_a32_serror+0x880>
   85f08:	91198000 	add	x0, x0, #0x660
   85f0c:	f94007e1 	ldr	x1, [sp, #8]
   85f10:	f8617801 	ldr	x1, [x0, x1, lsl #3]
   85f14:	52800300 	mov	w0, #0x18                  	// #24
   85f18:	2a0003e0 	mov	w0, w0
   85f1c:	8b000020 	add	x0, x1, x0
   85f20:	b9400001 	ldr	w1, [x0]
   85f24:	52800200 	mov	w0, #0x10                  	// #16
   85f28:	0a000020 	and	w0, w1, w0
   85f2c:	7100001f 	cmp	w0, #0x0
   85f30:	54000060 	b.eq	85f3c <uart_getc_modified+0x40>  // b.none
   85f34:	52800000 	mov	w0, #0x0                   	// #0
   85f38:	1400000b 	b	85f64 <uart_getc_modified+0x68>
   85f3c:	d0000020 	adrp	x0, 8b000 <el1_a32_serror+0x880>
   85f40:	91198000 	add	x0, x0, #0x660
   85f44:	f94007e1 	ldr	x1, [sp, #8]
   85f48:	f8617801 	ldr	x1, [x0, x1, lsl #3]
   85f4c:	52800000 	mov	w0, #0x0                   	// #0
   85f50:	2a0003e0 	mov	w0, w0
   85f54:	8b000020 	add	x0, x1, x0
   85f58:	b9400000 	ldr	w0, [x0]
   85f5c:	39007fe0 	strb	w0, [sp, #31]
   85f60:	39407fe0 	ldrb	w0, [sp, #31]
   85f64:	910083ff 	add	sp, sp, #0x20
   85f68:	d65f03c0 	ret

0000000000085f6c <uart_getc>:
   85f6c:	d10083ff 	sub	sp, sp, #0x20
   85f70:	f90007e0 	str	x0, [sp, #8]
   85f74:	d503201f 	nop
   85f78:	d0000020 	adrp	x0, 8b000 <el1_a32_serror+0x880>
   85f7c:	91198000 	add	x0, x0, #0x660
   85f80:	f94007e1 	ldr	x1, [sp, #8]
   85f84:	f8617801 	ldr	x1, [x0, x1, lsl #3]
   85f88:	52800300 	mov	w0, #0x18                  	// #24
   85f8c:	2a0003e0 	mov	w0, w0
   85f90:	8b000020 	add	x0, x1, x0
   85f94:	b9400001 	ldr	w1, [x0]
   85f98:	52800200 	mov	w0, #0x10                  	// #16
   85f9c:	0a000020 	and	w0, w1, w0
   85fa0:	7100001f 	cmp	w0, #0x0
   85fa4:	54fffea1 	b.ne	85f78 <uart_getc+0xc>  // b.any
   85fa8:	d0000020 	adrp	x0, 8b000 <el1_a32_serror+0x880>
   85fac:	91198000 	add	x0, x0, #0x660
   85fb0:	f94007e1 	ldr	x1, [sp, #8]
   85fb4:	f8617801 	ldr	x1, [x0, x1, lsl #3]
   85fb8:	52800000 	mov	w0, #0x0                   	// #0
   85fbc:	2a0003e0 	mov	w0, w0
   85fc0:	8b000020 	add	x0, x1, x0
   85fc4:	b9400000 	ldr	w0, [x0]
   85fc8:	39007fe0 	strb	w0, [sp, #31]
   85fcc:	39407fe0 	ldrb	w0, [sp, #31]
   85fd0:	910083ff 	add	sp, sp, #0x20
   85fd4:	d65f03c0 	ret

0000000000085fd8 <uart_rxc>:
   85fd8:	d10083ff 	sub	sp, sp, #0x20
   85fdc:	f90007e0 	str	x0, [sp, #8]
   85fe0:	d0000020 	adrp	x0, 8b000 <el1_a32_serror+0x880>
   85fe4:	91198000 	add	x0, x0, #0x660
   85fe8:	f94007e1 	ldr	x1, [sp, #8]
   85fec:	f8617801 	ldr	x1, [x0, x1, lsl #3]
   85ff0:	52800300 	mov	w0, #0x18                  	// #24
   85ff4:	2a0003e0 	mov	w0, w0
   85ff8:	8b000020 	add	x0, x1, x0
   85ffc:	b9400001 	ldr	w1, [x0]
   86000:	52800200 	mov	w0, #0x10                  	// #16
   86004:	0a000020 	and	w0, w1, w0
   86008:	7100001f 	cmp	w0, #0x0
   8600c:	1a9f17e0 	cset	w0, eq	// eq = none
   86010:	12001c00 	and	w0, w0, #0xff
   86014:	b9001fe0 	str	w0, [sp, #28]
   86018:	b9401fe0 	ldr	w0, [sp, #28]
   8601c:	910083ff 	add	sp, sp, #0x20
   86020:	d65f03c0 	ret

0000000000086024 <uart_cts>:
   86024:	d10083ff 	sub	sp, sp, #0x20
   86028:	f90007e0 	str	x0, [sp, #8]
   8602c:	b0000020 	adrp	x0, 8b000 <el1_a32_serror+0x880>
   86030:	91198000 	add	x0, x0, #0x660
   86034:	f94007e1 	ldr	x1, [sp, #8]
   86038:	f8617801 	ldr	x1, [x0, x1, lsl #3]
   8603c:	52800300 	mov	w0, #0x18                  	// #24
   86040:	2a0003e0 	mov	w0, w0
   86044:	8b000020 	add	x0, x1, x0
   86048:	b9400001 	ldr	w1, [x0]
   8604c:	52800020 	mov	w0, #0x1                   	// #1
   86050:	0a000020 	and	w0, w1, w0
   86054:	b9001fe0 	str	w0, [sp, #28]
   86058:	b9401fe0 	ldr	w0, [sp, #28]
   8605c:	910083ff 	add	sp, sp, #0x20
   86060:	d65f03c0 	ret

0000000000086064 <uart_putc>:
   86064:	d10043ff 	sub	sp, sp, #0x10
   86068:	f90007e0 	str	x0, [sp, #8]
   8606c:	39001fe1 	strb	w1, [sp, #7]
   86070:	d503201f 	nop
   86074:	b0000020 	adrp	x0, 8b000 <el1_a32_serror+0x880>
   86078:	91198000 	add	x0, x0, #0x660
   8607c:	f94007e1 	ldr	x1, [sp, #8]
   86080:	f8617801 	ldr	x1, [x0, x1, lsl #3]
   86084:	52800300 	mov	w0, #0x18                  	// #24
   86088:	2a0003e0 	mov	w0, w0
   8608c:	8b000020 	add	x0, x1, x0
   86090:	b9400001 	ldr	w1, [x0]
   86094:	52800400 	mov	w0, #0x20                  	// #32
   86098:	0a000020 	and	w0, w1, w0
   8609c:	7100001f 	cmp	w0, #0x0
   860a0:	54fffea1 	b.ne	86074 <uart_putc+0x10>  // b.any
   860a4:	b0000020 	adrp	x0, 8b000 <el1_a32_serror+0x880>
   860a8:	91198000 	add	x0, x0, #0x660
   860ac:	f94007e1 	ldr	x1, [sp, #8]
   860b0:	f8617801 	ldr	x1, [x0, x1, lsl #3]
   860b4:	52800000 	mov	w0, #0x0                   	// #0
   860b8:	2a0003e0 	mov	w0, w0
   860bc:	8b000020 	add	x0, x1, x0
   860c0:	39401fe1 	ldrb	w1, [sp, #7]
   860c4:	b9000001 	str	w1, [x0]
   860c8:	d503201f 	nop
   860cc:	910043ff 	add	sp, sp, #0x10
   860d0:	d65f03c0 	ret

00000000000860d4 <uart_putl>:
   860d4:	a9bc7bfd 	stp	x29, x30, [sp, #-64]!
   860d8:	910003fd 	mov	x29, sp
   860dc:	f90017e0 	str	x0, [sp, #40]
   860e0:	f90013e1 	str	x1, [sp, #32]
   860e4:	f9000fe2 	str	x2, [sp, #24]
   860e8:	b9003fff 	str	wzr, [sp, #60]
   860ec:	1400000b 	b	86118 <uart_putl+0x44>
   860f0:	b9403fe0 	ldr	w0, [sp, #60]
   860f4:	f94013e1 	ldr	x1, [sp, #32]
   860f8:	8b000020 	add	x0, x1, x0
   860fc:	39400000 	ldrb	w0, [x0]
   86100:	2a0003e1 	mov	w1, w0
   86104:	f94017e0 	ldr	x0, [sp, #40]
   86108:	97ffffd7 	bl	86064 <uart_putc>
   8610c:	b9403fe0 	ldr	w0, [sp, #60]
   86110:	11000400 	add	w0, w0, #0x1
   86114:	b9003fe0 	str	w0, [sp, #60]
   86118:	b9403fe0 	ldr	w0, [sp, #60]
   8611c:	f9400fe1 	ldr	x1, [sp, #24]
   86120:	eb00003f 	cmp	x1, x0
   86124:	54fffe68 	b.hi	860f0 <uart_putl+0x1c>  // b.pmore
   86128:	d503201f 	nop
   8612c:	d503201f 	nop
   86130:	a8c47bfd 	ldp	x29, x30, [sp], #64
   86134:	d65f03c0 	ret

0000000000086138 <uart_puts>:
   86138:	a9be7bfd 	stp	x29, x30, [sp, #-32]!
   8613c:	910003fd 	mov	x29, sp
   86140:	f9000fe0 	str	x0, [sp, #24]
   86144:	f9000be1 	str	x1, [sp, #16]
   86148:	14000009 	b	8616c <uart_puts+0x34>
   8614c:	f9400be0 	ldr	x0, [sp, #16]
   86150:	39400000 	ldrb	w0, [x0]
   86154:	2a0003e1 	mov	w1, w0
   86158:	f9400fe0 	ldr	x0, [sp, #24]
   8615c:	97ffffc2 	bl	86064 <uart_putc>
   86160:	f9400be0 	ldr	x0, [sp, #16]
   86164:	91000400 	add	x0, x0, #0x1
   86168:	f9000be0 	str	x0, [sp, #16]
   8616c:	f9400be0 	ldr	x0, [sp, #16]
   86170:	39400000 	ldrb	w0, [x0]
   86174:	7100001f 	cmp	w0, #0x0
   86178:	54fffea1 	b.ne	8614c <uart_puts+0x14>  // b.any
   8617c:	d503201f 	nop
   86180:	d503201f 	nop
   86184:	a8c27bfd 	ldp	x29, x30, [sp], #32
   86188:	d65f03c0 	ret

000000000008618c <uart_format_print>:
   8618c:	a9bc7bfd 	stp	x29, x30, [sp, #-64]!
   86190:	910003fd 	mov	x29, sp
   86194:	f9000bf3 	str	x19, [sp, #16]
   86198:	f90017e0 	str	x0, [sp, #40]
   8619c:	f90013e1 	str	x1, [sp, #32]
   861a0:	aa0203f3 	mov	x19, x2
   861a4:	14000098 	b	86404 <uart_format_print+0x278>
   861a8:	3940ffe0 	ldrb	w0, [sp, #63]
   861ac:	7100941f 	cmp	w0, #0x25
   861b0:	540000a0 	b.eq	861c4 <uart_format_print+0x38>  // b.none
   861b4:	3940ffe1 	ldrb	w1, [sp, #63]
   861b8:	f94017e0 	ldr	x0, [sp, #40]
   861bc:	97ffffaa 	bl	86064 <uart_putc>
   861c0:	14000091 	b	86404 <uart_format_print+0x278>
   861c4:	f94013e0 	ldr	x0, [sp, #32]
   861c8:	91000401 	add	x1, x0, #0x1
   861cc:	f90013e1 	str	x1, [sp, #32]
   861d0:	39400000 	ldrb	w0, [x0]
   861d4:	3900ffe0 	strb	w0, [sp, #63]
   861d8:	3940ffe0 	ldrb	w0, [sp, #63]
   861dc:	7101e01f 	cmp	w0, #0x78
   861e0:	540009c0 	b.eq	86318 <uart_format_print+0x18c>  // b.none
   861e4:	7101e01f 	cmp	w0, #0x78
   861e8:	540010ec 	b.gt	86404 <uart_format_print+0x278>
   861ec:	7101d41f 	cmp	w0, #0x75
   861f0:	54000200 	b.eq	86230 <uart_format_print+0xa4>  // b.none
   861f4:	7101d41f 	cmp	w0, #0x75
   861f8:	5400106c 	b.gt	86404 <uart_format_print+0x278>
   861fc:	7101cc1f 	cmp	w0, #0x73
   86200:	54000c80 	b.eq	86390 <uart_format_print+0x204>  // b.none
   86204:	7101cc1f 	cmp	w0, #0x73
   86208:	54000fec 	b.gt	86404 <uart_format_print+0x278>
   8620c:	7101901f 	cmp	w0, #0x64
   86210:	540004c0 	b.eq	862a8 <uart_format_print+0x11c>  // b.none
   86214:	7101901f 	cmp	w0, #0x64
   86218:	54000f6c 	b.gt	86404 <uart_format_print+0x278>
   8621c:	7100001f 	cmp	w0, #0x0
   86220:	54001040 	b.eq	86428 <uart_format_print+0x29c>  // b.none
   86224:	7100941f 	cmp	w0, #0x25
   86228:	54000e60 	b.eq	863f4 <uart_format_print+0x268>  // b.none
   8622c:	14000076 	b	86404 <uart_format_print+0x278>
   86230:	b9401a61 	ldr	w1, [x19, #24]
   86234:	f9400260 	ldr	x0, [x19]
   86238:	7100003f 	cmp	w1, #0x0
   8623c:	540000ab 	b.lt	86250 <uart_format_print+0xc4>  // b.tstop
   86240:	91002c01 	add	x1, x0, #0xb
   86244:	927df021 	and	x1, x1, #0xfffffffffffffff8
   86248:	f9000261 	str	x1, [x19]
   8624c:	1400000d 	b	86280 <uart_format_print+0xf4>
   86250:	11002022 	add	w2, w1, #0x8
   86254:	b9001a62 	str	w2, [x19, #24]
   86258:	b9401a62 	ldr	w2, [x19, #24]
   8625c:	7100005f 	cmp	w2, #0x0
   86260:	540000ad 	b.le	86274 <uart_format_print+0xe8>
   86264:	91002c01 	add	x1, x0, #0xb
   86268:	927df021 	and	x1, x1, #0xfffffffffffffff8
   8626c:	f9000261 	str	x1, [x19]
   86270:	14000004 	b	86280 <uart_format_print+0xf4>
   86274:	f9400662 	ldr	x2, [x19, #8]
   86278:	93407c20 	sxtw	x0, w1
   8627c:	8b000040 	add	x0, x2, x0
   86280:	b9400000 	ldr	w0, [x0]
   86284:	9100c3e1 	add	x1, sp, #0x30
   86288:	aa0103e2 	mov	x2, x1
   8628c:	52800141 	mov	w1, #0xa                   	// #10
   86290:	940009ec 	bl	88a40 <ui2a>
   86294:	9100c3e0 	add	x0, sp, #0x30
   86298:	aa0003e1 	mov	x1, x0
   8629c:	f94017e0 	ldr	x0, [sp, #40]
   862a0:	97ffffa6 	bl	86138 <uart_puts>
   862a4:	14000058 	b	86404 <uart_format_print+0x278>
   862a8:	b9401a61 	ldr	w1, [x19, #24]
   862ac:	f9400260 	ldr	x0, [x19]
   862b0:	7100003f 	cmp	w1, #0x0
   862b4:	540000ab 	b.lt	862c8 <uart_format_print+0x13c>  // b.tstop
   862b8:	91002c01 	add	x1, x0, #0xb
   862bc:	927df021 	and	x1, x1, #0xfffffffffffffff8
   862c0:	f9000261 	str	x1, [x19]
   862c4:	1400000d 	b	862f8 <uart_format_print+0x16c>
   862c8:	11002022 	add	w2, w1, #0x8
   862cc:	b9001a62 	str	w2, [x19, #24]
   862d0:	b9401a62 	ldr	w2, [x19, #24]
   862d4:	7100005f 	cmp	w2, #0x0
   862d8:	540000ad 	b.le	862ec <uart_format_print+0x160>
   862dc:	91002c01 	add	x1, x0, #0xb
   862e0:	927df021 	and	x1, x1, #0xfffffffffffffff8
   862e4:	f9000261 	str	x1, [x19]
   862e8:	14000004 	b	862f8 <uart_format_print+0x16c>
   862ec:	f9400662 	ldr	x2, [x19, #8]
   862f0:	93407c20 	sxtw	x0, w1
   862f4:	8b000040 	add	x0, x2, x0
   862f8:	b9400000 	ldr	w0, [x0]
   862fc:	9100c3e1 	add	x1, sp, #0x30
   86300:	94000a14 	bl	88b50 <i2a>
   86304:	9100c3e0 	add	x0, sp, #0x30
   86308:	aa0003e1 	mov	x1, x0
   8630c:	f94017e0 	ldr	x0, [sp, #40]
   86310:	97ffff8a 	bl	86138 <uart_puts>
   86314:	1400003c 	b	86404 <uart_format_print+0x278>
   86318:	b9401a61 	ldr	w1, [x19, #24]
   8631c:	f9400260 	ldr	x0, [x19]
   86320:	7100003f 	cmp	w1, #0x0
   86324:	540000ab 	b.lt	86338 <uart_format_print+0x1ac>  // b.tstop
   86328:	91002c01 	add	x1, x0, #0xb
   8632c:	927df021 	and	x1, x1, #0xfffffffffffffff8
   86330:	f9000261 	str	x1, [x19]
   86334:	1400000d 	b	86368 <uart_format_print+0x1dc>
   86338:	11002022 	add	w2, w1, #0x8
   8633c:	b9001a62 	str	w2, [x19, #24]
   86340:	b9401a62 	ldr	w2, [x19, #24]
   86344:	7100005f 	cmp	w2, #0x0
   86348:	540000ad 	b.le	8635c <uart_format_print+0x1d0>
   8634c:	91002c01 	add	x1, x0, #0xb
   86350:	927df021 	and	x1, x1, #0xfffffffffffffff8
   86354:	f9000261 	str	x1, [x19]
   86358:	14000004 	b	86368 <uart_format_print+0x1dc>
   8635c:	f9400662 	ldr	x2, [x19, #8]
   86360:	93407c20 	sxtw	x0, w1
   86364:	8b000040 	add	x0, x2, x0
   86368:	b9400000 	ldr	w0, [x0]
   8636c:	9100c3e1 	add	x1, sp, #0x30
   86370:	aa0103e2 	mov	x2, x1
   86374:	52800201 	mov	w1, #0x10                  	// #16
   86378:	940009b2 	bl	88a40 <ui2a>
   8637c:	9100c3e0 	add	x0, sp, #0x30
   86380:	aa0003e1 	mov	x1, x0
   86384:	f94017e0 	ldr	x0, [sp, #40]
   86388:	97ffff6c 	bl	86138 <uart_puts>
   8638c:	1400001e 	b	86404 <uart_format_print+0x278>
   86390:	b9401a61 	ldr	w1, [x19, #24]
   86394:	f9400260 	ldr	x0, [x19]
   86398:	7100003f 	cmp	w1, #0x0
   8639c:	540000ab 	b.lt	863b0 <uart_format_print+0x224>  // b.tstop
   863a0:	91003c01 	add	x1, x0, #0xf
   863a4:	927df021 	and	x1, x1, #0xfffffffffffffff8
   863a8:	f9000261 	str	x1, [x19]
   863ac:	1400000d 	b	863e0 <uart_format_print+0x254>
   863b0:	11002022 	add	w2, w1, #0x8
   863b4:	b9001a62 	str	w2, [x19, #24]
   863b8:	b9401a62 	ldr	w2, [x19, #24]
   863bc:	7100005f 	cmp	w2, #0x0
   863c0:	540000ad 	b.le	863d4 <uart_format_print+0x248>
   863c4:	91003c01 	add	x1, x0, #0xf
   863c8:	927df021 	and	x1, x1, #0xfffffffffffffff8
   863cc:	f9000261 	str	x1, [x19]
   863d0:	14000004 	b	863e0 <uart_format_print+0x254>
   863d4:	f9400662 	ldr	x2, [x19, #8]
   863d8:	93407c20 	sxtw	x0, w1
   863dc:	8b000040 	add	x0, x2, x0
   863e0:	f9400000 	ldr	x0, [x0]
   863e4:	aa0003e1 	mov	x1, x0
   863e8:	f94017e0 	ldr	x0, [sp, #40]
   863ec:	97ffff53 	bl	86138 <uart_puts>
   863f0:	14000005 	b	86404 <uart_format_print+0x278>
   863f4:	3940ffe1 	ldrb	w1, [sp, #63]
   863f8:	f94017e0 	ldr	x0, [sp, #40]
   863fc:	97ffff1a 	bl	86064 <uart_putc>
   86400:	d503201f 	nop
   86404:	f94013e0 	ldr	x0, [sp, #32]
   86408:	91000401 	add	x1, x0, #0x1
   8640c:	f90013e1 	str	x1, [sp, #32]
   86410:	39400000 	ldrb	w0, [x0]
   86414:	3900ffe0 	strb	w0, [sp, #63]
   86418:	3940ffe0 	ldrb	w0, [sp, #63]
   8641c:	7100001f 	cmp	w0, #0x0
   86420:	54ffec41 	b.ne	861a8 <uart_format_print+0x1c>  // b.any
   86424:	14000002 	b	8642c <uart_format_print+0x2a0>
   86428:	d503201f 	nop
   8642c:	f9400bf3 	ldr	x19, [sp, #16]
   86430:	a8c47bfd 	ldp	x29, x30, [sp], #64
   86434:	d65f03c0 	ret

0000000000086438 <uart_printf>:
   86438:	a9b77bfd 	stp	x29, x30, [sp, #-144]!
   8643c:	910003fd 	mov	x29, sp
   86440:	f9001fe0 	str	x0, [sp, #56]
   86444:	f9001be1 	str	x1, [sp, #48]
   86448:	f90033e2 	str	x2, [sp, #96]
   8644c:	f90037e3 	str	x3, [sp, #104]
   86450:	f9003be4 	str	x4, [sp, #112]
   86454:	f9003fe5 	str	x5, [sp, #120]
   86458:	f90043e6 	str	x6, [sp, #128]
   8645c:	f90047e7 	str	x7, [sp, #136]
   86460:	910243e0 	add	x0, sp, #0x90
   86464:	f90023e0 	str	x0, [sp, #64]
   86468:	910243e0 	add	x0, sp, #0x90
   8646c:	f90027e0 	str	x0, [sp, #72]
   86470:	910183e0 	add	x0, sp, #0x60
   86474:	f9002be0 	str	x0, [sp, #80]
   86478:	128005e0 	mov	w0, #0xffffffd0            	// #-48
   8647c:	b9005be0 	str	w0, [sp, #88]
   86480:	b9005fff 	str	wzr, [sp, #92]
   86484:	a94407e0 	ldp	x0, x1, [sp, #64]
   86488:	a90107e0 	stp	x0, x1, [sp, #16]
   8648c:	a94507e0 	ldp	x0, x1, [sp, #80]
   86490:	a90207e0 	stp	x0, x1, [sp, #32]
   86494:	910043e0 	add	x0, sp, #0x10
   86498:	aa0003e2 	mov	x2, x0
   8649c:	f9401be1 	ldr	x1, [sp, #48]
   864a0:	f9401fe0 	ldr	x0, [sp, #56]
   864a4:	97ffff3a 	bl	8618c <uart_format_print>
   864a8:	d503201f 	nop
   864ac:	a8c97bfd 	ldp	x29, x30, [sp], #144
   864b0:	d65f03c0 	ret

00000000000864b4 <stimer_getlo>:
   864b4:	d10043ff 	sub	sp, sp, #0x10
   864b8:	d2860001 	mov	x1, #0x3000                	// #12288
   864bc:	f2bfc001 	movk	x1, #0xfe00, lsl #16
   864c0:	52800080 	mov	w0, #0x4                   	// #4
   864c4:	2a0003e0 	mov	w0, w0
   864c8:	8b000020 	add	x0, x1, x0
   864cc:	b9400000 	ldr	w0, [x0]
   864d0:	b9000fe0 	str	w0, [sp, #12]
   864d4:	b9400fe0 	ldr	w0, [sp, #12]
   864d8:	910043ff 	add	sp, sp, #0x10
   864dc:	d65f03c0 	ret

00000000000864e0 <stimer_gethi>:
   864e0:	d10043ff 	sub	sp, sp, #0x10
   864e4:	d2860001 	mov	x1, #0x3000                	// #12288
   864e8:	f2bfc001 	movk	x1, #0xfe00, lsl #16
   864ec:	52800100 	mov	w0, #0x8                   	// #8
   864f0:	2a0003e0 	mov	w0, w0
   864f4:	8b000020 	add	x0, x1, x0
   864f8:	b9400000 	ldr	w0, [x0]
   864fc:	b9000fe0 	str	w0, [sp, #12]
   86500:	b9400fe0 	ldr	w0, [sp, #12]
   86504:	910043ff 	add	sp, sp, #0x10
   86508:	d65f03c0 	ret

000000000008650c <stimer_snooze>:
   8650c:	a9bf7bfd 	stp	x29, x30, [sp, #-16]!
   86510:	910003fd 	mov	x29, sp
   86514:	97ffffe8 	bl	864b4 <stimer_getlo>
   86518:	2a0003e1 	mov	w1, w0
   8651c:	52827100 	mov	w0, #0x1388                	// #5000
   86520:	0b000021 	add	w1, w1, w0
   86524:	d0001900 	adrp	x0, 3a8000 <AWAIT_INTERRUPT_LIST_LEN+0xe8>
   86528:	913c7000 	add	x0, x0, #0xf1c
   8652c:	b9000001 	str	w1, [x0]
   86530:	d503201f 	nop
   86534:	a8c17bfd 	ldp	x29, x30, [sp], #16
   86538:	d65f03c0 	ret

000000000008653c <stimer_wake>:
   8653c:	a9be7bfd 	stp	x29, x30, [sp, #-32]!
   86540:	910003fd 	mov	x29, sp
   86544:	f9000bf3 	str	x19, [sp, #16]
   86548:	d503201f 	nop
   8654c:	d0001900 	adrp	x0, 3a8000 <AWAIT_INTERRUPT_LIST_LEN+0xe8>
   86550:	913c7000 	add	x0, x0, #0xf1c
   86554:	b9400013 	ldr	w19, [x0]
   86558:	97ffffd7 	bl	864b4 <stimer_getlo>
   8655c:	4b000260 	sub	w0, w19, w0
   86560:	7100001f 	cmp	w0, #0x0
   86564:	54ffff4c 	b.gt	8654c <stimer_wake+0x10>
   86568:	d503201f 	nop
   8656c:	f9400bf3 	ldr	x19, [sp, #16]
   86570:	a8c27bfd 	ldp	x29, x30, [sp], #32
   86574:	d65f03c0 	ret

0000000000086578 <scrSchedule>:
   86578:	d10103ff 	sub	sp, sp, #0x40
   8657c:	b9000fe0 	str	w0, [sp, #12]
   86580:	b9000be1 	str	w1, [sp, #8]
   86584:	b90007e2 	str	w2, [sp, #4]
   86588:	b9400fe0 	ldr	w0, [sp, #12]
   8658c:	b9002be0 	str	w0, [sp, #40]
   86590:	b9400be0 	ldr	w0, [sp, #8]
   86594:	b9002fe0 	str	w0, [sp, #44]
   86598:	b94007e0 	ldr	w0, [sp, #4]
   8659c:	b90033e0 	str	w0, [sp, #48]
   865a0:	b9003fff 	str	wzr, [sp, #60]
   865a4:	b9003bff 	str	wzr, [sp, #56]
   865a8:	1400004f 	b	866e4 <scrSchedule+0x16c>
   865ac:	d0001960 	adrp	x0, 3b4000 <PROCS+0xb0c8>
   865b0:	91146002 	add	x2, x0, #0x518
   865b4:	b9803be1 	ldrsw	x1, [sp, #56]
   865b8:	aa0103e0 	mov	x0, x1
   865bc:	d37ff800 	lsl	x0, x0, #1
   865c0:	8b010000 	add	x0, x0, x1
   865c4:	d37ef400 	lsl	x0, x0, #2
   865c8:	8b000040 	add	x0, x2, x0
   865cc:	b9400000 	ldr	w0, [x0]
   865d0:	7100001f 	cmp	w0, #0x0
   865d4:	54000201 	b.ne	86614 <scrSchedule+0x9c>  // b.any
   865d8:	d0001960 	adrp	x0, 3b4000 <PROCS+0xb0c8>
   865dc:	91146002 	add	x2, x0, #0x518
   865e0:	b9803be1 	ldrsw	x1, [sp, #56]
   865e4:	aa0103e0 	mov	x0, x1
   865e8:	d37ff800 	lsl	x0, x0, #1
   865ec:	8b010000 	add	x0, x0, x1
   865f0:	d37ef400 	lsl	x0, x0, #2
   865f4:	8b000040 	add	x0, x2, x0
   865f8:	b9402be1 	ldr	w1, [sp, #40]
   865fc:	b9000001 	str	w1, [x0]
   86600:	b9402fe1 	ldr	w1, [sp, #44]
   86604:	b9000401 	str	w1, [x0, #4]
   86608:	b94033e1 	ldr	w1, [sp, #48]
   8660c:	b9000801 	str	w1, [x0, #8]
   86610:	14000039 	b	866f4 <scrSchedule+0x17c>
   86614:	d0001960 	adrp	x0, 3b4000 <PROCS+0xb0c8>
   86618:	91146002 	add	x2, x0, #0x518
   8661c:	b9803be1 	ldrsw	x1, [sp, #56]
   86620:	aa0103e0 	mov	x0, x1
   86624:	d37ff800 	lsl	x0, x0, #1
   86628:	8b010000 	add	x0, x0, x1
   8662c:	d37ef400 	lsl	x0, x0, #2
   86630:	8b000040 	add	x0, x2, x0
   86634:	b9400400 	ldr	w0, [x0, #4]
   86638:	b9400be1 	ldr	w1, [sp, #8]
   8663c:	6b00003f 	cmp	w1, w0
   86640:	5400006a 	b.ge	8664c <scrSchedule+0xd4>  // b.tcont
   86644:	52800020 	mov	w0, #0x1                   	// #1
