
0-kernel.elf:     file format elf64-littleaarch64


Disassembly of section .text.boot:

0000000000080000 <_start>:
   80000:	d5384241 	mrs	x1, currentel
   80004:	927d0021 	and	x1, x1, #0x8
   80008:	b4000101 	cbz	x1, 80028 <el1_entry>
   8000c:	580003a2 	ldr	x2, 80080 <exit+0xc>
   80010:	d51c1102 	msr	hcr_el2, x2
   80014:	580003a3 	ldr	x3, 80088 <exit+0x14>
   80018:	d51c4003 	msr	spsr_el2, x3
   8001c:	10000064 	adr	x4, 80028 <el1_entry>
   80020:	d51c4024 	msr	elr_el2, x4
   80024:	d69f03e0 	eret

0000000000080028 <el1_entry>:
   80028:	58000342 	ldr	x2, 80090 <exit+0x1c>
   8002c:	d5181002 	msr	sctlr_el1, x2
   80030:	d5034fdf 	msr	daifset, #0xf
   80034:	d50041bf 	msr	spsel, #0x1
   80038:	58000300 	ldr	x0, 80098 <exit+0x24>
   8003c:	9100001f 	mov	sp, x0
   80040:	58000301 	ldr	x1, 800a0 <exit+0x2c>
   80044:	d518c001 	msr	vbar_el1, x1
   80048:	94000847 	bl	82164 <kmain>

000000000008004c <EXIT>:
   8004c:	d2800482 	mov	x2, #0x24                  	// #36
   80050:	d2800380 	mov	x0, #0x1c                  	// #28
   80054:	f2bfc202 	movk	x2, #0xfe10, lsl #16
   80058:	f2bfc200 	movk	x0, #0xfe10, lsl #16
   8005c:	52800023 	mov	w3, #0x1                   	// #1
   80060:	52800401 	mov	w1, #0x20                  	// #32
   80064:	72ab4003 	movk	w3, #0x5a00, lsl #16
   80068:	b9000043 	str	w3, [x2]
   8006c:	72ab4001 	movk	w1, #0x5a00, lsl #16
   80070:	b9000001 	str	w1, [x0]

0000000000080074 <exit>:
   80074:	d503207f 	wfi
   80078:	17ffffff 	b	80074 <exit>
   8007c:	00000000 	udf	#0
   80080:	80000000 	.inst	0x80000000 ; undefined
   80084:	00000000 	udf	#0
   80088:	000001c5 	udf	#453
   8008c:	00000000 	udf	#0
   80090:	30d50a00 	adr	x0, 2a1d1 <_start-0x55e2f>
   80094:	00000000 	udf	#0
   80098:	000a2fc0 	.inst	0x000a2fc0 ; undefined
   8009c:	00000000 	udf	#0
   800a0:	00086800 	.inst	0x00086800 ; undefined
   800a4:	00000000 	udf	#0

Disassembly of section .text:

0000000000080800 <is_empty>:
   80800:	d10043ff 	sub	sp, sp, #0x10
   80804:	f90007e0 	str	x0, [sp, #8]
   80808:	f94007e0 	ldr	x0, [sp, #8]
   8080c:	39400000 	ldrb	w0, [x0]
   80810:	7100001f 	cmp	w0, #0x0
   80814:	1a9f17e0 	cset	w0, eq	// eq = none
   80818:	12001c00 	and	w0, w0, #0xff
   8081c:	13001c00 	sxtb	w0, w0
   80820:	910043ff 	add	sp, sp, #0x10
   80824:	d65f03c0 	ret

0000000000080828 <str_to_hex>:
   80828:	d10043ff 	sub	sp, sp, #0x10
   8082c:	f90007e0 	str	x0, [sp, #8]
   80830:	f94007e0 	ldr	x0, [sp, #8]
   80834:	39400000 	ldrb	w0, [x0]
   80838:	7100001f 	cmp	w0, #0x0
   8083c:	54000061 	b.ne	80848 <str_to_hex+0x20>  // b.any
   80840:	52800000 	mov	w0, #0x0                   	// #0
   80844:	14000015 	b	80898 <str_to_hex+0x70>
   80848:	f94007e0 	ldr	x0, [sp, #8]
   8084c:	91000400 	add	x0, x0, #0x1
   80850:	39400000 	ldrb	w0, [x0]
   80854:	7100001f 	cmp	w0, #0x0
   80858:	54000061 	b.ne	80864 <str_to_hex+0x3c>  // b.any
   8085c:	52800000 	mov	w0, #0x0                   	// #0
   80860:	1400000e 	b	80898 <str_to_hex+0x70>
   80864:	f94007e0 	ldr	x0, [sp, #8]
   80868:	39400000 	ldrb	w0, [x0]
   8086c:	7100c01f 	cmp	w0, #0x30
   80870:	54000101 	b.ne	80890 <str_to_hex+0x68>  // b.any
   80874:	f94007e0 	ldr	x0, [sp, #8]
   80878:	91000400 	add	x0, x0, #0x1
   8087c:	39400000 	ldrb	w0, [x0]
   80880:	7101e01f 	cmp	w0, #0x78
   80884:	54000061 	b.ne	80890 <str_to_hex+0x68>  // b.any
   80888:	52800020 	mov	w0, #0x1                   	// #1
   8088c:	14000002 	b	80894 <str_to_hex+0x6c>
   80890:	52800000 	mov	w0, #0x0                   	// #0
   80894:	13001c00 	sxtb	w0, w0
   80898:	910043ff 	add	sp, sp, #0x10
   8089c:	d65f03c0 	ret

00000000000808a0 <atoi_64>:
   808a0:	a9bd7bfd 	stp	x29, x30, [sp, #-48]!
   808a4:	910003fd 	mov	x29, sp
   808a8:	f9000fe0 	str	x0, [sp, #24]
   808ac:	3900bbff 	strb	wzr, [sp, #46]
   808b0:	f9400fe0 	ldr	x0, [sp, #24]
   808b4:	39400000 	ldrb	w0, [x0]
   808b8:	7100b41f 	cmp	w0, #0x2d
   808bc:	540000c1 	b.ne	808d4 <atoi_64+0x34>  // b.any
   808c0:	52800020 	mov	w0, #0x1                   	// #1
   808c4:	3900bbe0 	strb	w0, [sp, #46]
   808c8:	f9400fe0 	ldr	x0, [sp, #24]
   808cc:	91000400 	add	x0, x0, #0x1
   808d0:	f9000fe0 	str	x0, [sp, #24]
   808d4:	3900bfff 	strb	wzr, [sp, #47]
   808d8:	14000011 	b	8091c <atoi_64+0x7c>
   808dc:	3940bfe1 	ldrb	w1, [sp, #47]
   808e0:	2a0103e0 	mov	w0, w1
   808e4:	531e1400 	ubfiz	w0, w0, #2, #6
   808e8:	0b010000 	add	w0, w0, w1
   808ec:	531f1800 	ubfiz	w0, w0, #1, #7
   808f0:	3900bfe0 	strb	w0, [sp, #47]
   808f4:	f9400fe0 	ldr	x0, [sp, #24]
   808f8:	39400000 	ldrb	w0, [x0]
   808fc:	940011c4 	bl	8500c <a2d>
   80900:	12001c00 	and	w0, w0, #0xff
   80904:	3940bfe1 	ldrb	w1, [sp, #47]
   80908:	0b010000 	add	w0, w0, w1
   8090c:	3900bfe0 	strb	w0, [sp, #47]
   80910:	f9400fe0 	ldr	x0, [sp, #24]
   80914:	91000400 	add	x0, x0, #0x1
   80918:	f9000fe0 	str	x0, [sp, #24]
   8091c:	f9400fe0 	ldr	x0, [sp, #24]
   80920:	39400000 	ldrb	w0, [x0]
   80924:	7100001f 	cmp	w0, #0x0
   80928:	54fffda1 	b.ne	808dc <atoi_64+0x3c>  // b.any
   8092c:	3940bfe0 	ldrb	w0, [sp, #47]
   80930:	a8c37bfd 	ldp	x29, x30, [sp], #48
   80934:	d65f03c0 	ret

0000000000080938 <str_to_hex>:
   80938:	a9bd7bfd 	stp	x29, x30, [sp, #-48]!
   8093c:	910003fd 	mov	x29, sp
   80940:	f9000fe0 	str	x0, [sp, #24]
   80944:	3900bfff 	strb	wzr, [sp, #47]
   80948:	f9400fe0 	ldr	x0, [sp, #24]
   8094c:	91000400 	add	x0, x0, #0x1
   80950:	f9000fe0 	str	x0, [sp, #24]
   80954:	f9400fe0 	ldr	x0, [sp, #24]
   80958:	91000400 	add	x0, x0, #0x1
   8095c:	f9000fe0 	str	x0, [sp, #24]
   80960:	1400000e 	b	80998 <str_to_hex+0x60>
   80964:	3940bfe0 	ldrb	w0, [sp, #47]
   80968:	531c0c00 	ubfiz	w0, w0, #4, #4
   8096c:	3900bfe0 	strb	w0, [sp, #47]
   80970:	f9400fe0 	ldr	x0, [sp, #24]
   80974:	39400000 	ldrb	w0, [x0]
   80978:	940011a5 	bl	8500c <a2d>
   8097c:	12001c00 	and	w0, w0, #0xff
   80980:	3940bfe1 	ldrb	w1, [sp, #47]
   80984:	0b010000 	add	w0, w0, w1
   80988:	3900bfe0 	strb	w0, [sp, #47]
   8098c:	f9400fe0 	ldr	x0, [sp, #24]
   80990:	91000400 	add	x0, x0, #0x1
   80994:	f9000fe0 	str	x0, [sp, #24]
   80998:	f9400fe0 	ldr	x0, [sp, #24]
   8099c:	39400000 	ldrb	w0, [x0]
   809a0:	7100001f 	cmp	w0, #0x0
   809a4:	54fffe01 	b.ne	80964 <str_to_hex+0x2c>  // b.any
   809a8:	3940bfe0 	ldrb	w0, [sp, #47]
   809ac:	a8c37bfd 	ldp	x29, x30, [sp], #48
   809b0:	d65f03c0 	ret

00000000000809b4 <strcmp_inpace>:
   809b4:	d10083ff 	sub	sp, sp, #0x20
   809b8:	f9000fe0 	str	x0, [sp, #24]
   809bc:	f9000be1 	str	x1, [sp, #16]
   809c0:	f90007e2 	str	x2, [sp, #8]
   809c4:	1400001a 	b	80a2c <strcmp_inpace+0x78>
   809c8:	f9400be0 	ldr	x0, [sp, #16]
   809cc:	39400001 	ldrb	w1, [x0]
   809d0:	f94007e0 	ldr	x0, [sp, #8]
   809d4:	39400000 	ldrb	w0, [x0]
   809d8:	6b00003f 	cmp	w1, w0
   809dc:	54000080 	b.eq	809ec <strcmp_inpace+0x38>  // b.none
   809e0:	f9400fe0 	ldr	x0, [sp, #24]
   809e4:	b900001f 	str	wzr, [x0]
   809e8:	14000023 	b	80a74 <strcmp_inpace+0xc0>
   809ec:	f9400be0 	ldr	x0, [sp, #16]
   809f0:	91000400 	add	x0, x0, #0x1
   809f4:	f9000be0 	str	x0, [sp, #16]
   809f8:	f94007e0 	ldr	x0, [sp, #8]
   809fc:	91000400 	add	x0, x0, #0x1
   80a00:	f90007e0 	str	x0, [sp, #8]
   80a04:	f9400be0 	ldr	x0, [sp, #16]
   80a08:	39400001 	ldrb	w1, [x0]
   80a0c:	f94007e0 	ldr	x0, [sp, #8]
   80a10:	39400000 	ldrb	w0, [x0]
   80a14:	6b00003f 	cmp	w1, w0
   80a18:	1a9f17e0 	cset	w0, eq	// eq = none
   80a1c:	12001c00 	and	w0, w0, #0xff
   80a20:	2a0003e1 	mov	w1, w0
   80a24:	f9400fe0 	ldr	x0, [sp, #24]
   80a28:	b9000001 	str	w1, [x0]
   80a2c:	f9400be0 	ldr	x0, [sp, #16]
   80a30:	39400000 	ldrb	w0, [x0]
   80a34:	7100001f 	cmp	w0, #0x0
   80a38:	540000a0 	b.eq	80a4c <strcmp_inpace+0x98>  // b.none
   80a3c:	f94007e0 	ldr	x0, [sp, #8]
   80a40:	39400000 	ldrb	w0, [x0]
   80a44:	7100001f 	cmp	w0, #0x0
   80a48:	54fffc01 	b.ne	809c8 <strcmp_inpace+0x14>  // b.any
   80a4c:	f9400be0 	ldr	x0, [sp, #16]
   80a50:	39400001 	ldrb	w1, [x0]
   80a54:	f94007e0 	ldr	x0, [sp, #8]
   80a58:	39400000 	ldrb	w0, [x0]
   80a5c:	6b00003f 	cmp	w1, w0
   80a60:	1a9f17e0 	cset	w0, eq	// eq = none
   80a64:	12001c00 	and	w0, w0, #0xff
   80a68:	2a0003e1 	mov	w1, w0
   80a6c:	f9400fe0 	ldr	x0, [sp, #24]
   80a70:	b9000001 	str	w1, [x0]
   80a74:	910083ff 	add	sp, sp, #0x20
   80a78:	d65f03c0 	ret

0000000000080a7c <strcmp_ret>:
   80a7c:	d10043ff 	sub	sp, sp, #0x10
   80a80:	f90007e0 	str	x0, [sp, #8]
   80a84:	f90003e1 	str	x1, [sp]
   80a88:	1400000f 	b	80ac4 <strcmp_ret+0x48>
   80a8c:	f94007e0 	ldr	x0, [sp, #8]
   80a90:	39400001 	ldrb	w1, [x0]
   80a94:	f94003e0 	ldr	x0, [sp]
   80a98:	39400000 	ldrb	w0, [x0]
   80a9c:	6b00003f 	cmp	w1, w0
   80aa0:	54000060 	b.eq	80aac <strcmp_ret+0x30>  // b.none
   80aa4:	52800000 	mov	w0, #0x0                   	// #0
   80aa8:	14000016 	b	80b00 <strcmp_ret+0x84>
   80aac:	f94007e0 	ldr	x0, [sp, #8]
   80ab0:	91000400 	add	x0, x0, #0x1
   80ab4:	f90007e0 	str	x0, [sp, #8]
   80ab8:	f94003e0 	ldr	x0, [sp]
   80abc:	91000400 	add	x0, x0, #0x1
   80ac0:	f90003e0 	str	x0, [sp]
   80ac4:	f94007e0 	ldr	x0, [sp, #8]
   80ac8:	39400000 	ldrb	w0, [x0]
   80acc:	7100001f 	cmp	w0, #0x0
   80ad0:	540000a0 	b.eq	80ae4 <strcmp_ret+0x68>  // b.none
   80ad4:	f94003e0 	ldr	x0, [sp]
   80ad8:	39400000 	ldrb	w0, [x0]
   80adc:	7100001f 	cmp	w0, #0x0
   80ae0:	54fffd61 	b.ne	80a8c <strcmp_ret+0x10>  // b.any
   80ae4:	f94007e0 	ldr	x0, [sp, #8]
   80ae8:	39400001 	ldrb	w1, [x0]
   80aec:	f94003e0 	ldr	x0, [sp]
   80af0:	39400000 	ldrb	w0, [x0]
   80af4:	6b00003f 	cmp	w1, w0
   80af8:	1a9f17e0 	cset	w0, eq	// eq = none
   80afc:	12001c00 	and	w0, w0, #0xff
   80b00:	910043ff 	add	sp, sp, #0x10
   80b04:	d65f03c0 	ret

0000000000080b08 <strcat_cust>:
   80b08:	d10083ff 	sub	sp, sp, #0x20
   80b0c:	f90007e0 	str	x0, [sp, #8]
   80b10:	f90003e1 	str	x1, [sp]
   80b14:	b9001fff 	str	wzr, [sp, #28]
   80b18:	14000007 	b	80b34 <strcat_cust+0x2c>
   80b1c:	f94007e0 	ldr	x0, [sp, #8]
   80b20:	91000400 	add	x0, x0, #0x1
   80b24:	f90007e0 	str	x0, [sp, #8]
   80b28:	b9401fe0 	ldr	w0, [sp, #28]
   80b2c:	11000400 	add	w0, w0, #0x1
   80b30:	b9001fe0 	str	w0, [sp, #28]
   80b34:	f94007e0 	ldr	x0, [sp, #8]
   80b38:	39400000 	ldrb	w0, [x0]
   80b3c:	7100001f 	cmp	w0, #0x0
   80b40:	54fffee1 	b.ne	80b1c <strcat_cust+0x14>  // b.any
   80b44:	1400000e 	b	80b7c <strcat_cust+0x74>
   80b48:	f94003e0 	ldr	x0, [sp]
   80b4c:	39400001 	ldrb	w1, [x0]
   80b50:	f94007e0 	ldr	x0, [sp, #8]
   80b54:	39000001 	strb	w1, [x0]
   80b58:	f94007e0 	ldr	x0, [sp, #8]
   80b5c:	91000400 	add	x0, x0, #0x1
   80b60:	f90007e0 	str	x0, [sp, #8]
   80b64:	f94003e0 	ldr	x0, [sp]
   80b68:	91000400 	add	x0, x0, #0x1
   80b6c:	f90003e0 	str	x0, [sp]
   80b70:	b9401fe0 	ldr	w0, [sp, #28]
   80b74:	11000400 	add	w0, w0, #0x1
   80b78:	b9001fe0 	str	w0, [sp, #28]
   80b7c:	f94003e0 	ldr	x0, [sp]
   80b80:	39400000 	ldrb	w0, [x0]
   80b84:	7100001f 	cmp	w0, #0x0
   80b88:	54fffe01 	b.ne	80b48 <strcat_cust+0x40>  // b.any
   80b8c:	f94007e0 	ldr	x0, [sp, #8]
   80b90:	3900001f 	strb	wzr, [x0]
   80b94:	b9401fe0 	ldr	w0, [sp, #28]
   80b98:	910083ff 	add	sp, sp, #0x20
   80b9c:	d65f03c0 	ret

0000000000080ba0 <parse_char_arr>:
   80ba0:	d10043ff 	sub	sp, sp, #0x10
   80ba4:	f0000020 	adrp	x0, 87000 <el1_a32_serror+0x80>
   80ba8:	91000000 	add	x0, x0, #0x0
   80bac:	f90007e0 	str	x0, [sp, #8]
   80bb0:	f94007e0 	ldr	x0, [sp, #8]
   80bb4:	910043ff 	add	sp, sp, #0x10
   80bb8:	d65f03c0 	ret

0000000000080bbc <parsestring>:
   80bbc:	d100c3ff 	sub	sp, sp, #0x30
   80bc0:	f9000fe0 	str	x0, [sp, #24]
   80bc4:	b90017e1 	str	w1, [sp, #20]
   80bc8:	f90007e2 	str	x2, [sp, #8]
   80bcc:	b90013e3 	str	w3, [sp, #16]
   80bd0:	52800020 	mov	w0, #0x1                   	// #1
   80bd4:	b9002fe0 	str	w0, [sp, #44]
   80bd8:	b9002bff 	str	wzr, [sp, #40]
   80bdc:	f9400fe0 	ldr	x0, [sp, #24]
   80be0:	3900001f 	strb	wzr, [x0]
   80be4:	14000022 	b	80c6c <parsestring+0xb0>
   80be8:	f94007e0 	ldr	x0, [sp, #8]
   80bec:	39400000 	ldrb	w0, [x0]
   80bf0:	7100801f 	cmp	w0, #0x20
   80bf4:	540000a1 	b.ne	80c08 <parsestring+0x4c>  // b.any
   80bf8:	b9402fe0 	ldr	w0, [sp, #44]
   80bfc:	11000400 	add	w0, w0, #0x1
   80c00:	b9002fe0 	str	w0, [sp, #44]
   80c04:	14000017 	b	80c60 <parsestring+0xa4>
   80c08:	b94013e1 	ldr	w1, [sp, #16]
   80c0c:	b9402fe0 	ldr	w0, [sp, #44]
   80c10:	6b00003f 	cmp	w1, w0
   80c14:	54000261 	b.ne	80c60 <parsestring+0xa4>  // b.any
   80c18:	b94017e0 	ldr	w0, [sp, #20]
   80c1c:	51000400 	sub	w0, w0, #0x1
   80c20:	b9402be1 	ldr	w1, [sp, #40]
   80c24:	6b00003f 	cmp	w1, w0
   80c28:	540002ca 	b.ge	80c80 <parsestring+0xc4>  // b.tcont
   80c2c:	b9402be0 	ldr	w0, [sp, #40]
   80c30:	11000401 	add	w1, w0, #0x1
   80c34:	b9002be1 	str	w1, [sp, #40]
   80c38:	93407c00 	sxtw	x0, w0
   80c3c:	f9400fe1 	ldr	x1, [sp, #24]
   80c40:	8b000020 	add	x0, x1, x0
   80c44:	f94007e1 	ldr	x1, [sp, #8]
   80c48:	39400021 	ldrb	w1, [x1]
   80c4c:	39000001 	strb	w1, [x0]
   80c50:	b9802be0 	ldrsw	x0, [sp, #40]
   80c54:	f9400fe1 	ldr	x1, [sp, #24]
   80c58:	8b000020 	add	x0, x1, x0
   80c5c:	3900001f 	strb	wzr, [x0]
   80c60:	f94007e0 	ldr	x0, [sp, #8]
   80c64:	91000400 	add	x0, x0, #0x1
   80c68:	f90007e0 	str	x0, [sp, #8]
   80c6c:	f94007e0 	ldr	x0, [sp, #8]
   80c70:	39400000 	ldrb	w0, [x0]
   80c74:	7100001f 	cmp	w0, #0x0
   80c78:	54fffb81 	b.ne	80be8 <parsestring+0x2c>  // b.any
   80c7c:	14000002 	b	80c84 <parsestring+0xc8>
   80c80:	d503201f 	nop
   80c84:	d503201f 	nop
   80c88:	9100c3ff 	add	sp, sp, #0x30
   80c8c:	d65f03c0 	ret

0000000000080c90 <cust_strcpy>:
   80c90:	d100c3ff 	sub	sp, sp, #0x30
   80c94:	f9000fe0 	str	x0, [sp, #24]
   80c98:	b90017e1 	str	w1, [sp, #20]
   80c9c:	f90007e2 	str	x2, [sp, #8]
   80ca0:	b90013e3 	str	w3, [sp, #16]
   80ca4:	b9002fff 	str	wzr, [sp, #44]
   80ca8:	14000016 	b	80d00 <cust_strcpy+0x70>
   80cac:	b9402fe1 	ldr	w1, [sp, #44]
   80cb0:	b94013e0 	ldr	w0, [sp, #16]
   80cb4:	6b00003f 	cmp	w1, w0
   80cb8:	540002ea 	b.ge	80d14 <cust_strcpy+0x84>  // b.tcont
   80cbc:	b9402fe1 	ldr	w1, [sp, #44]
   80cc0:	b94017e0 	ldr	w0, [sp, #20]
   80cc4:	6b00003f 	cmp	w1, w0
   80cc8:	540002aa 	b.ge	80d1c <cust_strcpy+0x8c>  // b.tcont
   80ccc:	f94007e0 	ldr	x0, [sp, #8]
   80cd0:	39400001 	ldrb	w1, [x0]
   80cd4:	f9400fe0 	ldr	x0, [sp, #24]
   80cd8:	39000001 	strb	w1, [x0]
   80cdc:	f9400fe0 	ldr	x0, [sp, #24]
   80ce0:	91000400 	add	x0, x0, #0x1
   80ce4:	f9000fe0 	str	x0, [sp, #24]
   80ce8:	f94007e0 	ldr	x0, [sp, #8]
   80cec:	91000400 	add	x0, x0, #0x1
   80cf0:	f90007e0 	str	x0, [sp, #8]
   80cf4:	b9402fe0 	ldr	w0, [sp, #44]
   80cf8:	11000400 	add	w0, w0, #0x1
   80cfc:	b9002fe0 	str	w0, [sp, #44]
   80d00:	f94007e0 	ldr	x0, [sp, #8]
   80d04:	39400000 	ldrb	w0, [x0]
   80d08:	7100001f 	cmp	w0, #0x0
   80d0c:	54fffd01 	b.ne	80cac <cust_strcpy+0x1c>  // b.any
   80d10:	14000004 	b	80d20 <cust_strcpy+0x90>
   80d14:	d503201f 	nop
   80d18:	14000002 	b	80d20 <cust_strcpy+0x90>
   80d1c:	d503201f 	nop
   80d20:	f9400fe0 	ldr	x0, [sp, #24]
   80d24:	3900001f 	strb	wzr, [x0]
   80d28:	b9402fe0 	ldr	w0, [sp, #44]
   80d2c:	9100c3ff 	add	sp, sp, #0x30
   80d30:	d65f03c0 	ret

0000000000080d34 <strflush>:
   80d34:	a9bd7bfd 	stp	x29, x30, [sp, #-48]!
   80d38:	910003fd 	mov	x29, sp
   80d3c:	f9000fe0 	str	x0, [sp, #24]
   80d40:	39005fe1 	strb	w1, [sp, #23]
   80d44:	b9002fff 	str	wzr, [sp, #44]
   80d48:	1400001f 	b	80dc4 <strflush+0x90>
   80d4c:	b9802fe0 	ldrsw	x0, [sp, #44]
   80d50:	f9400fe1 	ldr	x1, [sp, #24]
   80d54:	8b000020 	add	x0, x1, x0
   80d58:	39400000 	ldrb	w0, [x0]
   80d5c:	7100001f 	cmp	w0, #0x0
   80d60:	540003c0 	b.eq	80dd8 <strflush+0xa4>  // b.none
   80d64:	b9802fe0 	ldrsw	x0, [sp, #44]
   80d68:	f9400fe1 	ldr	x1, [sp, #24]
   80d6c:	8b000020 	add	x0, x1, x0
   80d70:	39400000 	ldrb	w0, [x0]
   80d74:	2a0003e3 	mov	w3, w0
   80d78:	b9402fe2 	ldr	w2, [sp, #44]
   80d7c:	f0000020 	adrp	x0, 87000 <el1_a32_serror+0x80>
   80d80:	91002001 	add	x1, x0, #0x8
   80d84:	d2800020 	mov	x0, #0x1                   	// #1
   80d88:	94000981 	bl	8338c <uart_printf>
   80d8c:	b9802fe0 	ldrsw	x0, [sp, #44]
   80d90:	f9400fe1 	ldr	x1, [sp, #24]
   80d94:	8b000020 	add	x0, x1, x0
   80d98:	39400000 	ldrb	w0, [x0]
   80d9c:	2a0003e1 	mov	w1, w0
   80da0:	d2800020 	mov	x0, #0x1                   	// #1
   80da4:	94000885 	bl	82fb8 <uart_putc>
   80da8:	f0000020 	adrp	x0, 87000 <el1_a32_serror+0x80>
   80dac:	91008001 	add	x1, x0, #0x20
   80db0:	d2800020 	mov	x0, #0x1                   	// #1
   80db4:	94000976 	bl	8338c <uart_printf>
   80db8:	b9402fe0 	ldr	w0, [sp, #44]
   80dbc:	11000400 	add	w0, w0, #0x1
   80dc0:	b9002fe0 	str	w0, [sp, #44]
   80dc4:	39405fe0 	ldrb	w0, [sp, #23]
   80dc8:	b9402fe1 	ldr	w1, [sp, #44]
   80dcc:	6b00003f 	cmp	w1, w0
   80dd0:	54fffbeb 	b.lt	80d4c <strflush+0x18>  // b.tstop
   80dd4:	14000002 	b	80ddc <strflush+0xa8>
   80dd8:	d503201f 	nop
   80ddc:	d503201f 	nop
   80de0:	a8c37bfd 	ldp	x29, x30, [sp], #48
   80de4:	d65f03c0 	ret

0000000000080de8 <full_game>:
   80de8:	d10043ff 	sub	sp, sp, #0x10
   80dec:	f90007e0 	str	x0, [sp, #8]
   80df0:	f94007e0 	ldr	x0, [sp, #8]
   80df4:	b9400000 	ldr	w0, [x0]
   80df8:	7100001f 	cmp	w0, #0x0
   80dfc:	540000e0 	b.eq	80e18 <full_game+0x30>  // b.none
   80e00:	f94007e0 	ldr	x0, [sp, #8]
   80e04:	b9400400 	ldr	w0, [x0, #4]
   80e08:	7100001f 	cmp	w0, #0x0
   80e0c:	54000060 	b.eq	80e18 <full_game+0x30>  // b.none
   80e10:	52800020 	mov	w0, #0x1                   	// #1
   80e14:	14000002 	b	80e1c <full_game+0x34>
   80e18:	52800000 	mov	w0, #0x0                   	// #0
   80e1c:	12001c00 	and	w0, w0, #0xff
   80e20:	910043ff 	add	sp, sp, #0x10
   80e24:	d65f03c0 	ret

0000000000080e28 <full_play>:
   80e28:	a9be7bfd 	stp	x29, x30, [sp, #-32]!
   80e2c:	910003fd 	mov	x29, sp
   80e30:	f9000fe0 	str	x0, [sp, #24]
   80e34:	f9400fe0 	ldr	x0, [sp, #24]
   80e38:	91002000 	add	x0, x0, #0x8
   80e3c:	97fffe71 	bl	80800 <is_empty>
   80e40:	7100001f 	cmp	w0, #0x0
   80e44:	54000101 	b.ne	80e64 <full_play+0x3c>  // b.any
   80e48:	f9400fe0 	ldr	x0, [sp, #24]
   80e4c:	91004800 	add	x0, x0, #0x12
   80e50:	97fffe6c 	bl	80800 <is_empty>
   80e54:	7100001f 	cmp	w0, #0x0
   80e58:	54000061 	b.ne	80e64 <full_play+0x3c>  // b.any
   80e5c:	52800020 	mov	w0, #0x1                   	// #1
   80e60:	14000002 	b	80e68 <full_play+0x40>
   80e64:	52800000 	mov	w0, #0x0                   	// #0
   80e68:	12001c00 	and	w0, w0, #0xff
   80e6c:	a8c27bfd 	ldp	x29, x30, [sp], #32
   80e70:	d65f03c0 	ret

0000000000080e74 <set_play>:
   80e74:	a9bc7bfd 	stp	x29, x30, [sp, #-64]!
   80e78:	910003fd 	mov	x29, sp
   80e7c:	f90017e0 	str	x0, [sp, #40]
   80e80:	b90027e1 	str	w1, [sp, #36]
   80e84:	f9000fe2 	str	x2, [sp, #24]
   80e88:	b9003bff 	str	wzr, [sp, #56]
   80e8c:	b9003fff 	str	wzr, [sp, #60]
   80e90:	1400004c 	b	80fc0 <set_play+0x14c>
   80e94:	b9803fe1 	ldrsw	x1, [sp, #60]
   80e98:	aa0103e0 	mov	x0, x1
   80e9c:	d37df000 	lsl	x0, x0, #3
   80ea0:	8b010000 	add	x0, x0, x1
   80ea4:	d37ef400 	lsl	x0, x0, #2
   80ea8:	aa0003e1 	mov	x1, x0
   80eac:	f9400fe0 	ldr	x0, [sp, #24]
   80eb0:	8b010000 	add	x0, x0, x1
   80eb4:	b9400000 	ldr	w0, [x0]
   80eb8:	b94027e1 	ldr	w1, [sp, #36]
   80ebc:	6b00003f 	cmp	w1, w0
   80ec0:	54000321 	b.ne	80f24 <set_play+0xb0>  // b.any
   80ec4:	b9803fe1 	ldrsw	x1, [sp, #60]
   80ec8:	aa0103e0 	mov	x0, x1
   80ecc:	d37df000 	lsl	x0, x0, #3
   80ed0:	8b010000 	add	x0, x0, x1
   80ed4:	d37ef400 	lsl	x0, x0, #2
   80ed8:	aa0003e1 	mov	x1, x0
   80edc:	f9400fe0 	ldr	x0, [sp, #24]
   80ee0:	8b010000 	add	x0, x0, x1
   80ee4:	3900201f 	strb	wzr, [x0, #8]
   80ee8:	b9803fe1 	ldrsw	x1, [sp, #60]
   80eec:	aa0103e0 	mov	x0, x1
   80ef0:	d37df000 	lsl	x0, x0, #3
   80ef4:	8b010000 	add	x0, x0, x1
   80ef8:	d37ef400 	lsl	x0, x0, #2
   80efc:	aa0003e1 	mov	x1, x0
   80f00:	f9400fe0 	ldr	x0, [sp, #24]
   80f04:	8b010000 	add	x0, x0, x1
   80f08:	91002000 	add	x0, x0, #0x8
   80f0c:	52800143 	mov	w3, #0xa                   	// #10
   80f10:	f94017e2 	ldr	x2, [sp, #40]
   80f14:	52800141 	mov	w1, #0xa                   	// #10
   80f18:	97ffff5e 	bl	80c90 <cust_strcpy>
   80f1c:	b9403fe0 	ldr	w0, [sp, #60]
   80f20:	1400002b 	b	80fcc <set_play+0x158>
   80f24:	b9803fe1 	ldrsw	x1, [sp, #60]
   80f28:	aa0103e0 	mov	x0, x1
   80f2c:	d37df000 	lsl	x0, x0, #3
   80f30:	8b010000 	add	x0, x0, x1
   80f34:	d37ef400 	lsl	x0, x0, #2
   80f38:	aa0003e1 	mov	x1, x0
   80f3c:	f9400fe0 	ldr	x0, [sp, #24]
   80f40:	8b010000 	add	x0, x0, x1
   80f44:	b9400400 	ldr	w0, [x0, #4]
   80f48:	b94027e1 	ldr	w1, [sp, #36]
   80f4c:	6b00003f 	cmp	w1, w0
   80f50:	54000321 	b.ne	80fb4 <set_play+0x140>  // b.any
   80f54:	b9803fe1 	ldrsw	x1, [sp, #60]
   80f58:	aa0103e0 	mov	x0, x1
   80f5c:	d37df000 	lsl	x0, x0, #3
   80f60:	8b010000 	add	x0, x0, x1
   80f64:	d37ef400 	lsl	x0, x0, #2
   80f68:	aa0003e1 	mov	x1, x0
   80f6c:	f9400fe0 	ldr	x0, [sp, #24]
   80f70:	8b010000 	add	x0, x0, x1
   80f74:	3900481f 	strb	wzr, [x0, #18]
   80f78:	b9803fe1 	ldrsw	x1, [sp, #60]
   80f7c:	aa0103e0 	mov	x0, x1
   80f80:	d37df000 	lsl	x0, x0, #3
   80f84:	8b010000 	add	x0, x0, x1
   80f88:	d37ef400 	lsl	x0, x0, #2
   80f8c:	aa0003e1 	mov	x1, x0
   80f90:	f9400fe0 	ldr	x0, [sp, #24]
   80f94:	8b010000 	add	x0, x0, x1
   80f98:	91004800 	add	x0, x0, #0x12
   80f9c:	52800143 	mov	w3, #0xa                   	// #10
   80fa0:	f94017e2 	ldr	x2, [sp, #40]
   80fa4:	52800141 	mov	w1, #0xa                   	// #10
   80fa8:	97ffff3a 	bl	80c90 <cust_strcpy>
   80fac:	b9403fe0 	ldr	w0, [sp, #60]
   80fb0:	14000007 	b	80fcc <set_play+0x158>
   80fb4:	b9403fe0 	ldr	w0, [sp, #60]
   80fb8:	11000400 	add	w0, w0, #0x1
   80fbc:	b9003fe0 	str	w0, [sp, #60]
   80fc0:	b9403fe0 	ldr	w0, [sp, #60]
   80fc4:	7100241f 	cmp	w0, #0x9
   80fc8:	54fff66d 	b.le	80e94 <set_play+0x20>
   80fcc:	a8c47bfd 	ldp	x29, x30, [sp], #64
   80fd0:	d65f03c0 	ret

0000000000080fd4 <reset_game>:
   80fd4:	d10043ff 	sub	sp, sp, #0x10
   80fd8:	f90007e0 	str	x0, [sp, #8]
   80fdc:	f94007e0 	ldr	x0, [sp, #8]
   80fe0:	3900201f 	strb	wzr, [x0, #8]
   80fe4:	f94007e0 	ldr	x0, [sp, #8]
   80fe8:	3900481f 	strb	wzr, [x0, #18]
   80fec:	d503201f 	nop
   80ff0:	910043ff 	add	sp, sp, #0x10
   80ff4:	d65f03c0 	ret

0000000000080ff8 <check_game>:
   80ff8:	a9be7bfd 	stp	x29, x30, [sp, #-32]!
   80ffc:	910003fd 	mov	x29, sp
   81000:	f9000fe0 	str	x0, [sp, #24]
   81004:	f9400fe0 	ldr	x0, [sp, #24]
   81008:	97ffff88 	bl	80e28 <full_play>
   8100c:	12001c00 	and	w0, w0, #0xff
   81010:	7100001f 	cmp	w0, #0x0
   81014:	54000061 	b.ne	81020 <check_game+0x28>  // b.any
   81018:	12800000 	mov	w0, #0xffffffff            	// #-1
   8101c:	14000096 	b	81274 <check_game+0x27c>
   81020:	f9400fe0 	ldr	x0, [sp, #24]
   81024:	91002002 	add	x2, x0, #0x8
   81028:	d0000020 	adrp	x0, 87000 <el1_a32_serror+0x80>
   8102c:	9100a001 	add	x1, x0, #0x28
   81030:	aa0203e0 	mov	x0, x2
   81034:	97fffe92 	bl	80a7c <strcmp_ret>
   81038:	7100001f 	cmp	w0, #0x0
   8103c:	54000200 	b.eq	8107c <check_game+0x84>  // b.none
   81040:	f9400fe0 	ldr	x0, [sp, #24]
   81044:	91004802 	add	x2, x0, #0x12
   81048:	d0000020 	adrp	x0, 87000 <el1_a32_serror+0x80>
   8104c:	9100c001 	add	x1, x0, #0x30
   81050:	aa0203e0 	mov	x0, x2
   81054:	97fffe8a 	bl	80a7c <strcmp_ret>
   81058:	7100001f 	cmp	w0, #0x0
   8105c:	54000100 	b.eq	8107c <check_game+0x84>  // b.none
   81060:	f9400fe0 	ldr	x0, [sp, #24]
   81064:	b9401c00 	ldr	w0, [x0, #28]
   81068:	11000401 	add	w1, w0, #0x1
   8106c:	f9400fe0 	ldr	x0, [sp, #24]
   81070:	b9001c01 	str	w1, [x0, #28]
   81074:	52800020 	mov	w0, #0x1                   	// #1
   81078:	1400007f 	b	81274 <check_game+0x27c>
   8107c:	f9400fe0 	ldr	x0, [sp, #24]
   81080:	91002002 	add	x2, x0, #0x8
   81084:	d0000020 	adrp	x0, 87000 <el1_a32_serror+0x80>
   81088:	9100c001 	add	x1, x0, #0x30
   8108c:	aa0203e0 	mov	x0, x2
   81090:	97fffe7b 	bl	80a7c <strcmp_ret>
   81094:	7100001f 	cmp	w0, #0x0
   81098:	54000200 	b.eq	810d8 <check_game+0xe0>  // b.none
   8109c:	f9400fe0 	ldr	x0, [sp, #24]
   810a0:	91004802 	add	x2, x0, #0x12
   810a4:	d0000020 	adrp	x0, 87000 <el1_a32_serror+0x80>
   810a8:	91010001 	add	x1, x0, #0x40
   810ac:	aa0203e0 	mov	x0, x2
   810b0:	97fffe73 	bl	80a7c <strcmp_ret>
   810b4:	7100001f 	cmp	w0, #0x0
   810b8:	54000100 	b.eq	810d8 <check_game+0xe0>  // b.none
   810bc:	f9400fe0 	ldr	x0, [sp, #24]
   810c0:	b9401c00 	ldr	w0, [x0, #28]
   810c4:	11000401 	add	w1, w0, #0x1
   810c8:	f9400fe0 	ldr	x0, [sp, #24]
   810cc:	b9001c01 	str	w1, [x0, #28]
   810d0:	52800020 	mov	w0, #0x1                   	// #1
   810d4:	14000068 	b	81274 <check_game+0x27c>
   810d8:	f9400fe0 	ldr	x0, [sp, #24]
   810dc:	91002002 	add	x2, x0, #0x8
   810e0:	d0000020 	adrp	x0, 87000 <el1_a32_serror+0x80>
   810e4:	91010001 	add	x1, x0, #0x40
   810e8:	aa0203e0 	mov	x0, x2
   810ec:	97fffe64 	bl	80a7c <strcmp_ret>
   810f0:	7100001f 	cmp	w0, #0x0
   810f4:	54000200 	b.eq	81134 <check_game+0x13c>  // b.none
   810f8:	f9400fe0 	ldr	x0, [sp, #24]
   810fc:	91004802 	add	x2, x0, #0x12
   81100:	d0000020 	adrp	x0, 87000 <el1_a32_serror+0x80>
   81104:	9100a001 	add	x1, x0, #0x28
   81108:	aa0203e0 	mov	x0, x2
   8110c:	97fffe5c 	bl	80a7c <strcmp_ret>
   81110:	7100001f 	cmp	w0, #0x0
   81114:	54000100 	b.eq	81134 <check_game+0x13c>  // b.none
   81118:	f9400fe0 	ldr	x0, [sp, #24]
   8111c:	b9401c00 	ldr	w0, [x0, #28]
   81120:	11000401 	add	w1, w0, #0x1
   81124:	f9400fe0 	ldr	x0, [sp, #24]
   81128:	b9001c01 	str	w1, [x0, #28]
   8112c:	52800020 	mov	w0, #0x1                   	// #1
   81130:	14000051 	b	81274 <check_game+0x27c>
   81134:	f9400fe0 	ldr	x0, [sp, #24]
   81138:	91002002 	add	x2, x0, #0x8
   8113c:	d0000020 	adrp	x0, 87000 <el1_a32_serror+0x80>
   81140:	9100a001 	add	x1, x0, #0x28
   81144:	aa0203e0 	mov	x0, x2
   81148:	97fffe4d 	bl	80a7c <strcmp_ret>
   8114c:	7100001f 	cmp	w0, #0x0
   81150:	54000200 	b.eq	81190 <check_game+0x198>  // b.none
   81154:	f9400fe0 	ldr	x0, [sp, #24]
   81158:	91004802 	add	x2, x0, #0x12
   8115c:	d0000020 	adrp	x0, 87000 <el1_a32_serror+0x80>
   81160:	91010001 	add	x1, x0, #0x40
   81164:	aa0203e0 	mov	x0, x2
   81168:	97fffe45 	bl	80a7c <strcmp_ret>
   8116c:	7100001f 	cmp	w0, #0x0
   81170:	54000100 	b.eq	81190 <check_game+0x198>  // b.none
   81174:	f9400fe0 	ldr	x0, [sp, #24]
   81178:	b9402000 	ldr	w0, [x0, #32]
   8117c:	11000401 	add	w1, w0, #0x1
   81180:	f9400fe0 	ldr	x0, [sp, #24]
   81184:	b9002001 	str	w1, [x0, #32]
   81188:	52800040 	mov	w0, #0x2                   	// #2
   8118c:	1400003a 	b	81274 <check_game+0x27c>
   81190:	f9400fe0 	ldr	x0, [sp, #24]
   81194:	91002002 	add	x2, x0, #0x8
   81198:	d0000020 	adrp	x0, 87000 <el1_a32_serror+0x80>
   8119c:	9100c001 	add	x1, x0, #0x30
   811a0:	aa0203e0 	mov	x0, x2
   811a4:	97fffe36 	bl	80a7c <strcmp_ret>
   811a8:	7100001f 	cmp	w0, #0x0
   811ac:	54000200 	b.eq	811ec <check_game+0x1f4>  // b.none
   811b0:	f9400fe0 	ldr	x0, [sp, #24]
   811b4:	91004802 	add	x2, x0, #0x12
   811b8:	d0000020 	adrp	x0, 87000 <el1_a32_serror+0x80>
   811bc:	9100a001 	add	x1, x0, #0x28
   811c0:	aa0203e0 	mov	x0, x2
   811c4:	97fffe2e 	bl	80a7c <strcmp_ret>
   811c8:	7100001f 	cmp	w0, #0x0
   811cc:	54000100 	b.eq	811ec <check_game+0x1f4>  // b.none
   811d0:	f9400fe0 	ldr	x0, [sp, #24]
   811d4:	b9402000 	ldr	w0, [x0, #32]
   811d8:	11000401 	add	w1, w0, #0x1
   811dc:	f9400fe0 	ldr	x0, [sp, #24]
   811e0:	b9002001 	str	w1, [x0, #32]
   811e4:	52800040 	mov	w0, #0x2                   	// #2
   811e8:	14000023 	b	81274 <check_game+0x27c>
   811ec:	f9400fe0 	ldr	x0, [sp, #24]
   811f0:	91002002 	add	x2, x0, #0x8
   811f4:	d0000020 	adrp	x0, 87000 <el1_a32_serror+0x80>
   811f8:	91010001 	add	x1, x0, #0x40
   811fc:	aa0203e0 	mov	x0, x2
   81200:	97fffe1f 	bl	80a7c <strcmp_ret>
   81204:	7100001f 	cmp	w0, #0x0
   81208:	54000200 	b.eq	81248 <check_game+0x250>  // b.none
   8120c:	f9400fe0 	ldr	x0, [sp, #24]
   81210:	91004802 	add	x2, x0, #0x12
   81214:	d0000020 	adrp	x0, 87000 <el1_a32_serror+0x80>
   81218:	9100c001 	add	x1, x0, #0x30
   8121c:	aa0203e0 	mov	x0, x2
   81220:	97fffe17 	bl	80a7c <strcmp_ret>
   81224:	7100001f 	cmp	w0, #0x0
   81228:	54000100 	b.eq	81248 <check_game+0x250>  // b.none
   8122c:	f9400fe0 	ldr	x0, [sp, #24]
   81230:	b9402000 	ldr	w0, [x0, #32]
   81234:	11000401 	add	w1, w0, #0x1
   81238:	f9400fe0 	ldr	x0, [sp, #24]
   8123c:	b9002001 	str	w1, [x0, #32]
   81240:	52800040 	mov	w0, #0x2                   	// #2
   81244:	1400000c 	b	81274 <check_game+0x27c>
   81248:	f9400fe0 	ldr	x0, [sp, #24]
   8124c:	91002002 	add	x2, x0, #0x8
   81250:	f9400fe0 	ldr	x0, [sp, #24]
   81254:	91004800 	add	x0, x0, #0x12
   81258:	aa0003e1 	mov	x1, x0
   8125c:	aa0203e0 	mov	x0, x2
   81260:	97fffe07 	bl	80a7c <strcmp_ret>
   81264:	7100001f 	cmp	w0, #0x0
   81268:	54000060 	b.eq	81274 <check_game+0x27c>  // b.none
   8126c:	52800000 	mov	w0, #0x0                   	// #0
   81270:	14000001 	b	81274 <check_game+0x27c>
   81274:	a8c27bfd 	ldp	x29, x30, [sp], #32
   81278:	d65f03c0 	ret

000000000008127c <gameserver>:
   8127c:	a9a17bfd 	stp	x29, x30, [sp, #-496]!
   81280:	910003fd 	mov	x29, sp
   81284:	d0000020 	adrp	x0, 87000 <el1_a32_serror+0x80>
   81288:	91012000 	add	x0, x0, #0x48
   8128c:	940004d5 	bl	825e0 <RegisterAs>
   81290:	52800620 	mov	w0, #0x31                  	// #49
   81294:	b901e3e0 	str	w0, [sp, #480]
   81298:	b901efff 	str	wzr, [sp, #492]
   8129c:	14000020 	b	8131c <gameserver+0xa0>
   812a0:	b981efe1 	ldrsw	x1, [sp, #492]
   812a4:	aa0103e0 	mov	x0, x1
   812a8:	d37df000 	lsl	x0, x0, #3
   812ac:	8b010000 	add	x0, x0, x1
   812b0:	d37ef400 	lsl	x0, x0, #2
   812b4:	910063e1 	add	x1, sp, #0x18
   812b8:	b820683f 	str	wzr, [x1, x0]
   812bc:	b981efe1 	ldrsw	x1, [sp, #492]
   812c0:	aa0103e0 	mov	x0, x1
   812c4:	d37df000 	lsl	x0, x0, #3
   812c8:	8b010000 	add	x0, x0, x1
   812cc:	d37ef400 	lsl	x0, x0, #2
   812d0:	910083e1 	add	x1, sp, #0x20
   812d4:	3820683f 	strb	wzr, [x1, x0]
   812d8:	b981efe1 	ldrsw	x1, [sp, #492]
   812dc:	aa0103e0 	mov	x0, x1
   812e0:	d37df000 	lsl	x0, x0, #3
   812e4:	8b010000 	add	x0, x0, x1
   812e8:	d37ef400 	lsl	x0, x0, #2
   812ec:	910073e1 	add	x1, sp, #0x1c
   812f0:	b820683f 	str	wzr, [x1, x0]
   812f4:	b981efe1 	ldrsw	x1, [sp, #492]
   812f8:	aa0103e0 	mov	x0, x1
   812fc:	d37df000 	lsl	x0, x0, #3
   81300:	8b010000 	add	x0, x0, x1
   81304:	d37ef400 	lsl	x0, x0, #2
   81308:	9100abe1 	add	x1, sp, #0x2a
   8130c:	3820683f 	strb	wzr, [x1, x0]
   81310:	b941efe0 	ldr	w0, [sp, #492]
   81314:	11000400 	add	w0, w0, #0x1
   81318:	b901efe0 	str	w0, [sp, #492]
   8131c:	b941efe0 	ldr	w0, [sp, #492]
   81320:	7100241f 	cmp	w0, #0x9
   81324:	54fffbed 	b.le	812a0 <gameserver+0x24>
   81328:	910603e1 	add	x1, sp, #0x180
   8132c:	9106e3e0 	add	x0, sp, #0x1b8
   81330:	b941e3e2 	ldr	w2, [sp, #480]
   81334:	94000ee3 	bl	84ec0 <Receive>
   81338:	b901dfe0 	str	w0, [sp, #476]
   8133c:	910603e2 	add	x2, sp, #0x180
   81340:	d0000020 	adrp	x0, 87000 <el1_a32_serror+0x80>
   81344:	91016001 	add	x1, x0, #0x58
   81348:	aa0203e0 	mov	x0, x2
   8134c:	97fffdcc 	bl	80a7c <strcmp_ret>
   81350:	7100001f 	cmp	w0, #0x0
   81354:	540008e0 	b.eq	81470 <gameserver+0x1f4>  // b.none
   81358:	b901ebff 	str	wzr, [sp, #488]
   8135c:	1400003a 	b	81444 <gameserver+0x1c8>
   81360:	910063e2 	add	x2, sp, #0x18
   81364:	b981ebe1 	ldrsw	x1, [sp, #488]
   81368:	aa0103e0 	mov	x0, x1
   8136c:	d37df000 	lsl	x0, x0, #3
   81370:	8b010000 	add	x0, x0, x1
   81374:	d37ef400 	lsl	x0, x0, #2
   81378:	8b000040 	add	x0, x2, x0
   8137c:	97fffe9b 	bl	80de8 <full_game>
   81380:	12001c00 	and	w0, w0, #0xff
   81384:	7100001f 	cmp	w0, #0x0
   81388:	54000581 	b.ne	81438 <gameserver+0x1bc>  // b.any
   8138c:	b981ebe1 	ldrsw	x1, [sp, #488]
   81390:	aa0103e0 	mov	x0, x1
   81394:	d37df000 	lsl	x0, x0, #3
   81398:	8b010000 	add	x0, x0, x1
   8139c:	d37ef400 	lsl	x0, x0, #2
   813a0:	910063e1 	add	x1, sp, #0x18
   813a4:	b8606820 	ldr	w0, [x1, x0]
   813a8:	7100001f 	cmp	w0, #0x0
   813ac:	54000241 	b.ne	813f4 <gameserver+0x178>  // b.any
   813b0:	b941bbe0 	ldr	w0, [sp, #440]
   813b4:	2a0003e2 	mov	w2, w0
   813b8:	b981ebe1 	ldrsw	x1, [sp, #488]
   813bc:	aa0103e0 	mov	x0, x1
   813c0:	d37df000 	lsl	x0, x0, #3
   813c4:	8b010000 	add	x0, x0, x1
   813c8:	d37ef400 	lsl	x0, x0, #2
   813cc:	910063e1 	add	x1, sp, #0x18
   813d0:	b8206822 	str	w2, [x1, x0]
   813d4:	b981ebe1 	ldrsw	x1, [sp, #488]
   813d8:	aa0103e0 	mov	x0, x1
   813dc:	d37df000 	lsl	x0, x0, #3
   813e0:	8b010000 	add	x0, x0, x1
   813e4:	d37ef400 	lsl	x0, x0, #2
   813e8:	910083e1 	add	x1, sp, #0x20
   813ec:	3820683f 	strb	wzr, [x1, x0]
   813f0:	14000018 	b	81450 <gameserver+0x1d4>
   813f4:	b941bbe0 	ldr	w0, [sp, #440]
   813f8:	2a0003e2 	mov	w2, w0
   813fc:	b981ebe1 	ldrsw	x1, [sp, #488]
   81400:	aa0103e0 	mov	x0, x1
   81404:	d37df000 	lsl	x0, x0, #3
   81408:	8b010000 	add	x0, x0, x1
   8140c:	d37ef400 	lsl	x0, x0, #2
   81410:	910073e1 	add	x1, sp, #0x1c
   81414:	b8206822 	str	w2, [x1, x0]
   81418:	b981ebe1 	ldrsw	x1, [sp, #488]
   8141c:	aa0103e0 	mov	x0, x1
   81420:	d37df000 	lsl	x0, x0, #3
   81424:	8b010000 	add	x0, x0, x1
   81428:	d37ef400 	lsl	x0, x0, #2
   8142c:	9100abe1 	add	x1, sp, #0x2a
   81430:	3820683f 	strb	wzr, [x1, x0]
   81434:	14000007 	b	81450 <gameserver+0x1d4>
   81438:	b941ebe0 	ldr	w0, [sp, #488]
   8143c:	11000400 	add	w0, w0, #0x1
   81440:	b901ebe0 	str	w0, [sp, #488]
   81444:	b941ebe0 	ldr	w0, [sp, #488]
   81448:	7100241f 	cmp	w0, #0x9
   8144c:	54fff8ad 	b.le	81360 <gameserver+0xe4>
   81450:	b941bbe3 	ldr	w3, [sp, #440]
   81454:	52800322 	mov	w2, #0x19                  	// #25
   81458:	d0000020 	adrp	x0, 87000 <el1_a32_serror+0x80>
   8145c:	91018001 	add	x1, x0, #0x60
   81460:	2a0303e0 	mov	w0, w3
   81464:	94000ea0 	bl	84ee4 <Reply>
   81468:	b901bfe0 	str	w0, [sp, #444]
   8146c:	140000c5 	b	81780 <gameserver+0x504>
   81470:	910603e2 	add	x2, sp, #0x180
   81474:	d0000020 	adrp	x0, 87000 <el1_a32_serror+0x80>
   81478:	9101c001 	add	x1, x0, #0x70
   8147c:	aa0203e0 	mov	x0, x2
   81480:	97fffd7f 	bl	80a7c <strcmp_ret>
   81484:	7100001f 	cmp	w0, #0x0
   81488:	54000820 	b.eq	8158c <gameserver+0x310>  // b.none
   8148c:	b901e7ff 	str	wzr, [sp, #484]
   81490:	14000034 	b	81560 <gameserver+0x2e4>
   81494:	b981e7e1 	ldrsw	x1, [sp, #484]
   81498:	aa0103e0 	mov	x0, x1
   8149c:	d37df000 	lsl	x0, x0, #3
   814a0:	8b010000 	add	x0, x0, x1
   814a4:	d37ef400 	lsl	x0, x0, #2
   814a8:	910063e1 	add	x1, sp, #0x18
   814ac:	b8606820 	ldr	w0, [x1, x0]
   814b0:	b941bbe1 	ldr	w1, [sp, #440]
   814b4:	6b01001f 	cmp	w0, w1
   814b8:	540001e1 	b.ne	814f4 <gameserver+0x278>  // b.any
   814bc:	b981e7e1 	ldrsw	x1, [sp, #484]
   814c0:	aa0103e0 	mov	x0, x1
   814c4:	d37df000 	lsl	x0, x0, #3
   814c8:	8b010000 	add	x0, x0, x1
   814cc:	d37ef400 	lsl	x0, x0, #2
   814d0:	910063e1 	add	x1, sp, #0x18
   814d4:	b820683f 	str	wzr, [x1, x0]
   814d8:	b981e7e1 	ldrsw	x1, [sp, #484]
   814dc:	aa0103e0 	mov	x0, x1
   814e0:	d37df000 	lsl	x0, x0, #3
   814e4:	8b010000 	add	x0, x0, x1
   814e8:	d37ef400 	lsl	x0, x0, #2
   814ec:	910083e1 	add	x1, sp, #0x20
   814f0:	3820683f 	strb	wzr, [x1, x0]
   814f4:	b981e7e1 	ldrsw	x1, [sp, #484]
   814f8:	aa0103e0 	mov	x0, x1
   814fc:	d37df000 	lsl	x0, x0, #3
   81500:	8b010000 	add	x0, x0, x1
   81504:	d37ef400 	lsl	x0, x0, #2
   81508:	910073e1 	add	x1, sp, #0x1c
   8150c:	b8606820 	ldr	w0, [x1, x0]
   81510:	b941bbe1 	ldr	w1, [sp, #440]
   81514:	6b01001f 	cmp	w0, w1
   81518:	540001e1 	b.ne	81554 <gameserver+0x2d8>  // b.any
   8151c:	b981e7e1 	ldrsw	x1, [sp, #484]
   81520:	aa0103e0 	mov	x0, x1
   81524:	d37df000 	lsl	x0, x0, #3
   81528:	8b010000 	add	x0, x0, x1
   8152c:	d37ef400 	lsl	x0, x0, #2
   81530:	910073e1 	add	x1, sp, #0x1c
   81534:	b820683f 	str	wzr, [x1, x0]
   81538:	b981e7e1 	ldrsw	x1, [sp, #484]
   8153c:	aa0103e0 	mov	x0, x1
   81540:	d37df000 	lsl	x0, x0, #3
   81544:	8b010000 	add	x0, x0, x1
   81548:	d37ef400 	lsl	x0, x0, #2
   8154c:	9100abe1 	add	x1, sp, #0x2a
   81550:	3820683f 	strb	wzr, [x1, x0]
   81554:	b941e7e0 	ldr	w0, [sp, #484]
   81558:	11000400 	add	w0, w0, #0x1
   8155c:	b901e7e0 	str	w0, [sp, #484]
   81560:	b941e7e0 	ldr	w0, [sp, #484]
   81564:	7100241f 	cmp	w0, #0x9
   81568:	54fff96d 	b.le	81494 <gameserver+0x218>
   8156c:	b941bbe3 	ldr	w3, [sp, #440]
   81570:	52800322 	mov	w2, #0x19                  	// #25
   81574:	d0000020 	adrp	x0, 87000 <el1_a32_serror+0x80>
   81578:	91018001 	add	x1, x0, #0x60
   8157c:	2a0303e0 	mov	w0, w3
   81580:	94000e59 	bl	84ee4 <Reply>
   81584:	b901c3e0 	str	w0, [sp, #448]
   81588:	1400007e 	b	81780 <gameserver+0x504>
   8158c:	910603e2 	add	x2, sp, #0x180
   81590:	d0000020 	adrp	x0, 87000 <el1_a32_serror+0x80>
   81594:	9100a001 	add	x1, x0, #0x28
   81598:	aa0203e0 	mov	x0, x2
   8159c:	97fffd38 	bl	80a7c <strcmp_ret>
   815a0:	7100001f 	cmp	w0, #0x0
   815a4:	540001e1 	b.ne	815e0 <gameserver+0x364>  // b.any
   815a8:	910603e2 	add	x2, sp, #0x180
   815ac:	d0000020 	adrp	x0, 87000 <el1_a32_serror+0x80>
   815b0:	91010001 	add	x1, x0, #0x40
   815b4:	aa0203e0 	mov	x0, x2
   815b8:	97fffd31 	bl	80a7c <strcmp_ret>
   815bc:	7100001f 	cmp	w0, #0x0
   815c0:	54000101 	b.ne	815e0 <gameserver+0x364>  // b.any
   815c4:	910603e2 	add	x2, sp, #0x180
   815c8:	d0000020 	adrp	x0, 87000 <el1_a32_serror+0x80>
   815cc:	9100c001 	add	x1, x0, #0x30
   815d0:	aa0203e0 	mov	x0, x2
   815d4:	97fffd2a 	bl	80a7c <strcmp_ret>
   815d8:	7100001f 	cmp	w0, #0x0
   815dc:	54ffea60 	b.eq	81328 <gameserver+0xac>  // b.none
   815e0:	b941bbe0 	ldr	w0, [sp, #440]
   815e4:	2a0003e3 	mov	w3, w0
   815e8:	910063e1 	add	x1, sp, #0x18
   815ec:	910603e0 	add	x0, sp, #0x180
   815f0:	aa0103e2 	mov	x2, x1
   815f4:	2a0303e1 	mov	w1, w3
   815f8:	97fffe1f 	bl	80e74 <set_play>
   815fc:	39076fe0 	strb	w0, [sp, #475]
   81600:	39476fe0 	ldrb	w0, [sp, #475]
   81604:	93407c01 	sxtw	x1, w0
   81608:	aa0103e0 	mov	x0, x1
   8160c:	d37df000 	lsl	x0, x0, #3
   81610:	8b010000 	add	x0, x0, x1
   81614:	d37ef400 	lsl	x0, x0, #2
   81618:	910063e1 	add	x1, sp, #0x18
   8161c:	b8606820 	ldr	w0, [x1, x0]
   81620:	b901d7e0 	str	w0, [sp, #468]
   81624:	39476fe0 	ldrb	w0, [sp, #475]
   81628:	93407c01 	sxtw	x1, w0
   8162c:	aa0103e0 	mov	x0, x1
   81630:	d37df000 	lsl	x0, x0, #3
   81634:	8b010000 	add	x0, x0, x1
   81638:	d37ef400 	lsl	x0, x0, #2
   8163c:	910073e1 	add	x1, sp, #0x1c
   81640:	b8606820 	ldr	w0, [x1, x0]
   81644:	b901d3e0 	str	w0, [sp, #464]
   81648:	39476fe0 	ldrb	w0, [sp, #475]
   8164c:	910063e2 	add	x2, sp, #0x18
   81650:	93407c01 	sxtw	x1, w0
   81654:	aa0103e0 	mov	x0, x1
   81658:	d37df000 	lsl	x0, x0, #3
   8165c:	8b010000 	add	x0, x0, x1
   81660:	d37ef400 	lsl	x0, x0, #2
   81664:	8b000040 	add	x0, x2, x0
   81668:	97fffdf0 	bl	80e28 <full_play>
   8166c:	12001c00 	and	w0, w0, #0xff
   81670:	7100001f 	cmp	w0, #0x0
   81674:	54ffe5a0 	b.eq	81328 <gameserver+0xac>  // b.none
   81678:	39476fe0 	ldrb	w0, [sp, #475]
   8167c:	910063e2 	add	x2, sp, #0x18
   81680:	93407c01 	sxtw	x1, w0
   81684:	aa0103e0 	mov	x0, x1
   81688:	d37df000 	lsl	x0, x0, #3
   8168c:	8b010000 	add	x0, x0, x1
   81690:	d37ef400 	lsl	x0, x0, #2
   81694:	8b000040 	add	x0, x2, x0
   81698:	97fffe58 	bl	80ff8 <check_game>
   8169c:	b901cfe0 	str	w0, [sp, #460]
   816a0:	39476fe0 	ldrb	w0, [sp, #475]
   816a4:	910063e2 	add	x2, sp, #0x18
   816a8:	93407c01 	sxtw	x1, w0
   816ac:	aa0103e0 	mov	x0, x1
   816b0:	d37df000 	lsl	x0, x0, #3
   816b4:	8b010000 	add	x0, x0, x1
   816b8:	d37ef400 	lsl	x0, x0, #2
   816bc:	8b000040 	add	x0, x2, x0
   816c0:	97fffe45 	bl	80fd4 <reset_game>
   816c4:	b941cfe0 	ldr	w0, [sp, #460]
   816c8:	7100041f 	cmp	w0, #0x1
   816cc:	540001c1 	b.ne	81704 <gameserver+0x488>  // b.any
   816d0:	52800042 	mov	w2, #0x2                   	// #2
   816d4:	d0000020 	adrp	x0, 87000 <el1_a32_serror+0x80>
   816d8:	9101e001 	add	x1, x0, #0x78
   816dc:	b941d7e0 	ldr	w0, [sp, #468]
   816e0:	94000e01 	bl	84ee4 <Reply>
   816e4:	b901cbe0 	str	w0, [sp, #456]
   816e8:	52800042 	mov	w2, #0x2                   	// #2
   816ec:	d0000020 	adrp	x0, 87000 <el1_a32_serror+0x80>
   816f0:	91020001 	add	x1, x0, #0x80
   816f4:	b941d3e0 	ldr	w0, [sp, #464]
   816f8:	94000dfb 	bl	84ee4 <Reply>
   816fc:	b901c7e0 	str	w0, [sp, #452]
   81700:	17ffff0a 	b	81328 <gameserver+0xac>
   81704:	b941cfe0 	ldr	w0, [sp, #460]
   81708:	7100081f 	cmp	w0, #0x2
   8170c:	540001c1 	b.ne	81744 <gameserver+0x4c8>  // b.any
   81710:	52800042 	mov	w2, #0x2                   	// #2
   81714:	d0000020 	adrp	x0, 87000 <el1_a32_serror+0x80>
   81718:	91020001 	add	x1, x0, #0x80
   8171c:	b941d7e0 	ldr	w0, [sp, #468]
   81720:	94000df1 	bl	84ee4 <Reply>
   81724:	b901cbe0 	str	w0, [sp, #456]
   81728:	52800042 	mov	w2, #0x2                   	// #2
   8172c:	d0000020 	adrp	x0, 87000 <el1_a32_serror+0x80>
   81730:	9101e001 	add	x1, x0, #0x78
   81734:	b941d3e0 	ldr	w0, [sp, #464]
   81738:	94000deb 	bl	84ee4 <Reply>
   8173c:	b901c7e0 	str	w0, [sp, #452]
   81740:	17fffefa 	b	81328 <gameserver+0xac>
   81744:	b941cfe0 	ldr	w0, [sp, #460]
   81748:	7100001f 	cmp	w0, #0x0
   8174c:	54ffdee1 	b.ne	81328 <gameserver+0xac>  // b.any
   81750:	52800042 	mov	w2, #0x2                   	// #2
   81754:	d0000020 	adrp	x0, 87000 <el1_a32_serror+0x80>
   81758:	91022001 	add	x1, x0, #0x88
   8175c:	b941d7e0 	ldr	w0, [sp, #468]
   81760:	94000de1 	bl	84ee4 <Reply>
   81764:	b901cbe0 	str	w0, [sp, #456]
   81768:	52800042 	mov	w2, #0x2                   	// #2
   8176c:	d0000020 	adrp	x0, 87000 <el1_a32_serror+0x80>
   81770:	91022001 	add	x1, x0, #0x88
   81774:	b941d3e0 	ldr	w0, [sp, #464]
   81778:	94000ddb 	bl	84ee4 <Reply>
   8177c:	b901c7e0 	str	w0, [sp, #452]
   81780:	17fffeea 	b	81328 <gameserver+0xac>

0000000000081784 <signup>:
   81784:	a9bd7bfd 	stp	x29, x30, [sp, #-48]!
   81788:	910003fd 	mov	x29, sp
   8178c:	d0000020 	adrp	x0, 87000 <el1_a32_serror+0x80>
   81790:	91012000 	add	x0, x0, #0x48
   81794:	940003db 	bl	82700 <WhoIs>
   81798:	b9002fe0 	str	w0, [sp, #44]
   8179c:	910043e0 	add	x0, sp, #0x10
   817a0:	52800324 	mov	w4, #0x19                  	// #25
   817a4:	aa0003e3 	mov	x3, x0
   817a8:	528000c2 	mov	w2, #0x6                   	// #6
   817ac:	d0000020 	adrp	x0, 87000 <el1_a32_serror+0x80>
   817b0:	91016001 	add	x1, x0, #0x58
   817b4:	b9402fe0 	ldr	w0, [sp, #44]
   817b8:	94000db7 	bl	84e94 <Send>
   817bc:	d503201f 	nop
   817c0:	a8c37bfd 	ldp	x29, x30, [sp], #48
   817c4:	d65f03c0 	ret

00000000000817c8 <quit>:
   817c8:	a9bd7bfd 	stp	x29, x30, [sp, #-48]!
   817cc:	910003fd 	mov	x29, sp
   817d0:	d0000020 	adrp	x0, 87000 <el1_a32_serror+0x80>
   817d4:	91012000 	add	x0, x0, #0x48
   817d8:	940003ca 	bl	82700 <WhoIs>
   817dc:	b9002fe0 	str	w0, [sp, #44]
   817e0:	910043e0 	add	x0, sp, #0x10
   817e4:	52800324 	mov	w4, #0x19                  	// #25
   817e8:	aa0003e3 	mov	x3, x0
   817ec:	52800082 	mov	w2, #0x4                   	// #4
   817f0:	d0000020 	adrp	x0, 87000 <el1_a32_serror+0x80>
   817f4:	9101c001 	add	x1, x0, #0x70
   817f8:	b9402fe0 	ldr	w0, [sp, #44]
   817fc:	94000da6 	bl	84e94 <Send>
   81800:	d503201f 	nop
   81804:	a8c37bfd 	ldp	x29, x30, [sp], #48
   81808:	d65f03c0 	ret

000000000008180c <play>:
   8180c:	a9bc7bfd 	stp	x29, x30, [sp, #-64]!
   81810:	910003fd 	mov	x29, sp
   81814:	f9000fe0 	str	x0, [sp, #24]
   81818:	d0000020 	adrp	x0, 87000 <el1_a32_serror+0x80>
   8181c:	91012000 	add	x0, x0, #0x48
   81820:	940003b8 	bl	82700 <WhoIs>
   81824:	b9003fe0 	str	w0, [sp, #60]
   81828:	910083e0 	add	x0, sp, #0x20
   8182c:	52800324 	mov	w4, #0x19                  	// #25
   81830:	aa0003e3 	mov	x3, x0
   81834:	52800122 	mov	w2, #0x9                   	// #9
   81838:	f9400fe1 	ldr	x1, [sp, #24]
   8183c:	b9403fe0 	ldr	w0, [sp, #60]
   81840:	94000d95 	bl	84e94 <Send>
   81844:	394083e0 	ldrb	w0, [sp, #32]
   81848:	3900efe0 	strb	w0, [sp, #59]
   8184c:	3940efe0 	ldrb	w0, [sp, #59]
   81850:	a8c47bfd 	ldp	x29, x30, [sp], #64
   81854:	d65f03c0 	ret

0000000000081858 <k2_sender>:
   81858:	a9b27bfd 	stp	x29, x30, [sp, #-224]!
   8185c:	910003fd 	mov	x29, sp
   81860:	a90153f3 	stp	x19, x20, [sp, #16]
   81864:	a9025bf5 	stp	x21, x22, [sp, #32]
   81868:	a90363f7 	stp	x23, x24, [sp, #48]
   8186c:	a9046bf9 	stp	x25, x26, [sp, #64]
   81870:	f9002bfb 	str	x27, [sp, #80]
   81874:	b900afa0 	str	w0, [x29, #172]
   81878:	910003e0 	mov	x0, sp
   8187c:	aa0003f3 	mov	x19, x0
   81880:	94000da9 	bl	84f24 <MyTid>
   81884:	b900dba0 	str	w0, [x29, #216]
   81888:	d0000020 	adrp	x0, 87000 <el1_a32_serror+0x80>
   8188c:	91024000 	add	x0, x0, #0x90
   81890:	94000354 	bl	825e0 <RegisterAs>
   81894:	b940dba2 	ldr	w2, [x29, #216]
   81898:	d0000020 	adrp	x0, 87000 <el1_a32_serror+0x80>
   8189c:	91026001 	add	x1, x0, #0x98
   818a0:	d2800020 	mov	x0, #0x1                   	// #1
   818a4:	940006ba 	bl	8338c <uart_printf>
   818a8:	b940afa0 	ldr	w0, [x29, #172]
   818ac:	93407c01 	sxtw	x1, w0
   818b0:	d1000421 	sub	x1, x1, #0x1
   818b4:	f9006ba1 	str	x1, [x29, #208]
   818b8:	93407c01 	sxtw	x1, w0
   818bc:	f9004ba1 	str	x1, [x29, #144]
   818c0:	f9004fbf 	str	xzr, [x29, #152]
   818c4:	a9490fa2 	ldp	x2, x3, [x29, #144]
   818c8:	aa0203e1 	mov	x1, x2
   818cc:	d37dfc21 	lsr	x1, x1, #61
   818d0:	aa0303e4 	mov	x4, x3
   818d4:	d37df09b 	lsl	x27, x4, #3
   818d8:	aa1b003b 	orr	x27, x1, x27
   818dc:	aa0203e1 	mov	x1, x2
   818e0:	d37df03a 	lsl	x26, x1, #3
   818e4:	93407c01 	sxtw	x1, w0
   818e8:	f90043a1 	str	x1, [x29, #128]
   818ec:	f90047bf 	str	xzr, [x29, #136]
   818f0:	a9480fa2 	ldp	x2, x3, [x29, #128]
   818f4:	aa0203e1 	mov	x1, x2
   818f8:	d37dfc21 	lsr	x1, x1, #61
   818fc:	aa0303e4 	mov	x4, x3
   81900:	d37df099 	lsl	x25, x4, #3
   81904:	aa190039 	orr	x25, x1, x25
   81908:	aa0203e1 	mov	x1, x2
   8190c:	d37df038 	lsl	x24, x1, #3
   81910:	93407c00 	sxtw	x0, w0
   81914:	91003c00 	add	x0, x0, #0xf
   81918:	d344fc00 	lsr	x0, x0, #4
   8191c:	d37cec00 	lsl	x0, x0, #4
   81920:	cb2063ff 	sub	sp, sp, x0
   81924:	910003e0 	mov	x0, sp
   81928:	91000000 	add	x0, x0, #0x0
   8192c:	f90067a0 	str	x0, [x29, #200]
   81930:	b900dfbf 	str	wzr, [x29, #220]
   81934:	14000008 	b	81954 <k2_sender+0xfc>
   81938:	f94067a1 	ldr	x1, [x29, #200]
   8193c:	b980dfa0 	ldrsw	x0, [x29, #220]
   81940:	52800a62 	mov	w2, #0x53                  	// #83
   81944:	38206822 	strb	w2, [x1, x0]
   81948:	b940dfa0 	ldr	w0, [x29, #220]
   8194c:	11000400 	add	w0, w0, #0x1
   81950:	b900dfa0 	str	w0, [x29, #220]
   81954:	b940dfa1 	ldr	w1, [x29, #220]
   81958:	b940afa0 	ldr	w0, [x29, #172]
   8195c:	6b00003f 	cmp	w1, w0
   81960:	54fffecb 	b.lt	81938 <k2_sender+0xe0>  // b.tstop
   81964:	d0000020 	adrp	x0, 87000 <el1_a32_serror+0x80>
   81968:	9102e000 	add	x0, x0, #0xb8
   8196c:	94000365 	bl	82700 <WhoIs>
   81970:	b900dba0 	str	w0, [x29, #216]
   81974:	b940afa0 	ldr	w0, [x29, #172]
   81978:	93407c01 	sxtw	x1, w0
   8197c:	d1000421 	sub	x1, x1, #0x1
   81980:	f90063a1 	str	x1, [x29, #192]
   81984:	93407c01 	sxtw	x1, w0
   81988:	f9003ba1 	str	x1, [x29, #112]
   8198c:	f9003fbf 	str	xzr, [x29, #120]
   81990:	a9470fa2 	ldp	x2, x3, [x29, #112]
   81994:	aa0203e1 	mov	x1, x2
   81998:	d37dfc21 	lsr	x1, x1, #61
   8199c:	aa0303e4 	mov	x4, x3
   819a0:	d37df097 	lsl	x23, x4, #3
   819a4:	aa170037 	orr	x23, x1, x23
   819a8:	aa0203e1 	mov	x1, x2
   819ac:	d37df036 	lsl	x22, x1, #3
   819b0:	93407c01 	sxtw	x1, w0
   819b4:	f90033a1 	str	x1, [x29, #96]
   819b8:	f90037bf 	str	xzr, [x29, #104]
   819bc:	a9460fa2 	ldp	x2, x3, [x29, #96]
   819c0:	aa0203e1 	mov	x1, x2
   819c4:	d37dfc21 	lsr	x1, x1, #61
   819c8:	aa0303e4 	mov	x4, x3
   819cc:	d37df095 	lsl	x21, x4, #3
   819d0:	aa150035 	orr	x21, x1, x21
   819d4:	aa0203e1 	mov	x1, x2
   819d8:	d37df034 	lsl	x20, x1, #3
   819dc:	93407c00 	sxtw	x0, w0
   819e0:	91003c00 	add	x0, x0, #0xf
   819e4:	d344fc00 	lsr	x0, x0, #4
   819e8:	d37cec00 	lsl	x0, x0, #4
   819ec:	cb2063ff 	sub	sp, sp, x0
   819f0:	910003e0 	mov	x0, sp
   819f4:	91000000 	add	x0, x0, #0x0
   819f8:	f9005fa0 	str	x0, [x29, #184]
   819fc:	b940afa4 	ldr	w4, [x29, #172]
   81a00:	f9405fa3 	ldr	x3, [x29, #184]
   81a04:	b940afa2 	ldr	w2, [x29, #172]
   81a08:	f94067a1 	ldr	x1, [x29, #200]
   81a0c:	b940dba0 	ldr	w0, [x29, #216]
   81a10:	94000d21 	bl	84e94 <Send>
   81a14:	b900b7a0 	str	w0, [x29, #180]
   81a18:	b940b7a3 	ldr	w3, [x29, #180]
   81a1c:	f9405fa2 	ldr	x2, [x29, #184]
   81a20:	d0000020 	adrp	x0, 87000 <el1_a32_serror+0x80>
   81a24:	91032001 	add	x1, x0, #0xc8
   81a28:	d2800020 	mov	x0, #0x1                   	// #1
   81a2c:	94000658 	bl	8338c <uart_printf>
   81a30:	94000d57 	bl	84f8c <Exit>
   81a34:	9100027f 	mov	sp, x19
   81a38:	d503201f 	nop
   81a3c:	910003bf 	mov	sp, x29
   81a40:	a94153f3 	ldp	x19, x20, [sp, #16]
   81a44:	a9425bf5 	ldp	x21, x22, [sp, #32]
   81a48:	a94363f7 	ldp	x23, x24, [sp, #48]
   81a4c:	a9446bf9 	ldp	x25, x26, [sp, #64]
   81a50:	f9402bfb 	ldr	x27, [sp, #80]
   81a54:	a8ce7bfd 	ldp	x29, x30, [sp], #224
   81a58:	d65f03c0 	ret

0000000000081a5c <k2Receiver>:
   81a5c:	a9b17bfd 	stp	x29, x30, [sp, #-240]!
   81a60:	910003fd 	mov	x29, sp
   81a64:	a90153f3 	stp	x19, x20, [sp, #16]
   81a68:	a9025bf5 	stp	x21, x22, [sp, #32]
   81a6c:	a90363f7 	stp	x23, x24, [sp, #48]
   81a70:	a9046bf9 	stp	x25, x26, [sp, #64]
   81a74:	f9002bfb 	str	x27, [sp, #80]
   81a78:	b900afa0 	str	w0, [x29, #172]
   81a7c:	910003e0 	mov	x0, sp
   81a80:	aa0003f3 	mov	x19, x0
   81a84:	94000d28 	bl	84f24 <MyTid>
   81a88:	b900eba0 	str	w0, [x29, #232]
   81a8c:	d0000020 	adrp	x0, 87000 <el1_a32_serror+0x80>
   81a90:	9102e000 	add	x0, x0, #0xb8
   81a94:	940002d3 	bl	825e0 <RegisterAs>
   81a98:	b940afa0 	ldr	w0, [x29, #172]
   81a9c:	93407c01 	sxtw	x1, w0
   81aa0:	d1000421 	sub	x1, x1, #0x1
   81aa4:	f90073a1 	str	x1, [x29, #224]
   81aa8:	93407c01 	sxtw	x1, w0
   81aac:	f9004ba1 	str	x1, [x29, #144]
   81ab0:	f9004fbf 	str	xzr, [x29, #152]
   81ab4:	a9490fa2 	ldp	x2, x3, [x29, #144]
   81ab8:	aa0203e1 	mov	x1, x2
   81abc:	d37dfc21 	lsr	x1, x1, #61
   81ac0:	aa0303e4 	mov	x4, x3
   81ac4:	d37df09b 	lsl	x27, x4, #3
   81ac8:	aa1b003b 	orr	x27, x1, x27
   81acc:	aa0203e1 	mov	x1, x2
   81ad0:	d37df03a 	lsl	x26, x1, #3
   81ad4:	93407c01 	sxtw	x1, w0
   81ad8:	f90043a1 	str	x1, [x29, #128]
   81adc:	f90047bf 	str	xzr, [x29, #136]
   81ae0:	a9480fa2 	ldp	x2, x3, [x29, #128]
   81ae4:	aa0203e1 	mov	x1, x2
   81ae8:	d37dfc21 	lsr	x1, x1, #61
   81aec:	aa0303e4 	mov	x4, x3
   81af0:	d37df099 	lsl	x25, x4, #3
   81af4:	aa190039 	orr	x25, x1, x25
   81af8:	aa0203e1 	mov	x1, x2
   81afc:	d37df038 	lsl	x24, x1, #3
   81b00:	93407c00 	sxtw	x0, w0
   81b04:	91003c00 	add	x0, x0, #0xf
   81b08:	d344fc00 	lsr	x0, x0, #4
   81b0c:	d37cec00 	lsl	x0, x0, #4
   81b10:	cb2063ff 	sub	sp, sp, x0
   81b14:	910003e0 	mov	x0, sp
   81b18:	91000000 	add	x0, x0, #0x0
   81b1c:	f9006fa0 	str	x0, [x29, #216]
   81b20:	b900efbf 	str	wzr, [x29, #236]
   81b24:	14000008 	b	81b44 <k2Receiver+0xe8>
   81b28:	f9406fa1 	ldr	x1, [x29, #216]
   81b2c:	b980efa0 	ldrsw	x0, [x29, #236]
   81b30:	52800a42 	mov	w2, #0x52                  	// #82
   81b34:	38206822 	strb	w2, [x1, x0]
   81b38:	b940efa0 	ldr	w0, [x29, #236]
   81b3c:	11000400 	add	w0, w0, #0x1
   81b40:	b900efa0 	str	w0, [x29, #236]
   81b44:	b940efa1 	ldr	w1, [x29, #236]
   81b48:	b940afa0 	ldr	w0, [x29, #172]
   81b4c:	6b00003f 	cmp	w1, w0
   81b50:	54fffecb 	b.lt	81b28 <k2Receiver+0xcc>  // b.tstop
   81b54:	b940eba2 	ldr	w2, [x29, #232]
   81b58:	d0000020 	adrp	x0, 87000 <el1_a32_serror+0x80>
   81b5c:	91046001 	add	x1, x0, #0x118
   81b60:	d2800020 	mov	x0, #0x1                   	// #1
   81b64:	9400060a 	bl	8338c <uart_printf>
   81b68:	9102e3a0 	add	x0, x29, #0xb8
   81b6c:	b940afa2 	ldr	w2, [x29, #172]
   81b70:	f9406fa1 	ldr	x1, [x29, #216]
   81b74:	94000cd3 	bl	84ec0 <Receive>
   81b78:	b900d7a0 	str	w0, [x29, #212]
   81b7c:	b940d7a3 	ldr	w3, [x29, #212]
   81b80:	f9406fa2 	ldr	x2, [x29, #216]
   81b84:	d0000020 	adrp	x0, 87000 <el1_a32_serror+0x80>
   81b88:	9104e001 	add	x1, x0, #0x138
   81b8c:	d2800020 	mov	x0, #0x1                   	// #1
   81b90:	940005ff 	bl	8338c <uart_printf>
   81b94:	b940afa0 	ldr	w0, [x29, #172]
   81b98:	93407c01 	sxtw	x1, w0
   81b9c:	d1000421 	sub	x1, x1, #0x1
   81ba0:	f90067a1 	str	x1, [x29, #200]
   81ba4:	93407c01 	sxtw	x1, w0
   81ba8:	f9003ba1 	str	x1, [x29, #112]
   81bac:	f9003fbf 	str	xzr, [x29, #120]
   81bb0:	a9470fa2 	ldp	x2, x3, [x29, #112]
   81bb4:	aa0203e1 	mov	x1, x2
   81bb8:	d37dfc21 	lsr	x1, x1, #61
   81bbc:	aa0303e4 	mov	x4, x3
   81bc0:	d37df097 	lsl	x23, x4, #3
   81bc4:	aa170037 	orr	x23, x1, x23
   81bc8:	aa0203e1 	mov	x1, x2
   81bcc:	d37df036 	lsl	x22, x1, #3
   81bd0:	93407c01 	sxtw	x1, w0
   81bd4:	f90033a1 	str	x1, [x29, #96]
   81bd8:	f90037bf 	str	xzr, [x29, #104]
   81bdc:	a9460fa2 	ldp	x2, x3, [x29, #96]
   81be0:	aa0203e1 	mov	x1, x2
   81be4:	d37dfc21 	lsr	x1, x1, #61
   81be8:	aa0303e4 	mov	x4, x3
   81bec:	d37df095 	lsl	x21, x4, #3
   81bf0:	aa150035 	orr	x21, x1, x21
   81bf4:	aa0203e1 	mov	x1, x2
   81bf8:	d37df034 	lsl	x20, x1, #3
   81bfc:	93407c00 	sxtw	x0, w0
   81c00:	91003c00 	add	x0, x0, #0xf
   81c04:	d344fc00 	lsr	x0, x0, #4
   81c08:	d37cec00 	lsl	x0, x0, #4
   81c0c:	cb2063ff 	sub	sp, sp, x0
   81c10:	910003e0 	mov	x0, sp
   81c14:	91000000 	add	x0, x0, #0x0
   81c18:	f90063a0 	str	x0, [x29, #192]
   81c1c:	b940bba0 	ldr	w0, [x29, #184]
   81c20:	b940afa2 	ldr	w2, [x29, #172]
   81c24:	f94063a1 	ldr	x1, [x29, #192]
   81c28:	94000caf 	bl	84ee4 <Reply>
   81c2c:	b900bfa0 	str	w0, [x29, #188]
   81c30:	b940bfa2 	ldr	w2, [x29, #188]
   81c34:	d0000020 	adrp	x0, 87000 <el1_a32_serror+0x80>
   81c38:	9105c001 	add	x1, x0, #0x170
   81c3c:	d2800020 	mov	x0, #0x1                   	// #1
   81c40:	940005d3 	bl	8338c <uart_printf>
   81c44:	94000cd2 	bl	84f8c <Exit>
   81c48:	9100027f 	mov	sp, x19
   81c4c:	d503201f 	nop
   81c50:	910003bf 	mov	sp, x29
   81c54:	a94153f3 	ldp	x19, x20, [sp, #16]
   81c58:	a9425bf5 	ldp	x21, x22, [sp, #32]
   81c5c:	a94363f7 	ldp	x23, x24, [sp, #48]
   81c60:	a9446bf9 	ldp	x25, x26, [sp, #64]
   81c64:	f9402bfb 	ldr	x27, [sp, #80]
   81c68:	a8cf7bfd 	ldp	x29, x30, [sp], #240
   81c6c:	d65f03c0 	ret

0000000000081c70 <recieve_first_send_second>:
   81c70:	a9bd7bfd 	stp	x29, x30, [sp, #-48]!
   81c74:	910003fd 	mov	x29, sp
   81c78:	b9001fe0 	str	w0, [sp, #28]
   81c7c:	b9801fe0 	ldrsw	x0, [sp, #28]
   81c80:	f90013e0 	str	x0, [sp, #32]
   81c84:	910083e0 	add	x0, sp, #0x20
   81c88:	aa0003e3 	mov	x3, x0
   81c8c:	52800022 	mov	w2, #0x1                   	// #1
   81c90:	90000000 	adrp	x0, 81000 <check_game+0x8>
   81c94:	91216001 	add	x1, x0, #0x858
   81c98:	52800020 	mov	w0, #0x1                   	// #1
   81c9c:	94000cb2 	bl	84f64 <CreateArgs>
   81ca0:	b9002fe0 	str	w0, [sp, #44]
   81ca4:	b9402fe2 	ldr	w2, [sp, #44]
   81ca8:	d0000020 	adrp	x0, 87000 <el1_a32_serror+0x80>
   81cac:	91066001 	add	x1, x0, #0x198
   81cb0:	d2800020 	mov	x0, #0x1                   	// #1
   81cb4:	940005b6 	bl	8338c <uart_printf>
   81cb8:	910083e0 	add	x0, sp, #0x20
   81cbc:	aa0003e3 	mov	x3, x0
   81cc0:	52800022 	mov	w2, #0x1                   	// #1
   81cc4:	90000000 	adrp	x0, 81000 <check_game+0x8>
   81cc8:	91297001 	add	x1, x0, #0xa5c
   81ccc:	52800020 	mov	w0, #0x1                   	// #1
   81cd0:	94000ca5 	bl	84f64 <CreateArgs>
   81cd4:	b9002fe0 	str	w0, [sp, #44]
   81cd8:	b9402fe2 	ldr	w2, [sp, #44]
   81cdc:	d0000020 	adrp	x0, 87000 <el1_a32_serror+0x80>
   81ce0:	91066001 	add	x1, x0, #0x198
   81ce4:	d2800020 	mov	x0, #0x1                   	// #1
   81ce8:	940005a9 	bl	8338c <uart_printf>
   81cec:	94000ca8 	bl	84f8c <Exit>
   81cf0:	d503201f 	nop
   81cf4:	a8c37bfd 	ldp	x29, x30, [sp], #48
   81cf8:	d65f03c0 	ret

0000000000081cfc <send_first_recieve_second>:
   81cfc:	a9bd7bfd 	stp	x29, x30, [sp, #-48]!
   81d00:	910003fd 	mov	x29, sp
   81d04:	b9001fe0 	str	w0, [sp, #28]
   81d08:	b9801fe0 	ldrsw	x0, [sp, #28]
   81d0c:	f90013e0 	str	x0, [sp, #32]
   81d10:	910083e0 	add	x0, sp, #0x20
   81d14:	aa0003e3 	mov	x3, x0
   81d18:	52800022 	mov	w2, #0x1                   	// #1
   81d1c:	90000000 	adrp	x0, 81000 <check_game+0x8>
   81d20:	91297001 	add	x1, x0, #0xa5c
   81d24:	52800020 	mov	w0, #0x1                   	// #1
   81d28:	94000c8f 	bl	84f64 <CreateArgs>
   81d2c:	b9002fe0 	str	w0, [sp, #44]
   81d30:	b9402fe2 	ldr	w2, [sp, #44]
   81d34:	d0000020 	adrp	x0, 87000 <el1_a32_serror+0x80>
   81d38:	91066001 	add	x1, x0, #0x198
   81d3c:	d2800020 	mov	x0, #0x1                   	// #1
   81d40:	94000593 	bl	8338c <uart_printf>
   81d44:	910083e0 	add	x0, sp, #0x20
   81d48:	aa0003e3 	mov	x3, x0
   81d4c:	52800022 	mov	w2, #0x1                   	// #1
   81d50:	90000000 	adrp	x0, 81000 <check_game+0x8>
   81d54:	91216001 	add	x1, x0, #0x858
   81d58:	52800020 	mov	w0, #0x1                   	// #1
   81d5c:	94000c82 	bl	84f64 <CreateArgs>
   81d60:	b9002fe0 	str	w0, [sp, #44]
   81d64:	b9402fe2 	ldr	w2, [sp, #44]
   81d68:	d0000020 	adrp	x0, 87000 <el1_a32_serror+0x80>
   81d6c:	91066001 	add	x1, x0, #0x198
   81d70:	d2800020 	mov	x0, #0x1                   	// #1
   81d74:	94000586 	bl	8338c <uart_printf>
   81d78:	94000c85 	bl	84f8c <Exit>
   81d7c:	d503201f 	nop
   81d80:	a8c37bfd 	ldp	x29, x30, [sp], #48
   81d84:	d65f03c0 	ret

0000000000081d88 <CreateArgsTest>:
   81d88:	a9be7bfd 	stp	x29, x30, [sp, #-32]!
   81d8c:	910003fd 	mov	x29, sp
   81d90:	b9001fe0 	str	w0, [sp, #28]
   81d94:	b9001be1 	str	w1, [sp, #24]
   81d98:	d0000020 	adrp	x0, 87000 <el1_a32_serror+0x80>
   81d9c:	9106a000 	add	x0, x0, #0x1a8
   81da0:	94000210 	bl	825e0 <RegisterAs>
   81da4:	b9401be3 	ldr	w3, [sp, #24]
   81da8:	b9401fe2 	ldr	w2, [sp, #28]
   81dac:	d0000020 	adrp	x0, 87000 <el1_a32_serror+0x80>
   81db0:	9106e001 	add	x1, x0, #0x1b8
   81db4:	d2800020 	mov	x0, #0x1                   	// #1
   81db8:	94000575 	bl	8338c <uart_printf>
   81dbc:	94000c74 	bl	84f8c <Exit>
   81dc0:	d503201f 	nop
   81dc4:	a8c27bfd 	ldp	x29, x30, [sp], #32
   81dc8:	d65f03c0 	ret

0000000000081dcc <parse_char_array>:
   81dcc:	d11a43ff 	sub	sp, sp, #0x690
   81dd0:	a9007bfd 	stp	x29, x30, [sp]
   81dd4:	910003fd 	mov	x29, sp
   81dd8:	f9000fe0 	str	x0, [sp, #24]
   81ddc:	52800020 	mov	w0, #0x1                   	// #1
   81de0:	b90687e0 	str	w0, [sp, #1668]
   81de4:	b90683ff 	str	wzr, [sp, #1664]
   81de8:	f9400fe0 	ldr	x0, [sp, #24]
   81dec:	f901a7e0 	str	x0, [sp, #840]
   81df0:	f9400fe0 	ldr	x0, [sp, #24]
   81df4:	f90347e0 	str	x0, [sp, #1672]
   81df8:	14000016 	b	81e50 <parse_char_array+0x84>
   81dfc:	f94347e0 	ldr	x0, [sp, #1672]
   81e00:	39400000 	ldrb	w0, [x0]
   81e04:	7100801f 	cmp	w0, #0x20
   81e08:	54000181 	b.ne	81e38 <parse_char_array+0x6c>  // b.any
   81e0c:	f94347e0 	ldr	x0, [sp, #1672]
   81e10:	3900001f 	strb	wzr, [x0]
   81e14:	b94687e0 	ldr	w0, [sp, #1668]
   81e18:	11000401 	add	w1, w0, #0x1
   81e1c:	b90687e1 	str	w1, [sp, #1668]
   81e20:	f94347e1 	ldr	x1, [sp, #1672]
   81e24:	91000422 	add	x2, x1, #0x1
   81e28:	93407c00 	sxtw	x0, w0
   81e2c:	d37df000 	lsl	x0, x0, #3
   81e30:	910d23e1 	add	x1, sp, #0x348
   81e34:	f8206822 	str	x2, [x1, x0]
   81e38:	f94347e0 	ldr	x0, [sp, #1672]
   81e3c:	91000400 	add	x0, x0, #0x1
   81e40:	f90347e0 	str	x0, [sp, #1672]
   81e44:	b94683e0 	ldr	w0, [sp, #1664]
   81e48:	11000400 	add	w0, w0, #0x1
   81e4c:	b90683e0 	str	w0, [sp, #1664]
   81e50:	f94347e0 	ldr	x0, [sp, #1672]
   81e54:	39400000 	ldrb	w0, [x0]
   81e58:	7100001f 	cmp	w0, #0x0
   81e5c:	54fffd01 	b.ne	81dfc <parse_char_array+0x30>  // b.any
   81e60:	b9067fff 	str	wzr, [sp, #1660]
   81e64:	1400000e 	b	81e9c <parse_char_array+0xd0>
   81e68:	b9867fe0 	ldrsw	x0, [sp, #1660]
   81e6c:	d37df000 	lsl	x0, x0, #3
   81e70:	910d23e1 	add	x1, sp, #0x348
   81e74:	f8606820 	ldr	x0, [x1, x0]
   81e78:	aa0003e3 	mov	x3, x0
   81e7c:	b9467fe2 	ldr	w2, [sp, #1660]
   81e80:	d0000020 	adrp	x0, 87000 <el1_a32_serror+0x80>
   81e84:	91076001 	add	x1, x0, #0x1d8
   81e88:	d2800020 	mov	x0, #0x1                   	// #1
   81e8c:	94000540 	bl	8338c <uart_printf>
   81e90:	b9467fe0 	ldr	w0, [sp, #1660]
   81e94:	11000400 	add	w0, w0, #0x1
   81e98:	b9067fe0 	str	w0, [sp, #1660]
   81e9c:	b9467fe1 	ldr	w1, [sp, #1660]
   81ea0:	b94687e0 	ldr	w0, [sp, #1668]
   81ea4:	6b00003f 	cmp	w1, w0
   81ea8:	54fffe0b 	b.lt	81e68 <parse_char_array+0x9c>  // b.tstop
   81eac:	d0000020 	adrp	x0, 87000 <el1_a32_serror+0x80>
   81eb0:	9107a000 	add	x0, x0, #0x1e8
   81eb4:	f9033be0 	str	x0, [sp, #1648]
   81eb8:	f941a7e1 	ldr	x1, [sp, #840]
   81ebc:	910d13e3 	add	x3, sp, #0x344
   81ec0:	d0000020 	adrp	x0, 87000 <el1_a32_serror+0x80>
   81ec4:	9107a002 	add	x2, x0, #0x1e8
   81ec8:	aa0303e0 	mov	x0, x3
   81ecc:	97fffaba 	bl	809b4 <strcmp_inpace>
   81ed0:	b94347e0 	ldr	w0, [sp, #836]
   81ed4:	7100001f 	cmp	w0, #0x0
   81ed8:	540004a0 	b.eq	81f6c <parse_char_array+0x1a0>  // b.none
   81edc:	52800c80 	mov	w0, #0x64                  	// #100
   81ee0:	b9066fe0 	str	w0, [sp, #1644]
   81ee4:	f941abe0 	ldr	x0, [sp, #848]
   81ee8:	97fffa6e 	bl	808a0 <atoi_64>
   81eec:	12001c00 	and	w0, w0, #0xff
   81ef0:	92401c00 	and	x0, x0, #0xff
   81ef4:	f90013e0 	str	x0, [sp, #32]
   81ef8:	f941afe0 	ldr	x0, [sp, #856]
   81efc:	97fffa69 	bl	808a0 <atoi_64>
   81f00:	12001c00 	and	w0, w0, #0xff
   81f04:	92401c00 	and	x0, x0, #0xff
   81f08:	f90017e0 	str	x0, [sp, #40]
   81f0c:	b9466fe2 	ldr	w2, [sp, #1644]
   81f10:	d0000020 	adrp	x0, 87000 <el1_a32_serror+0x80>
   81f14:	9107e001 	add	x1, x0, #0x1f8
   81f18:	d2800020 	mov	x0, #0x1                   	// #1
   81f1c:	9400051c 	bl	8338c <uart_printf>
   81f20:	910083e0 	add	x0, sp, #0x20
   81f24:	aa0003e2 	mov	x2, x0
   81f28:	d0000020 	adrp	x0, 87000 <el1_a32_serror+0x80>
   81f2c:	91082001 	add	x1, x0, #0x208
   81f30:	d2800020 	mov	x0, #0x1                   	// #1
   81f34:	94000516 	bl	8338c <uart_printf>
   81f38:	910083e0 	add	x0, sp, #0x20
   81f3c:	aa0003e3 	mov	x3, x0
   81f40:	52800c82 	mov	w2, #0x64                  	// #100
   81f44:	90000000 	adrp	x0, 81000 <check_game+0x8>
   81f48:	91362001 	add	x1, x0, #0xd88
   81f4c:	528000a0 	mov	w0, #0x5                   	// #5
   81f50:	94000c05 	bl	84f64 <CreateArgs>
   81f54:	b9066be0 	str	w0, [sp, #1640]
   81f58:	b9466be2 	ldr	w2, [sp, #1640]
   81f5c:	d0000020 	adrp	x0, 87000 <el1_a32_serror+0x80>
   81f60:	91066001 	add	x1, x0, #0x198
   81f64:	d2800020 	mov	x0, #0x1                   	// #1
   81f68:	94000509 	bl	8338c <uart_printf>
   81f6c:	a9407bfd 	ldp	x29, x30, [sp]
   81f70:	911a43ff 	add	sp, sp, #0x690
   81f74:	d65f03c0 	ret

0000000000081f78 <recieveTask>:
   81f78:	a9bf7bfd 	stp	x29, x30, [sp, #-16]!
   81f7c:	910003fd 	mov	x29, sp
   81f80:	d0000020 	adrp	x0, 87000 <el1_a32_serror+0x80>
   81f84:	91086000 	add	x0, x0, #0x218
   81f88:	94000196 	bl	825e0 <RegisterAs>
   81f8c:	d503201f 	nop
   81f90:	a8c17bfd 	ldp	x29, x30, [sp], #16
   81f94:	d65f03c0 	ret

0000000000081f98 <k2>:
   81f98:	a9bb7bfd 	stp	x29, x30, [sp, #-80]!
   81f9c:	910003fd 	mov	x29, sp
   81fa0:	d0000020 	adrp	x0, 87000 <el1_a32_serror+0x80>
   81fa4:	91088000 	add	x0, x0, #0x220
   81fa8:	9400018e 	bl	825e0 <RegisterAs>
   81fac:	52800020 	mov	w0, #0x1                   	// #1
   81fb0:	b9004fe0 	str	w0, [sp, #76]
   81fb4:	b9004bff 	str	wzr, [sp, #72]
   81fb8:	390043ff 	strb	wzr, [sp, #16]
   81fbc:	b9404fe0 	ldr	w0, [sp, #76]
   81fc0:	11000401 	add	w1, w0, #0x1
   81fc4:	b9004fe1 	str	w1, [sp, #76]
   81fc8:	2a0003e2 	mov	w2, w0
   81fcc:	d0000020 	adrp	x0, 87000 <el1_a32_serror+0x80>
   81fd0:	9108a001 	add	x1, x0, #0x228
   81fd4:	d2800020 	mov	x0, #0x1                   	// #1
   81fd8:	940004ed 	bl	8338c <uart_printf>
   81fdc:	52800400 	mov	w0, #0x20                  	// #32
   81fe0:	39011fe0 	strb	w0, [sp, #71]
   81fe4:	14000037 	b	820c0 <k2+0x128>
   81fe8:	d2800020 	mov	x0, #0x1                   	// #1
   81fec:	940003b5 	bl	82ec0 <uart_getc>
   81ff0:	39011fe0 	strb	w0, [sp, #71]
   81ff4:	39411fe0 	ldrb	w0, [sp, #71]
   81ff8:	7100341f 	cmp	w0, #0xd
   81ffc:	54000261 	b.ne	82048 <k2+0xb0>  // b.any
   82000:	b0000020 	adrp	x0, 87000 <el1_a32_serror+0x80>
   82004:	9108e001 	add	x1, x0, #0x238
   82008:	d2800020 	mov	x0, #0x1                   	// #1
   8200c:	940004e0 	bl	8338c <uart_printf>
   82010:	910043e0 	add	x0, sp, #0x10
   82014:	97ffff6e 	bl	81dcc <parse_char_array>
   82018:	b9004bff 	str	wzr, [sp, #72]
   8201c:	390043ff 	strb	wzr, [sp, #16]
   82020:	b9404fe0 	ldr	w0, [sp, #76]
   82024:	11000401 	add	w1, w0, #0x1
   82028:	b9004fe1 	str	w1, [sp, #76]
   8202c:	2a0003e2 	mov	w2, w0
   82030:	b0000020 	adrp	x0, 87000 <el1_a32_serror+0x80>
   82034:	91090001 	add	x1, x0, #0x240
   82038:	d2800020 	mov	x0, #0x1                   	// #1
   8203c:	940004d4 	bl	8338c <uart_printf>
   82040:	94000bda 	bl	84fa8 <Yield>
   82044:	1400001f 	b	820c0 <k2+0x128>
   82048:	39411fe0 	ldrb	w0, [sp, #71]
   8204c:	7100201f 	cmp	w0, #0x8
   82050:	540001e1 	b.ne	8208c <k2+0xf4>  // b.any
   82054:	b9404be0 	ldr	w0, [sp, #72]
   82058:	7100001f 	cmp	w0, #0x0
   8205c:	5400032d 	b.le	820c0 <k2+0x128>
   82060:	b9404be0 	ldr	w0, [sp, #72]
   82064:	51000400 	sub	w0, w0, #0x1
   82068:	b9004be0 	str	w0, [sp, #72]
   8206c:	b9804be0 	ldrsw	x0, [sp, #72]
   82070:	910043e1 	add	x1, sp, #0x10
   82074:	3820683f 	strb	wzr, [x1, x0]
   82078:	b0000020 	adrp	x0, 87000 <el1_a32_serror+0x80>
   8207c:	91094001 	add	x1, x0, #0x250
   82080:	d2800020 	mov	x0, #0x1                   	// #1
   82084:	940004c2 	bl	8338c <uart_printf>
   82088:	1400000e 	b	820c0 <k2+0x128>
   8208c:	b9804be0 	ldrsw	x0, [sp, #72]
   82090:	910043e1 	add	x1, sp, #0x10
   82094:	39411fe2 	ldrb	w2, [sp, #71]
   82098:	38206822 	strb	w2, [x1, x0]
   8209c:	b9404be0 	ldr	w0, [sp, #72]
   820a0:	11000400 	add	w0, w0, #0x1
   820a4:	b9004be0 	str	w0, [sp, #72]
   820a8:	b9804be0 	ldrsw	x0, [sp, #72]
   820ac:	910043e1 	add	x1, sp, #0x10
   820b0:	3820683f 	strb	wzr, [x1, x0]
   820b4:	39411fe1 	ldrb	w1, [sp, #71]
   820b8:	d2800020 	mov	x0, #0x1                   	// #1
   820bc:	940003bf 	bl	82fb8 <uart_putc>
   820c0:	39411fe0 	ldrb	w0, [sp, #71]
   820c4:	7101c41f 	cmp	w0, #0x71
   820c8:	54fff901 	b.ne	81fe8 <k2+0x50>  // b.any
   820cc:	b0000020 	adrp	x0, 87000 <el1_a32_serror+0x80>
   820d0:	9108e001 	add	x1, x0, #0x238
   820d4:	d2800020 	mov	x0, #0x1                   	// #1
   820d8:	940003ed 	bl	8308c <uart_puts>
   820dc:	94000bac 	bl	84f8c <Exit>
   820e0:	d503201f 	nop
   820e4:	a8c57bfd 	ldp	x29, x30, [sp], #80
   820e8:	d65f03c0 	ret

00000000000820ec <adder>:
   820ec:	d10083ff 	sub	sp, sp, #0x20
   820f0:	b9001fe0 	str	w0, [sp, #28]
   820f4:	b9001be1 	str	w1, [sp, #24]
   820f8:	b90017e2 	str	w2, [sp, #20]
   820fc:	b90013e3 	str	w3, [sp, #16]
   82100:	b9000fe4 	str	w4, [sp, #12]
   82104:	b9000be5 	str	w5, [sp, #8]
   82108:	b90007e6 	str	w6, [sp, #4]
   8210c:	b90003e7 	str	w7, [sp]
   82110:	b9401fe1 	ldr	w1, [sp, #28]
   82114:	b9401be0 	ldr	w0, [sp, #24]
   82118:	0b000021 	add	w1, w1, w0
   8211c:	b94017e0 	ldr	w0, [sp, #20]
   82120:	0b000021 	add	w1, w1, w0
   82124:	b94013e0 	ldr	w0, [sp, #16]
   82128:	0b000021 	add	w1, w1, w0
   8212c:	b9400fe0 	ldr	w0, [sp, #12]
   82130:	0b000021 	add	w1, w1, w0
   82134:	b9400be0 	ldr	w0, [sp, #8]
   82138:	0b000021 	add	w1, w1, w0
   8213c:	b94007e0 	ldr	w0, [sp, #4]
   82140:	0b000021 	add	w1, w1, w0
   82144:	b94003e0 	ldr	w0, [sp]
   82148:	0b000021 	add	w1, w1, w0
   8214c:	b94023e0 	ldr	w0, [sp, #32]
   82150:	0b000021 	add	w1, w1, w0
   82154:	b9402be0 	ldr	w0, [sp, #40]
   82158:	0b000020 	add	w0, w1, w0
   8215c:	910083ff 	add	sp, sp, #0x20
   82160:	d65f03c0 	ret

0000000000082164 <kmain>:
   82164:	d10103ff 	sub	sp, sp, #0x40
   82168:	a9017bfd 	stp	x29, x30, [sp, #16]
   8216c:	910043fd 	add	x29, sp, #0x10
   82170:	f90017e0 	str	x0, [sp, #40]
   82174:	b0000020 	adrp	x0, 87000 <el1_a32_serror+0x80>
   82178:	911f4000 	add	x0, x0, #0x7d0
   8217c:	f94017e1 	ldr	x1, [sp, #40]
   82180:	f9000001 	str	x1, [x0]
   82184:	f94017e0 	ldr	x0, [sp, #40]
   82188:	940005d2 	bl	838d0 <InitSys>
   8218c:	940002a9 	bl	82c30 <uart_init>
   82190:	52800002 	mov	w2, #0x0                   	// #0
   82194:	52984001 	mov	w1, #0xc200                	// #49664
   82198:	72a00021 	movk	w1, #0x1, lsl #16
   8219c:	d2800020 	mov	x0, #0x1                   	// #1
   821a0:	940002cd 	bl	82cd4 <uart_config_and_enable>
   821a4:	52800022 	mov	w2, #0x1                   	// #1
   821a8:	52812c01 	mov	w1, #0x960                 	// #2400
   821ac:	d2800040 	mov	x0, #0x2                   	// #2
   821b0:	940002c9 	bl	82cd4 <uart_config_and_enable>
   821b4:	b0000020 	adrp	x0, 87000 <el1_a32_serror+0x80>
   821b8:	91096001 	add	x1, x0, #0x258
   821bc:	d2800020 	mov	x0, #0x1                   	// #1
   821c0:	94000473 	bl	8338c <uart_printf>
   821c4:	52800140 	mov	w0, #0xa                   	// #10
   821c8:	b9000be0 	str	w0, [sp, #8]
   821cc:	52800120 	mov	w0, #0x9                   	// #9
   821d0:	b90003e0 	str	w0, [sp]
   821d4:	52800107 	mov	w7, #0x8                   	// #8
   821d8:	528000e6 	mov	w6, #0x7                   	// #7
   821dc:	528000c5 	mov	w5, #0x6                   	// #6
   821e0:	528000a4 	mov	w4, #0x5                   	// #5
   821e4:	52800083 	mov	w3, #0x4                   	// #4
   821e8:	52800062 	mov	w2, #0x3                   	// #3
   821ec:	52800041 	mov	w1, #0x2                   	// #2
   821f0:	52800020 	mov	w0, #0x1                   	// #1
   821f4:	97ffffbe 	bl	820ec <adder>
   821f8:	b9003fe0 	str	w0, [sp, #60]
   821fc:	b9403fe2 	ldr	w2, [sp, #60]
   82200:	b0000020 	adrp	x0, 87000 <el1_a32_serror+0x80>
   82204:	910ae001 	add	x1, x0, #0x2b8
   82208:	d2800020 	mov	x0, #0x1                   	// #1
   8220c:	94000460 	bl	8338c <uart_printf>
   82210:	52800002 	mov	w2, #0x0                   	// #0
   82214:	90000000 	adrp	x0, 82000 <k2+0x68>
   82218:	910a4001 	add	x1, x0, #0x290
   8221c:	52800140 	mov	w0, #0xa                   	// #10
   82220:	94000a8e 	bl	84c58 <KernelCreate>
   82224:	b9003be0 	str	w0, [sp, #56]
   82228:	b9403be2 	ldr	w2, [sp, #56]
   8222c:	b0000020 	adrp	x0, 87000 <el1_a32_serror+0x80>
   82230:	910b8001 	add	x1, x0, #0x2e0
   82234:	d2800020 	mov	x0, #0x1                   	// #1
   82238:	94000455 	bl	8338c <uart_printf>
   8223c:	52800002 	mov	w2, #0x0                   	// #0
   82240:	f0ffffe0 	adrp	x0, 81000 <check_game+0x8>
   82244:	9109f001 	add	x1, x0, #0x27c
   82248:	52800140 	mov	w0, #0xa                   	// #10
   8224c:	94000a83 	bl	84c58 <KernelCreate>
   82250:	b9003be0 	str	w0, [sp, #56]
   82254:	b9403be2 	ldr	w2, [sp, #56]
   82258:	b0000020 	adrp	x0, 87000 <el1_a32_serror+0x80>
   8225c:	910c0001 	add	x1, x0, #0x300
   82260:	d2800020 	mov	x0, #0x1                   	// #1
   82264:	9400044a 	bl	8338c <uart_printf>
   82268:	52800002 	mov	w2, #0x0                   	// #0
   8226c:	f0ffffe0 	adrp	x0, 81000 <check_game+0x8>
   82270:	913e6001 	add	x1, x0, #0xf98
   82274:	52800060 	mov	w0, #0x3                   	// #3
   82278:	94000a78 	bl	84c58 <KernelCreate>
   8227c:	94000a41 	bl	84b80 <Schedule>
   82280:	52800000 	mov	w0, #0x0                   	// #0
   82284:	a9417bfd 	ldp	x29, x30, [sp, #16]
   82288:	910103ff 	add	sp, sp, #0x40
   8228c:	d65f03c0 	ret

0000000000082290 <nameserver>:
   82290:	d284080c 	mov	x12, #0x2040                	// #8256
   82294:	cb2c63ff 	sub	sp, sp, x12
   82298:	a9007bfd 	stp	x29, x30, [sp]
   8229c:	910003fd 	mov	x29, sp
   822a0:	52800620 	mov	w0, #0x31                  	// #49
   822a4:	b92033e0 	str	w0, [sp, #8240]
   822a8:	b9203fff 	str	wzr, [sp, #8252]
   822ac:	1400000d 	b	822e0 <nameserver+0x50>
   822b0:	b9a03fe1 	ldrsw	x1, [sp, #8252]
   822b4:	aa0103e0 	mov	x0, x1
   822b8:	d37ff800 	lsl	x0, x0, #1
   822bc:	8b010000 	add	x0, x0, x1
   822c0:	d37df000 	lsl	x0, x0, #3
   822c4:	8b010000 	add	x0, x0, x1
   822c8:	d37cec00 	lsl	x0, x0, #4
   822cc:	910343e1 	add	x1, sp, #0xd0
   822d0:	f820683f 	str	xzr, [x1, x0]
   822d4:	b9603fe0 	ldr	w0, [sp, #8252]
   822d8:	11000400 	add	w0, w0, #0x1
   822dc:	b9203fe0 	str	w0, [sp, #8252]
   822e0:	b9603fe0 	ldr	w0, [sp, #8252]
   822e4:	71004c1f 	cmp	w0, #0x13
   822e8:	54fffe4d 	b.le	822b0 <nameserver+0x20>
   822ec:	910343e4 	add	x4, sp, #0xd0
   822f0:	52800643 	mov	w3, #0x32                  	// #50
   822f4:	b0000020 	adrp	x0, 87000 <el1_a32_serror+0x80>
   822f8:	910c8002 	add	x2, x0, #0x320
   822fc:	52800641 	mov	w1, #0x32                  	// #50
   82300:	aa0403e0 	mov	x0, x4
   82304:	97fffa63 	bl	80c90 <cust_strcpy>
   82308:	910263e1 	add	x1, sp, #0x98
   8230c:	910333e0 	add	x0, sp, #0xcc
   82310:	b96033e2 	ldr	w2, [sp, #8240]
   82314:	94000aeb 	bl	84ec0 <Receive>
   82318:	b9202fe0 	str	w0, [sp, #8236]
   8231c:	910263e1 	add	x1, sp, #0x98
   82320:	910063e0 	add	x0, sp, #0x18
   82324:	52800023 	mov	w3, #0x1                   	// #1
   82328:	aa0103e2 	mov	x2, x1
   8232c:	52800641 	mov	w1, #0x32                  	// #50
   82330:	97fffa23 	bl	80bbc <parsestring>
   82334:	910263e1 	add	x1, sp, #0x98
   82338:	910143e0 	add	x0, sp, #0x50
   8233c:	52800043 	mov	w3, #0x2                   	// #2
   82340:	aa0103e2 	mov	x2, x1
   82344:	52800641 	mov	w1, #0x32                  	// #50
   82348:	97fffa1d 	bl	80bbc <parsestring>
   8234c:	b0000020 	adrp	x0, 87000 <el1_a32_serror+0x80>
   82350:	910cc000 	add	x0, x0, #0x330
   82354:	f91013e0 	str	x0, [sp, #8224]
   82358:	910063e0 	add	x0, sp, #0x18
   8235c:	f95013e1 	ldr	x1, [sp, #8224]
   82360:	97fff9c7 	bl	80a7c <strcmp_ret>
   82364:	b90097e0 	str	w0, [sp, #148]
   82368:	b94097e0 	ldr	w0, [sp, #148]
   8236c:	7100001f 	cmp	w0, #0x0
   82370:	540002e0 	b.eq	823cc <nameserver+0x13c>  // b.none
   82374:	b940cfe0 	ldr	w0, [sp, #204]
   82378:	910343e2 	add	x2, sp, #0xd0
   8237c:	93407c01 	sxtw	x1, w0
   82380:	aa0103e0 	mov	x0, x1
   82384:	d37ff800 	lsl	x0, x0, #1
   82388:	8b010000 	add	x0, x0, x1
   8238c:	d37df000 	lsl	x0, x0, #3
   82390:	8b010000 	add	x0, x0, x1
   82394:	d37cec00 	lsl	x0, x0, #4
   82398:	8b000040 	add	x0, x2, x0
   8239c:	910143e1 	add	x1, sp, #0x50
   823a0:	52800643 	mov	w3, #0x32                  	// #50
   823a4:	aa0103e2 	mov	x2, x1
   823a8:	52800641 	mov	w1, #0x32                  	// #50
   823ac:	97fffa39 	bl	80c90 <cust_strcpy>
   823b0:	b940cfe3 	ldr	w3, [sp, #204]
   823b4:	52800322 	mov	w2, #0x19                  	// #25
   823b8:	b0000020 	adrp	x0, 87000 <el1_a32_serror+0x80>
   823bc:	910d0001 	add	x1, x0, #0x340
   823c0:	2a0303e0 	mov	w0, w3
   823c4:	94000ac8 	bl	84ee4 <Reply>
   823c8:	b9201fe0 	str	w0, [sp, #8220]
   823cc:	b0000020 	adrp	x0, 87000 <el1_a32_serror+0x80>
   823d0:	910d4000 	add	x0, x0, #0x350
   823d4:	f91013e0 	str	x0, [sp, #8224]
   823d8:	910063e1 	add	x1, sp, #0x18
   823dc:	910253e0 	add	x0, sp, #0x94
   823e0:	f95013e2 	ldr	x2, [sp, #8224]
   823e4:	97fff974 	bl	809b4 <strcmp_inpace>
   823e8:	b94097e0 	ldr	w0, [sp, #148]
   823ec:	7100001f 	cmp	w0, #0x0
   823f0:	54000480 	b.eq	82480 <nameserver+0x1f0>  // b.none
   823f4:	b9203bff 	str	wzr, [sp, #8248]
   823f8:	14000011 	b	8243c <nameserver+0x1ac>
   823fc:	910343e2 	add	x2, sp, #0xd0
   82400:	b9a03be1 	ldrsw	x1, [sp, #8248]
   82404:	aa0103e0 	mov	x0, x1
   82408:	d37ff800 	lsl	x0, x0, #1
   8240c:	8b010000 	add	x0, x0, x1
   82410:	d37df000 	lsl	x0, x0, #3
   82414:	8b010000 	add	x0, x0, x1
   82418:	d37cec00 	lsl	x0, x0, #4
   8241c:	8b000040 	add	x0, x2, x0
   82420:	910143e1 	add	x1, sp, #0x50
   82424:	97fff996 	bl	80a7c <strcmp_ret>
   82428:	7100001f 	cmp	w0, #0x0
   8242c:	54000101 	b.ne	8244c <nameserver+0x1bc>  // b.any
   82430:	b9603be0 	ldr	w0, [sp, #8248]
   82434:	11000400 	add	w0, w0, #0x1
   82438:	b9203be0 	str	w0, [sp, #8248]
   8243c:	b9603be0 	ldr	w0, [sp, #8248]
   82440:	71004c1f 	cmp	w0, #0x13
   82444:	54fffdcd 	b.le	823fc <nameserver+0x16c>
   82448:	14000002 	b	82450 <nameserver+0x1c0>
   8244c:	d503201f 	nop
   82450:	f90047ff 	str	xzr, [sp, #136]
   82454:	790123ff 	strh	wzr, [sp, #144]
   82458:	b9603be0 	ldr	w0, [sp, #8248]
   8245c:	910223e1 	add	x1, sp, #0x88
   82460:	aa0103e2 	mov	x2, x1
   82464:	52800141 	mov	w1, #0xa                   	// #10
   82468:	94000b09 	bl	8508c <ui2a>
   8246c:	b940cfe0 	ldr	w0, [sp, #204]
   82470:	910223e1 	add	x1, sp, #0x88
   82474:	52800322 	mov	w2, #0x19                  	// #25
   82478:	94000a9b 	bl	84ee4 <Reply>
   8247c:	b9201be0 	str	w0, [sp, #8216]
   82480:	b0000020 	adrp	x0, 87000 <el1_a32_serror+0x80>
   82484:	910d6000 	add	x0, x0, #0x358
   82488:	f91013e0 	str	x0, [sp, #8224]
   8248c:	910063e1 	add	x1, sp, #0x18
   82490:	910253e0 	add	x0, sp, #0x94
   82494:	f95013e2 	ldr	x2, [sp, #8224]
   82498:	97fff947 	bl	809b4 <strcmp_inpace>
   8249c:	b94097e0 	ldr	w0, [sp, #148]
   824a0:	7100001f 	cmp	w0, #0x0
   824a4:	54000560 	b.eq	82550 <nameserver+0x2c0>  // b.none
   824a8:	b0000020 	adrp	x0, 87000 <el1_a32_serror+0x80>
   824ac:	910da001 	add	x1, x0, #0x368
   824b0:	d2800020 	mov	x0, #0x1                   	// #1
   824b4:	940003b6 	bl	8338c <uart_printf>
   824b8:	b940cfe4 	ldr	w4, [sp, #204]
   824bc:	b940cfe0 	ldr	w0, [sp, #204]
   824c0:	910343e2 	add	x2, sp, #0xd0
   824c4:	93407c01 	sxtw	x1, w0
   824c8:	aa0103e0 	mov	x0, x1
   824cc:	d37ff800 	lsl	x0, x0, #1
   824d0:	8b010000 	add	x0, x0, x1
   824d4:	d37df000 	lsl	x0, x0, #3
   824d8:	8b010000 	add	x0, x0, x1
   824dc:	d37cec00 	lsl	x0, x0, #4
   824e0:	8b000040 	add	x0, x2, x0
   824e4:	aa0003e3 	mov	x3, x0
   824e8:	2a0403e2 	mov	w2, w4
   824ec:	b0000020 	adrp	x0, 87000 <el1_a32_serror+0x80>
   824f0:	910dc001 	add	x1, x0, #0x370
   824f4:	d2800020 	mov	x0, #0x1                   	// #1
   824f8:	940003a5 	bl	8338c <uart_printf>
   824fc:	b0000020 	adrp	x0, 87000 <el1_a32_serror+0x80>
   82500:	910e4001 	add	x1, x0, #0x390
   82504:	d2800020 	mov	x0, #0x1                   	// #1
   82508:	940003a1 	bl	8338c <uart_printf>
   8250c:	b940cfe0 	ldr	w0, [sp, #204]
   82510:	93407c01 	sxtw	x1, w0
   82514:	aa0103e0 	mov	x0, x1
   82518:	d37ff800 	lsl	x0, x0, #1
   8251c:	8b010000 	add	x0, x0, x1
   82520:	d37df000 	lsl	x0, x0, #3
   82524:	8b010000 	add	x0, x0, x1
   82528:	d37cec00 	lsl	x0, x0, #4
   8252c:	910343e1 	add	x1, sp, #0xd0
   82530:	f820683f 	str	xzr, [x1, x0]
   82534:	b940cfe3 	ldr	w3, [sp, #204]
   82538:	52800322 	mov	w2, #0x19                  	// #25
   8253c:	b0000020 	adrp	x0, 87000 <el1_a32_serror+0x80>
   82540:	910e6001 	add	x1, x0, #0x398
   82544:	2a0303e0 	mov	w0, w3
   82548:	94000a67 	bl	84ee4 <Reply>
   8254c:	b92017e0 	str	w0, [sp, #8212]
   82550:	b0000020 	adrp	x0, 87000 <el1_a32_serror+0x80>
   82554:	910ec001 	add	x1, x0, #0x3b0
   82558:	d2800020 	mov	x0, #0x1                   	// #1
   8255c:	9400038c 	bl	8338c <uart_printf>
   82560:	b0000020 	adrp	x0, 87000 <el1_a32_serror+0x80>
   82564:	910ee001 	add	x1, x0, #0x3b8
   82568:	d2800020 	mov	x0, #0x1                   	// #1
   8256c:	94000388 	bl	8338c <uart_printf>
   82570:	b92037ff 	str	wzr, [sp, #8244]
   82574:	14000013 	b	825c0 <nameserver+0x330>
   82578:	910343e2 	add	x2, sp, #0xd0
   8257c:	b9a037e1 	ldrsw	x1, [sp, #8244]
   82580:	aa0103e0 	mov	x0, x1
   82584:	d37ff800 	lsl	x0, x0, #1
   82588:	8b010000 	add	x0, x0, x1
   8258c:	d37df000 	lsl	x0, x0, #3
   82590:	8b010000 	add	x0, x0, x1
   82594:	d37cec00 	lsl	x0, x0, #4
   82598:	8b000040 	add	x0, x2, x0
   8259c:	aa0003e3 	mov	x3, x0
   825a0:	b96037e2 	ldr	w2, [sp, #8244]
   825a4:	b0000020 	adrp	x0, 87000 <el1_a32_serror+0x80>
   825a8:	910f4001 	add	x1, x0, #0x3d0
   825ac:	d2800020 	mov	x0, #0x1                   	// #1
   825b0:	94000377 	bl	8338c <uart_printf>
   825b4:	b96037e0 	ldr	w0, [sp, #8244]
   825b8:	11000400 	add	w0, w0, #0x1
   825bc:	b92037e0 	str	w0, [sp, #8244]
   825c0:	b96037e0 	ldr	w0, [sp, #8244]
   825c4:	71004c1f 	cmp	w0, #0x13
   825c8:	54fffd8d 	b.le	82578 <nameserver+0x2e8>
   825cc:	b0000020 	adrp	x0, 87000 <el1_a32_serror+0x80>
   825d0:	910e4001 	add	x1, x0, #0x390
   825d4:	d2800020 	mov	x0, #0x1                   	// #1
   825d8:	9400036d 	bl	8338c <uart_printf>
   825dc:	17ffff4b 	b	82308 <nameserver+0x78>

00000000000825e0 <RegisterAs>:
   825e0:	a9b77bfd 	stp	x29, x30, [sp, #-144]!
   825e4:	910003fd 	mov	x29, sp
   825e8:	f9000fe0 	str	x0, [sp, #24]
   825ec:	b0000020 	adrp	x0, 87000 <el1_a32_serror+0x80>
   825f0:	910fa001 	add	x1, x0, #0x3e8
   825f4:	910083e0 	add	x0, sp, #0x20
   825f8:	aa0103e3 	mov	x3, x1
   825fc:	d2800141 	mov	x1, #0xa                   	// #10
   82600:	aa0103e2 	mov	x2, x1
   82604:	aa0303e1 	mov	x1, x3
   82608:	94000b11 	bl	8524c <memcpy>
   8260c:	9100abe0 	add	x0, sp, #0x2a
   82610:	d2800501 	mov	x1, #0x28                  	// #40
   82614:	aa0103e2 	mov	x2, x1
   82618:	52800001 	mov	w1, #0x0                   	// #0
   8261c:	94000af6 	bl	851f4 <memset>
   82620:	52800640 	mov	w0, #0x32                  	// #50
   82624:	b9008fe0 	str	w0, [sp, #140]
   82628:	910083e0 	add	x0, sp, #0x20
   8262c:	f9400fe1 	ldr	x1, [sp, #24]
   82630:	97fff936 	bl	80b08 <strcat_cust>
   82634:	b9008fe0 	str	w0, [sp, #140]
   82638:	910163e1 	add	x1, sp, #0x58
   8263c:	910083e0 	add	x0, sp, #0x20
   82640:	52800644 	mov	w4, #0x32                  	// #50
   82644:	aa0103e3 	mov	x3, x1
   82648:	52800642 	mov	w2, #0x32                  	// #50
   8264c:	aa0003e1 	mov	x1, x0
   82650:	52800020 	mov	w0, #0x1                   	// #1
   82654:	94000a10 	bl	84e94 <Send>
   82658:	52800000 	mov	w0, #0x0                   	// #0
   8265c:	a8c97bfd 	ldp	x29, x30, [sp], #144
   82660:	d65f03c0 	ret

0000000000082664 <Deregister>:
   82664:	a9b67bfd 	stp	x29, x30, [sp, #-160]!
   82668:	910003fd 	mov	x29, sp
   8266c:	94000a2e 	bl	84f24 <MyTid>
   82670:	b9009fe0 	str	w0, [sp, #156]
   82674:	d288a880 	mov	x0, #0x4544                	// #17732
   82678:	f2a8aa40 	movk	x0, #0x4552, lsl #16
   8267c:	f2c928e0 	movk	x0, #0x4947, lsl #32
   82680:	f2ea8a60 	movk	x0, #0x5453, lsl #48
   82684:	f90017e0 	str	x0, [sp, #40]
   82688:	d28a48a0 	mov	x0, #0x5245                	// #21061
   8268c:	f2a00400 	movk	x0, #0x20, lsl #16
   82690:	f9001be0 	str	x0, [sp, #48]
   82694:	f9001fff 	str	xzr, [sp, #56]
   82698:	f90023ff 	str	xzr, [sp, #64]
   8269c:	f90027ff 	str	xzr, [sp, #72]
   826a0:	f9002bff 	str	xzr, [sp, #80]
   826a4:	7900b3ff 	strh	wzr, [sp, #88]
   826a8:	f9000fff 	str	xzr, [sp, #24]
   826ac:	790043ff 	strh	wzr, [sp, #32]
   826b0:	910063e0 	add	x0, sp, #0x18
   826b4:	aa0003e1 	mov	x1, x0
   826b8:	b9409fe0 	ldr	w0, [sp, #156]
   826bc:	94000ab8 	bl	8519c <i2a>
   826c0:	52800640 	mov	w0, #0x32                  	// #50
   826c4:	b9009be0 	str	w0, [sp, #152]
   826c8:	910063e1 	add	x1, sp, #0x18
   826cc:	9100a3e0 	add	x0, sp, #0x28
   826d0:	97fff90e 	bl	80b08 <strcat_cust>
   826d4:	b9009be0 	str	w0, [sp, #152]
   826d8:	910183e1 	add	x1, sp, #0x60
   826dc:	9100a3e0 	add	x0, sp, #0x28
   826e0:	52800644 	mov	w4, #0x32                  	// #50
   826e4:	aa0103e3 	mov	x3, x1
   826e8:	52800642 	mov	w2, #0x32                  	// #50
   826ec:	aa0003e1 	mov	x1, x0
   826f0:	52800020 	mov	w0, #0x1                   	// #1
   826f4:	940009e8 	bl	84e94 <Send>
   826f8:	a8ca7bfd 	ldp	x29, x30, [sp], #160
   826fc:	d65f03c0 	ret

0000000000082700 <WhoIs>:
   82700:	a9b77bfd 	stp	x29, x30, [sp, #-144]!
   82704:	910003fd 	mov	x29, sp
   82708:	f9000fe0 	str	x0, [sp, #24]
   8270c:	d2890ae0 	mov	x0, #0x4857                	// #18519
   82710:	f2a929e0 	movk	x0, #0x494f, lsl #16
   82714:	f2c40a60 	movk	x0, #0x2053, lsl #32
   82718:	d2800001 	mov	x1, #0x0                   	// #0
   8271c:	a90207e0 	stp	x0, x1, [sp, #32]
   82720:	a9037fff 	stp	xzr, xzr, [sp, #48]
   82724:	a9047fff 	stp	xzr, xzr, [sp, #64]
   82728:	7900a3ff 	strh	wzr, [sp, #80]
   8272c:	52800640 	mov	w0, #0x32                  	// #50
   82730:	b9008fe0 	str	w0, [sp, #140]
   82734:	910083e0 	add	x0, sp, #0x20
   82738:	f9400fe1 	ldr	x1, [sp, #24]
   8273c:	97fff8f3 	bl	80b08 <strcat_cust>
   82740:	b9008fe0 	str	w0, [sp, #140]
   82744:	910163e1 	add	x1, sp, #0x58
   82748:	910083e0 	add	x0, sp, #0x20
   8274c:	52800644 	mov	w4, #0x32                  	// #50
   82750:	aa0103e3 	mov	x3, x1
   82754:	52800642 	mov	w2, #0x32                  	// #50
   82758:	aa0003e1 	mov	x1, x0
   8275c:	52800020 	mov	w0, #0x1                   	// #1
   82760:	940009cd 	bl	84e94 <Send>
   82764:	910163e0 	add	x0, sp, #0x58
   82768:	97fff84e 	bl	808a0 <atoi_64>
   8276c:	12001c00 	and	w0, w0, #0xff
   82770:	a8c97bfd 	ldp	x29, x30, [sp], #144
   82774:	d65f03c0 	ret

0000000000082778 <Measure_multiple_times>:
   82778:	a9bd7bfd 	stp	x29, x30, [sp, #-48]!
   8277c:	910003fd 	mov	x29, sp
   82780:	b9001fe0 	str	w0, [sp, #28]
   82784:	f9000be1 	str	x1, [sp, #16]
   82788:	b9002fff 	str	wzr, [sp, #44]
   8278c:	14000014 	b	827dc <Measure_multiple_times+0x64>
   82790:	94000a09 	bl	84fb4 <get_timerLO>
   82794:	b9002be0 	str	w0, [sp, #40]
   82798:	f9400be0 	ldr	x0, [sp, #16]
   8279c:	d63f0000 	blr	x0
   827a0:	94000a05 	bl	84fb4 <get_timerLO>
   827a4:	b90027e0 	str	w0, [sp, #36]
   827a8:	b94027e1 	ldr	w1, [sp, #36]
   827ac:	b9402be0 	ldr	w0, [sp, #40]
   827b0:	4b000020 	sub	w0, w1, w0
   827b4:	b90023e0 	str	w0, [sp, #32]
   827b8:	b94023e3 	ldr	w3, [sp, #32]
   827bc:	b9402fe2 	ldr	w2, [sp, #44]
   827c0:	b0000020 	adrp	x0, 87000 <el1_a32_serror+0x80>
   827c4:	910fe001 	add	x1, x0, #0x3f8
   827c8:	d2800020 	mov	x0, #0x1                   	// #1
   827cc:	940002f0 	bl	8338c <uart_printf>
   827d0:	b9402fe0 	ldr	w0, [sp, #44]
   827d4:	11000400 	add	w0, w0, #0x1
   827d8:	b9002fe0 	str	w0, [sp, #44]
   827dc:	b9402fe1 	ldr	w1, [sp, #44]
   827e0:	b9401fe0 	ldr	w0, [sp, #28]
   827e4:	6b00003f 	cmp	w1, w0
   827e8:	54fffd4b 	b.lt	82790 <Measure_multiple_times+0x18>  // b.tstop
   827ec:	940009e8 	bl	84f8c <Exit>
   827f0:	d503201f 	nop
   827f4:	a8c37bfd 	ldp	x29, x30, [sp], #48
   827f8:	d65f03c0 	ret

00000000000827fc <Measure_something_larger>:
   827fc:	a9bd7bfd 	stp	x29, x30, [sp, #-48]!
   82800:	910003fd 	mov	x29, sp
   82804:	b9001fe0 	str	w0, [sp, #28]
   82808:	f9000be1 	str	x1, [sp, #16]
   8280c:	940009ea 	bl	84fb4 <get_timerLO>
   82810:	b9002be0 	str	w0, [sp, #40]
   82814:	b9002fff 	str	wzr, [sp, #44]
   82818:	14000006 	b	82830 <Measure_something_larger+0x34>
   8281c:	f9400be0 	ldr	x0, [sp, #16]
   82820:	d63f0000 	blr	x0
   82824:	b9402fe0 	ldr	w0, [sp, #44]
   82828:	11000400 	add	w0, w0, #0x1
   8282c:	b9002fe0 	str	w0, [sp, #44]
   82830:	b9402fe1 	ldr	w1, [sp, #44]
   82834:	b9401fe0 	ldr	w0, [sp, #28]
   82838:	6b00003f 	cmp	w1, w0
   8283c:	54ffff0b 	b.lt	8281c <Measure_something_larger+0x20>  // b.tstop
   82840:	940009dd 	bl	84fb4 <get_timerLO>
   82844:	b90027e0 	str	w0, [sp, #36]
   82848:	b94027e1 	ldr	w1, [sp, #36]
   8284c:	b9402be0 	ldr	w0, [sp, #40]
   82850:	4b000020 	sub	w0, w1, w0
   82854:	b90023e0 	str	w0, [sp, #32]
   82858:	b94023e3 	ldr	w3, [sp, #32]
   8285c:	b9402fe2 	ldr	w2, [sp, #44]
   82860:	b0000020 	adrp	x0, 87000 <el1_a32_serror+0x80>
   82864:	910fe001 	add	x1, x0, #0x3f8
   82868:	d2800020 	mov	x0, #0x1                   	// #1
   8286c:	940002c8 	bl	8338c <uart_printf>
   82870:	940009c7 	bl	84f8c <Exit>
   82874:	d503201f 	nop
   82878:	a8c37bfd 	ldp	x29, x30, [sp], #48
   8287c:	d65f03c0 	ret

0000000000082880 <testNameserver>:
   82880:	a9be7bfd 	stp	x29, x30, [sp, #-32]!
   82884:	910003fd 	mov	x29, sp
   82888:	b0000020 	adrp	x0, 87000 <el1_a32_serror+0x80>
   8288c:	91108000 	add	x0, x0, #0x420
   82890:	f9000fe0 	str	x0, [sp, #24]
   82894:	b0000020 	adrp	x0, 87000 <el1_a32_serror+0x80>
   82898:	9110c001 	add	x1, x0, #0x430
   8289c:	d2800020 	mov	x0, #0x1                   	// #1
   828a0:	940002bb 	bl	8338c <uart_printf>
   828a4:	f9400fe2 	ldr	x2, [sp, #24]
   828a8:	b0000020 	adrp	x0, 87000 <el1_a32_serror+0x80>
   828ac:	9110e001 	add	x1, x0, #0x438
   828b0:	d2800020 	mov	x0, #0x1                   	// #1
   828b4:	940002b6 	bl	8338c <uart_printf>
   828b8:	b0000020 	adrp	x0, 87000 <el1_a32_serror+0x80>
   828bc:	91118001 	add	x1, x0, #0x460
   828c0:	d2800020 	mov	x0, #0x1                   	// #1
   828c4:	940002b2 	bl	8338c <uart_printf>
   828c8:	b0000020 	adrp	x0, 87000 <el1_a32_serror+0x80>
   828cc:	91122001 	add	x1, x0, #0x488
   828d0:	d2800020 	mov	x0, #0x1                   	// #1
   828d4:	940002ae 	bl	8338c <uart_printf>
   828d8:	f9400fe0 	ldr	x0, [sp, #24]
   828dc:	97ffff41 	bl	825e0 <RegisterAs>
   828e0:	b0000020 	adrp	x0, 87000 <el1_a32_serror+0x80>
   828e4:	9110c001 	add	x1, x0, #0x430
   828e8:	d2800020 	mov	x0, #0x1                   	// #1
   828ec:	940002a8 	bl	8338c <uart_printf>
   828f0:	b0000020 	adrp	x0, 87000 <el1_a32_serror+0x80>
   828f4:	91124001 	add	x1, x0, #0x490
   828f8:	d2800020 	mov	x0, #0x1                   	// #1
   828fc:	940002a4 	bl	8338c <uart_printf>
   82900:	b0000020 	adrp	x0, 87000 <el1_a32_serror+0x80>
   82904:	91122001 	add	x1, x0, #0x488
   82908:	d2800020 	mov	x0, #0x1                   	// #1
   8290c:	940002a0 	bl	8338c <uart_printf>
   82910:	f9400fe0 	ldr	x0, [sp, #24]
   82914:	97ffff7b 	bl	82700 <WhoIs>
   82918:	b90017e0 	str	w0, [sp, #20]
   8291c:	b0000020 	adrp	x0, 87000 <el1_a32_serror+0x80>
   82920:	9110c001 	add	x1, x0, #0x430
   82924:	d2800020 	mov	x0, #0x1                   	// #1
   82928:	94000299 	bl	8338c <uart_printf>
   8292c:	b94017e2 	ldr	w2, [sp, #20]
   82930:	b0000020 	adrp	x0, 87000 <el1_a32_serror+0x80>
   82934:	91130001 	add	x1, x0, #0x4c0
   82938:	d2800020 	mov	x0, #0x1                   	// #1
   8293c:	94000294 	bl	8338c <uart_printf>
   82940:	b0000020 	adrp	x0, 87000 <el1_a32_serror+0x80>
   82944:	91122001 	add	x1, x0, #0x488
   82948:	d2800020 	mov	x0, #0x1                   	// #1
   8294c:	94000290 	bl	8338c <uart_printf>
   82950:	9400098f 	bl	84f8c <Exit>
   82954:	d503201f 	nop
   82958:	a8c27bfd 	ldp	x29, x30, [sp], #32
   8295c:	d65f03c0 	ret

0000000000082960 <player1>:
   82960:	a9be7bfd 	stp	x29, x30, [sp, #-32]!
   82964:	910003fd 	mov	x29, sp
   82968:	9400096f 	bl	84f24 <MyTid>
   8296c:	b9001be0 	str	w0, [sp, #24]
   82970:	b0000020 	adrp	x0, 87000 <el1_a32_serror+0x80>
   82974:	91138000 	add	x0, x0, #0x4e0
   82978:	97ffff1a 	bl	825e0 <RegisterAs>
   8297c:	97fffb82 	bl	81784 <signup>
   82980:	b9001fff 	str	wzr, [sp, #28]
   82984:	14000015 	b	829d8 <player1+0x78>
   82988:	b0000020 	adrp	x0, 87000 <el1_a32_serror+0x80>
   8298c:	9113a000 	add	x0, x0, #0x4e8
   82990:	97fffb9f 	bl	8180c <play>
   82994:	39005fe0 	strb	w0, [sp, #23]
   82998:	b9401be3 	ldr	w3, [sp, #24]
   8299c:	b9401fe2 	ldr	w2, [sp, #28]
   829a0:	b0000020 	adrp	x0, 87000 <el1_a32_serror+0x80>
   829a4:	9113c001 	add	x1, x0, #0x4f0
   829a8:	d2800020 	mov	x0, #0x1                   	// #1
   829ac:	94000278 	bl	8338c <uart_printf>
   829b0:	39405fe1 	ldrb	w1, [sp, #23]
   829b4:	d2800020 	mov	x0, #0x1                   	// #1
   829b8:	94000180 	bl	82fb8 <uart_putc>
   829bc:	b0000020 	adrp	x0, 87000 <el1_a32_serror+0x80>
   829c0:	91144001 	add	x1, x0, #0x510
   829c4:	d2800020 	mov	x0, #0x1                   	// #1
   829c8:	94000271 	bl	8338c <uart_printf>
   829cc:	b9401fe0 	ldr	w0, [sp, #28]
   829d0:	11000400 	add	w0, w0, #0x1
   829d4:	b9001fe0 	str	w0, [sp, #28]
   829d8:	b9401fe0 	ldr	w0, [sp, #28]
   829dc:	7100101f 	cmp	w0, #0x4
   829e0:	54fffd4d 	b.le	82988 <player1+0x28>
   829e4:	97fffb79 	bl	817c8 <quit>
   829e8:	94000969 	bl	84f8c <Exit>
   829ec:	d503201f 	nop
   829f0:	a8c27bfd 	ldp	x29, x30, [sp], #32
   829f4:	d65f03c0 	ret

00000000000829f8 <player2>:
   829f8:	a9be7bfd 	stp	x29, x30, [sp, #-32]!
   829fc:	910003fd 	mov	x29, sp
   82a00:	94000949 	bl	84f24 <MyTid>
   82a04:	b9001be0 	str	w0, [sp, #24]
   82a08:	b0000020 	adrp	x0, 87000 <el1_a32_serror+0x80>
   82a0c:	91146000 	add	x0, x0, #0x518
   82a10:	97fffef4 	bl	825e0 <RegisterAs>
   82a14:	97fffb5c 	bl	81784 <signup>
   82a18:	b9001fff 	str	wzr, [sp, #28]
   82a1c:	14000015 	b	82a70 <player2+0x78>
   82a20:	b0000020 	adrp	x0, 87000 <el1_a32_serror+0x80>
   82a24:	91148000 	add	x0, x0, #0x520
   82a28:	97fffb79 	bl	8180c <play>
   82a2c:	39005fe0 	strb	w0, [sp, #23]
   82a30:	b9401be3 	ldr	w3, [sp, #24]
   82a34:	b9401fe2 	ldr	w2, [sp, #28]
   82a38:	b0000020 	adrp	x0, 87000 <el1_a32_serror+0x80>
   82a3c:	9114a001 	add	x1, x0, #0x528
   82a40:	d2800020 	mov	x0, #0x1                   	// #1
   82a44:	94000252 	bl	8338c <uart_printf>
   82a48:	39405fe1 	ldrb	w1, [sp, #23]
   82a4c:	d2800020 	mov	x0, #0x1                   	// #1
   82a50:	9400015a 	bl	82fb8 <uart_putc>
   82a54:	b0000020 	adrp	x0, 87000 <el1_a32_serror+0x80>
   82a58:	91144001 	add	x1, x0, #0x510
   82a5c:	d2800020 	mov	x0, #0x1                   	// #1
   82a60:	9400024b 	bl	8338c <uart_printf>
   82a64:	b9401fe0 	ldr	w0, [sp, #28]
   82a68:	11000400 	add	w0, w0, #0x1
   82a6c:	b9001fe0 	str	w0, [sp, #28]
   82a70:	b9401fe0 	ldr	w0, [sp, #28]
   82a74:	7100101f 	cmp	w0, #0x4
   82a78:	54fffd4d 	b.le	82a20 <player2+0x28>
   82a7c:	97fffb53 	bl	817c8 <quit>
   82a80:	94000943 	bl	84f8c <Exit>
   82a84:	d503201f 	nop
   82a88:	a8c27bfd 	ldp	x29, x30, [sp], #32
   82a8c:	d65f03c0 	ret

0000000000082a90 <init_solonoids>:
   82a90:	a9bf7bfd 	stp	x29, x30, [sp, #-16]!
   82a94:	910003fd 	mov	x29, sp
   82a98:	9400093d 	bl	84f8c <Exit>
   82a9c:	d503201f 	nop
   82aa0:	a8c17bfd 	ldp	x29, x30, [sp], #16
   82aa4:	d65f03c0 	ret

0000000000082aa8 <setup_gpio>:
   82aa8:	d10083ff 	sub	sp, sp, #0x20
   82aac:	b9000fe0 	str	w0, [sp, #12]
   82ab0:	b9000be1 	str	w1, [sp, #8]
   82ab4:	b90007e2 	str	w2, [sp, #4]
   82ab8:	b9400fe1 	ldr	w1, [sp, #12]
   82abc:	529999a0 	mov	w0, #0xcccd                	// #52429
   82ac0:	72b99980 	movk	w0, #0xcccc, lsl #16
   82ac4:	9ba07c20 	umull	x0, w1, w0
   82ac8:	d360fc00 	lsr	x0, x0, #32
   82acc:	53037c00 	lsr	w0, w0, #3
   82ad0:	b9001fe0 	str	w0, [sp, #28]
   82ad4:	b9400fe2 	ldr	w2, [sp, #12]
   82ad8:	529999a0 	mov	w0, #0xcccd                	// #52429
   82adc:	72b99980 	movk	w0, #0xcccc, lsl #16
   82ae0:	9ba07c40 	umull	x0, w2, w0
   82ae4:	d360fc00 	lsr	x0, x0, #32
   82ae8:	53037c01 	lsr	w1, w0, #3
   82aec:	2a0103e0 	mov	w0, w1
   82af0:	531e7400 	lsl	w0, w0, #2
   82af4:	0b010000 	add	w0, w0, w1
   82af8:	531f7800 	lsl	w0, w0, #1
   82afc:	4b000041 	sub	w1, w2, w0
   82b00:	2a0103e0 	mov	w0, w1
   82b04:	531f7800 	lsl	w0, w0, #1
   82b08:	0b010000 	add	w0, w0, w1
   82b0c:	b9001be0 	str	w0, [sp, #24]
   82b10:	d2bfc401 	mov	x1, #0xfe200000            	// #4263510016
   82b14:	b0000020 	adrp	x0, 87000 <el1_a32_serror+0x80>
   82b18:	91156000 	add	x0, x0, #0x558
   82b1c:	b9401fe2 	ldr	w2, [sp, #28]
   82b20:	b8627800 	ldr	w0, [x0, x2, lsl #2]
   82b24:	2a0003e0 	mov	w0, w0
   82b28:	8b000020 	add	x0, x1, x0
   82b2c:	b9400000 	ldr	w0, [x0]
   82b30:	b90017e0 	str	w0, [sp, #20]
   82b34:	b9401be0 	ldr	w0, [sp, #24]
   82b38:	528000e1 	mov	w1, #0x7                   	// #7
   82b3c:	1ac02020 	lsl	w0, w1, w0
   82b40:	2a2003e0 	mvn	w0, w0
   82b44:	b94017e1 	ldr	w1, [sp, #20]
   82b48:	0a000020 	and	w0, w1, w0
   82b4c:	b90017e0 	str	w0, [sp, #20]
   82b50:	b9401be0 	ldr	w0, [sp, #24]
   82b54:	b9400be1 	ldr	w1, [sp, #8]
   82b58:	1ac02020 	lsl	w0, w1, w0
   82b5c:	b94017e1 	ldr	w1, [sp, #20]
   82b60:	2a000020 	orr	w0, w1, w0
   82b64:	b90017e0 	str	w0, [sp, #20]
   82b68:	d2bfc401 	mov	x1, #0xfe200000            	// #4263510016
   82b6c:	b0000020 	adrp	x0, 87000 <el1_a32_serror+0x80>
   82b70:	91156000 	add	x0, x0, #0x558
   82b74:	b9401fe2 	ldr	w2, [sp, #28]
   82b78:	b8627800 	ldr	w0, [x0, x2, lsl #2]
   82b7c:	2a0003e0 	mov	w0, w0
   82b80:	8b000020 	add	x0, x1, x0
   82b84:	b94017e1 	ldr	w1, [sp, #20]
   82b88:	b9000001 	str	w1, [x0]
   82b8c:	b9400fe0 	ldr	w0, [sp, #12]
   82b90:	53047c00 	lsr	w0, w0, #4
   82b94:	b9001fe0 	str	w0, [sp, #28]
   82b98:	b9400fe0 	ldr	w0, [sp, #12]
   82b9c:	12000c00 	and	w0, w0, #0xf
   82ba0:	531f7800 	lsl	w0, w0, #1
   82ba4:	b9001be0 	str	w0, [sp, #24]
   82ba8:	d2bfc401 	mov	x1, #0xfe200000            	// #4263510016
   82bac:	b0000020 	adrp	x0, 87000 <el1_a32_serror+0x80>
   82bb0:	9115c000 	add	x0, x0, #0x570
   82bb4:	b9401fe2 	ldr	w2, [sp, #28]
   82bb8:	b8627800 	ldr	w0, [x0, x2, lsl #2]
   82bbc:	2a0003e0 	mov	w0, w0
   82bc0:	8b000020 	add	x0, x1, x0
   82bc4:	b9400000 	ldr	w0, [x0]
   82bc8:	b90017e0 	str	w0, [sp, #20]
   82bcc:	b9401be0 	ldr	w0, [sp, #24]
   82bd0:	52800061 	mov	w1, #0x3                   	// #3
   82bd4:	1ac02020 	lsl	w0, w1, w0
   82bd8:	2a2003e0 	mvn	w0, w0
   82bdc:	b94017e1 	ldr	w1, [sp, #20]
   82be0:	0a000020 	and	w0, w1, w0
   82be4:	b90017e0 	str	w0, [sp, #20]
   82be8:	b9401be0 	ldr	w0, [sp, #24]
   82bec:	b94007e1 	ldr	w1, [sp, #4]
   82bf0:	1ac02020 	lsl	w0, w1, w0
   82bf4:	b94017e1 	ldr	w1, [sp, #20]
   82bf8:	2a000020 	orr	w0, w1, w0
   82bfc:	b90017e0 	str	w0, [sp, #20]
   82c00:	d2bfc401 	mov	x1, #0xfe200000            	// #4263510016
   82c04:	b0000020 	adrp	x0, 87000 <el1_a32_serror+0x80>
   82c08:	9115c000 	add	x0, x0, #0x570
   82c0c:	b9401fe2 	ldr	w2, [sp, #28]
   82c10:	b8627800 	ldr	w0, [x0, x2, lsl #2]
   82c14:	2a0003e0 	mov	w0, w0
   82c18:	8b000020 	add	x0, x1, x0
   82c1c:	b94017e1 	ldr	w1, [sp, #20]
   82c20:	b9000001 	str	w1, [x0]
   82c24:	d503201f 	nop
   82c28:	910083ff 	add	sp, sp, #0x20
   82c2c:	d65f03c0 	ret

0000000000082c30 <uart_init>:
   82c30:	a9bf7bfd 	stp	x29, x30, [sp, #-16]!
   82c34:	910003fd 	mov	x29, sp
   82c38:	52800060 	mov	w0, #0x3                   	// #3
   82c3c:	52800001 	mov	w1, #0x0                   	// #0
   82c40:	2a0103e2 	mov	w2, w1
   82c44:	2a0003e1 	mov	w1, w0
   82c48:	52800080 	mov	w0, #0x4                   	// #4
   82c4c:	97ffff97 	bl	82aa8 <setup_gpio>
   82c50:	52800060 	mov	w0, #0x3                   	// #3
   82c54:	52800001 	mov	w1, #0x0                   	// #0
   82c58:	2a0103e2 	mov	w2, w1
   82c5c:	2a0003e1 	mov	w1, w0
   82c60:	528000a0 	mov	w0, #0x5                   	// #5
   82c64:	97ffff91 	bl	82aa8 <setup_gpio>
   82c68:	52800060 	mov	w0, #0x3                   	// #3
   82c6c:	52800001 	mov	w1, #0x0                   	// #0
   82c70:	2a0103e2 	mov	w2, w1
   82c74:	2a0003e1 	mov	w1, w0
   82c78:	528000c0 	mov	w0, #0x6                   	// #6
   82c7c:	97ffff8b 	bl	82aa8 <setup_gpio>
   82c80:	52800060 	mov	w0, #0x3                   	// #3
   82c84:	52800001 	mov	w1, #0x0                   	// #0
   82c88:	2a0103e2 	mov	w2, w1
   82c8c:	2a0003e1 	mov	w1, w0
   82c90:	528000e0 	mov	w0, #0x7                   	// #7
   82c94:	97ffff85 	bl	82aa8 <setup_gpio>
   82c98:	52800080 	mov	w0, #0x4                   	// #4
   82c9c:	52800001 	mov	w1, #0x0                   	// #0
   82ca0:	2a0103e2 	mov	w2, w1
   82ca4:	2a0003e1 	mov	w1, w0
   82ca8:	528001c0 	mov	w0, #0xe                   	// #14
   82cac:	97ffff7f 	bl	82aa8 <setup_gpio>
   82cb0:	52800080 	mov	w0, #0x4                   	// #4
   82cb4:	52800001 	mov	w1, #0x0                   	// #0
   82cb8:	2a0103e2 	mov	w2, w1
   82cbc:	2a0003e1 	mov	w1, w0
   82cc0:	528001e0 	mov	w0, #0xf                   	// #15
   82cc4:	97ffff79 	bl	82aa8 <setup_gpio>
   82cc8:	d503201f 	nop
   82ccc:	a8c17bfd 	ldp	x29, x30, [sp], #16
   82cd0:	d65f03c0 	ret

0000000000082cd4 <uart_config_and_enable>:
   82cd4:	d10083ff 	sub	sp, sp, #0x20
   82cd8:	f90007e0 	str	x0, [sp, #8]
   82cdc:	b90007e1 	str	w1, [sp, #4]
   82ce0:	b90003e2 	str	w2, [sp]
   82ce4:	528d8000 	mov	w0, #0x6c00                	// #27648
   82ce8:	72a05b80 	movk	w0, #0x2dc, lsl #16
   82cec:	2a0003e0 	mov	w0, w0
   82cf0:	d37ef401 	lsl	x1, x0, #2
   82cf4:	b94007e0 	ldr	w0, [sp, #4]
   82cf8:	9ac00820 	udiv	x0, x1, x0
   82cfc:	b9001fe0 	str	w0, [sp, #28]
   82d00:	b0000020 	adrp	x0, 87000 <el1_a32_serror+0x80>
   82d04:	91170000 	add	x0, x0, #0x5c0
   82d08:	f94007e1 	ldr	x1, [sp, #8]
   82d0c:	f8617801 	ldr	x1, [x0, x1, lsl #3]
   82d10:	52800600 	mov	w0, #0x30                  	// #48
   82d14:	2a0003e0 	mov	w0, w0
   82d18:	8b000020 	add	x0, x1, x0
   82d1c:	b9400000 	ldr	w0, [x0]
   82d20:	b9001be0 	str	w0, [sp, #24]
   82d24:	52800020 	mov	w0, #0x1                   	// #1
   82d28:	2a2003e2 	mvn	w2, w0
   82d2c:	b0000020 	adrp	x0, 87000 <el1_a32_serror+0x80>
   82d30:	91170000 	add	x0, x0, #0x5c0
   82d34:	f94007e1 	ldr	x1, [sp, #8]
   82d38:	f8617801 	ldr	x1, [x0, x1, lsl #3]
   82d3c:	52800600 	mov	w0, #0x30                  	// #48
   82d40:	2a0003e0 	mov	w0, w0
   82d44:	8b000020 	add	x0, x1, x0
   82d48:	b9401be1 	ldr	w1, [sp, #24]
   82d4c:	0a010041 	and	w1, w2, w1
   82d50:	b9000001 	str	w1, [x0]
   82d54:	b94003e0 	ldr	w0, [sp]
   82d58:	7100001f 	cmp	w0, #0x0
   82d5c:	54000220 	b.eq	82da0 <uart_config_and_enable+0xcc>  // b.none
   82d60:	52800801 	mov	w1, #0x40                  	// #64
   82d64:	52800400 	mov	w0, #0x20                  	// #32
   82d68:	2a000021 	orr	w1, w1, w0
   82d6c:	52800200 	mov	w0, #0x10                  	// #16
   82d70:	2a000022 	orr	w2, w1, w0
   82d74:	52800101 	mov	w1, #0x8                   	// #8
   82d78:	b0000020 	adrp	x0, 87000 <el1_a32_serror+0x80>
   82d7c:	91170000 	add	x0, x0, #0x5c0
   82d80:	f94007e3 	ldr	x3, [sp, #8]
   82d84:	f8637803 	ldr	x3, [x0, x3, lsl #3]
   82d88:	52800580 	mov	w0, #0x2c                  	// #44
   82d8c:	2a0003e0 	mov	w0, w0
   82d90:	8b000060 	add	x0, x3, x0
   82d94:	2a010041 	orr	w1, w2, w1
   82d98:	b9000001 	str	w1, [x0]
   82d9c:	1400000e 	b	82dd4 <uart_config_and_enable+0x100>
   82da0:	52800801 	mov	w1, #0x40                  	// #64
   82da4:	52800400 	mov	w0, #0x20                  	// #32
   82da8:	2a000022 	orr	w2, w1, w0
   82dac:	52800201 	mov	w1, #0x10                  	// #16
   82db0:	b0000020 	adrp	x0, 87000 <el1_a32_serror+0x80>
   82db4:	91170000 	add	x0, x0, #0x5c0
   82db8:	f94007e3 	ldr	x3, [sp, #8]
   82dbc:	f8637803 	ldr	x3, [x0, x3, lsl #3]
   82dc0:	52800580 	mov	w0, #0x2c                  	// #44
   82dc4:	2a0003e0 	mov	w0, w0
   82dc8:	8b000060 	add	x0, x3, x0
   82dcc:	2a010041 	orr	w1, w2, w1
   82dd0:	b9000001 	str	w1, [x0]
   82dd4:	b0000020 	adrp	x0, 87000 <el1_a32_serror+0x80>
   82dd8:	91170000 	add	x0, x0, #0x5c0
   82ddc:	f94007e1 	ldr	x1, [sp, #8]
   82de0:	f8617801 	ldr	x1, [x0, x1, lsl #3]
   82de4:	52800480 	mov	w0, #0x24                  	// #36
   82de8:	2a0003e0 	mov	w0, w0
   82dec:	8b000020 	add	x0, x1, x0
   82df0:	b9401fe1 	ldr	w1, [sp, #28]
   82df4:	53067c21 	lsr	w1, w1, #6
   82df8:	b9000001 	str	w1, [x0]
   82dfc:	b0000020 	adrp	x0, 87000 <el1_a32_serror+0x80>
   82e00:	91170000 	add	x0, x0, #0x5c0
   82e04:	f94007e1 	ldr	x1, [sp, #8]
   82e08:	f8617801 	ldr	x1, [x0, x1, lsl #3]
   82e0c:	52800500 	mov	w0, #0x28                  	// #40
   82e10:	2a0003e0 	mov	w0, w0
   82e14:	8b000020 	add	x0, x1, x0
   82e18:	b9401fe1 	ldr	w1, [sp, #28]
   82e1c:	12001421 	and	w1, w1, #0x3f
   82e20:	b9000001 	str	w1, [x0]
   82e24:	b94003e0 	ldr	w0, [sp]
   82e28:	7100001f 	cmp	w0, #0x0
   82e2c:	54000260 	b.eq	82e78 <uart_config_and_enable+0x1a4>  // b.none
   82e30:	52800021 	mov	w1, #0x1                   	// #1
   82e34:	b9401be0 	ldr	w0, [sp, #24]
   82e38:	2a000021 	orr	w1, w1, w0
   82e3c:	52802000 	mov	w0, #0x100                 	// #256
   82e40:	2a000021 	orr	w1, w1, w0
   82e44:	52804000 	mov	w0, #0x200                 	// #512
   82e48:	2a000022 	orr	w2, w1, w0
   82e4c:	52900001 	mov	w1, #0x8000                	// #32768
   82e50:	b0000020 	adrp	x0, 87000 <el1_a32_serror+0x80>
   82e54:	91170000 	add	x0, x0, #0x5c0
   82e58:	f94007e3 	ldr	x3, [sp, #8]
   82e5c:	f8637803 	ldr	x3, [x0, x3, lsl #3]
   82e60:	52800600 	mov	w0, #0x30                  	// #48
   82e64:	2a0003e0 	mov	w0, w0
   82e68:	8b000060 	add	x0, x3, x0
   82e6c:	2a010041 	orr	w1, w2, w1
   82e70:	b9000001 	str	w1, [x0]
   82e74:	14000010 	b	82eb4 <uart_config_and_enable+0x1e0>
   82e78:	52800021 	mov	w1, #0x1                   	// #1
   82e7c:	b9401be0 	ldr	w0, [sp, #24]
   82e80:	2a000021 	orr	w1, w1, w0
   82e84:	52802000 	mov	w0, #0x100                 	// #256
   82e88:	2a000022 	orr	w2, w1, w0
   82e8c:	52804001 	mov	w1, #0x200                 	// #512
   82e90:	b0000020 	adrp	x0, 87000 <el1_a32_serror+0x80>
   82e94:	91170000 	add	x0, x0, #0x5c0
   82e98:	f94007e3 	ldr	x3, [sp, #8]
   82e9c:	f8637803 	ldr	x3, [x0, x3, lsl #3]
   82ea0:	52800600 	mov	w0, #0x30                  	// #48
   82ea4:	2a0003e0 	mov	w0, w0
   82ea8:	8b000060 	add	x0, x3, x0
   82eac:	2a010041 	orr	w1, w2, w1
   82eb0:	b9000001 	str	w1, [x0]
   82eb4:	d503201f 	nop
   82eb8:	910083ff 	add	sp, sp, #0x20
   82ebc:	d65f03c0 	ret

0000000000082ec0 <uart_getc>:
   82ec0:	d10083ff 	sub	sp, sp, #0x20
   82ec4:	f90007e0 	str	x0, [sp, #8]
   82ec8:	d503201f 	nop
   82ecc:	b0000020 	adrp	x0, 87000 <el1_a32_serror+0x80>
   82ed0:	91170000 	add	x0, x0, #0x5c0
   82ed4:	f94007e1 	ldr	x1, [sp, #8]
   82ed8:	f8617801 	ldr	x1, [x0, x1, lsl #3]
   82edc:	52800300 	mov	w0, #0x18                  	// #24
   82ee0:	2a0003e0 	mov	w0, w0
   82ee4:	8b000020 	add	x0, x1, x0
   82ee8:	b9400001 	ldr	w1, [x0]
   82eec:	52800200 	mov	w0, #0x10                  	// #16
   82ef0:	0a000020 	and	w0, w1, w0
   82ef4:	7100001f 	cmp	w0, #0x0
   82ef8:	54fffea1 	b.ne	82ecc <uart_getc+0xc>  // b.any
   82efc:	b0000020 	adrp	x0, 87000 <el1_a32_serror+0x80>
   82f00:	91170000 	add	x0, x0, #0x5c0
   82f04:	f94007e1 	ldr	x1, [sp, #8]
   82f08:	f8617801 	ldr	x1, [x0, x1, lsl #3]
   82f0c:	52800000 	mov	w0, #0x0                   	// #0
   82f10:	2a0003e0 	mov	w0, w0
   82f14:	8b000020 	add	x0, x1, x0
   82f18:	b9400000 	ldr	w0, [x0]
   82f1c:	39007fe0 	strb	w0, [sp, #31]
   82f20:	39407fe0 	ldrb	w0, [sp, #31]
   82f24:	910083ff 	add	sp, sp, #0x20
   82f28:	d65f03c0 	ret

0000000000082f2c <uart_rxc>:
   82f2c:	d10083ff 	sub	sp, sp, #0x20
   82f30:	f90007e0 	str	x0, [sp, #8]
   82f34:	b0000020 	adrp	x0, 87000 <el1_a32_serror+0x80>
   82f38:	91170000 	add	x0, x0, #0x5c0
   82f3c:	f94007e1 	ldr	x1, [sp, #8]
   82f40:	f8617801 	ldr	x1, [x0, x1, lsl #3]
   82f44:	52800300 	mov	w0, #0x18                  	// #24
   82f48:	2a0003e0 	mov	w0, w0
   82f4c:	8b000020 	add	x0, x1, x0
   82f50:	b9400001 	ldr	w1, [x0]
   82f54:	52800200 	mov	w0, #0x10                  	// #16
   82f58:	0a000020 	and	w0, w1, w0
   82f5c:	7100001f 	cmp	w0, #0x0
   82f60:	1a9f17e0 	cset	w0, eq	// eq = none
   82f64:	12001c00 	and	w0, w0, #0xff
   82f68:	b9001fe0 	str	w0, [sp, #28]
   82f6c:	b9401fe0 	ldr	w0, [sp, #28]
   82f70:	910083ff 	add	sp, sp, #0x20
   82f74:	d65f03c0 	ret

0000000000082f78 <uart_cts>:
   82f78:	d10083ff 	sub	sp, sp, #0x20
   82f7c:	f90007e0 	str	x0, [sp, #8]
   82f80:	b0000020 	adrp	x0, 87000 <el1_a32_serror+0x80>
   82f84:	91170000 	add	x0, x0, #0x5c0
   82f88:	f94007e1 	ldr	x1, [sp, #8]
   82f8c:	f8617801 	ldr	x1, [x0, x1, lsl #3]
   82f90:	52800300 	mov	w0, #0x18                  	// #24
   82f94:	2a0003e0 	mov	w0, w0
   82f98:	8b000020 	add	x0, x1, x0
   82f9c:	b9400001 	ldr	w1, [x0]
   82fa0:	52800020 	mov	w0, #0x1                   	// #1
   82fa4:	0a000020 	and	w0, w1, w0
   82fa8:	b9001fe0 	str	w0, [sp, #28]
   82fac:	b9401fe0 	ldr	w0, [sp, #28]
   82fb0:	910083ff 	add	sp, sp, #0x20
   82fb4:	d65f03c0 	ret

0000000000082fb8 <uart_putc>:
   82fb8:	d10043ff 	sub	sp, sp, #0x10
   82fbc:	f90007e0 	str	x0, [sp, #8]
   82fc0:	39001fe1 	strb	w1, [sp, #7]
   82fc4:	d503201f 	nop
   82fc8:	b0000020 	adrp	x0, 87000 <el1_a32_serror+0x80>
   82fcc:	91170000 	add	x0, x0, #0x5c0
   82fd0:	f94007e1 	ldr	x1, [sp, #8]
   82fd4:	f8617801 	ldr	x1, [x0, x1, lsl #3]
   82fd8:	52800300 	mov	w0, #0x18                  	// #24
   82fdc:	2a0003e0 	mov	w0, w0
   82fe0:	8b000020 	add	x0, x1, x0
   82fe4:	b9400001 	ldr	w1, [x0]
   82fe8:	52800400 	mov	w0, #0x20                  	// #32
   82fec:	0a000020 	and	w0, w1, w0
   82ff0:	7100001f 	cmp	w0, #0x0
   82ff4:	54fffea1 	b.ne	82fc8 <uart_putc+0x10>  // b.any
   82ff8:	b0000020 	adrp	x0, 87000 <el1_a32_serror+0x80>
   82ffc:	91170000 	add	x0, x0, #0x5c0
   83000:	f94007e1 	ldr	x1, [sp, #8]
   83004:	f8617801 	ldr	x1, [x0, x1, lsl #3]
   83008:	52800000 	mov	w0, #0x0                   	// #0
   8300c:	2a0003e0 	mov	w0, w0
   83010:	8b000020 	add	x0, x1, x0
   83014:	39401fe1 	ldrb	w1, [sp, #7]
   83018:	b9000001 	str	w1, [x0]
   8301c:	d503201f 	nop
   83020:	910043ff 	add	sp, sp, #0x10
   83024:	d65f03c0 	ret

0000000000083028 <uart_putl>:
   83028:	a9bc7bfd 	stp	x29, x30, [sp, #-64]!
   8302c:	910003fd 	mov	x29, sp
   83030:	f90017e0 	str	x0, [sp, #40]
   83034:	f90013e1 	str	x1, [sp, #32]
   83038:	f9000fe2 	str	x2, [sp, #24]
   8303c:	b9003fff 	str	wzr, [sp, #60]
   83040:	1400000b 	b	8306c <uart_putl+0x44>
   83044:	b9403fe0 	ldr	w0, [sp, #60]
   83048:	f94013e1 	ldr	x1, [sp, #32]
   8304c:	8b000020 	add	x0, x1, x0
   83050:	39400000 	ldrb	w0, [x0]
   83054:	2a0003e1 	mov	w1, w0
   83058:	f94017e0 	ldr	x0, [sp, #40]
   8305c:	97ffffd7 	bl	82fb8 <uart_putc>
   83060:	b9403fe0 	ldr	w0, [sp, #60]
   83064:	11000400 	add	w0, w0, #0x1
   83068:	b9003fe0 	str	w0, [sp, #60]
   8306c:	b9403fe0 	ldr	w0, [sp, #60]
   83070:	f9400fe1 	ldr	x1, [sp, #24]
   83074:	eb00003f 	cmp	x1, x0
   83078:	54fffe68 	b.hi	83044 <uart_putl+0x1c>  // b.pmore
   8307c:	d503201f 	nop
   83080:	d503201f 	nop
   83084:	a8c47bfd 	ldp	x29, x30, [sp], #64
   83088:	d65f03c0 	ret

000000000008308c <uart_puts>:
   8308c:	a9be7bfd 	stp	x29, x30, [sp, #-32]!
   83090:	910003fd 	mov	x29, sp
   83094:	f9000fe0 	str	x0, [sp, #24]
   83098:	f9000be1 	str	x1, [sp, #16]
   8309c:	14000009 	b	830c0 <uart_puts+0x34>
   830a0:	f9400be0 	ldr	x0, [sp, #16]
   830a4:	39400000 	ldrb	w0, [x0]
   830a8:	2a0003e1 	mov	w1, w0
   830ac:	f9400fe0 	ldr	x0, [sp, #24]
   830b0:	97ffffc2 	bl	82fb8 <uart_putc>
   830b4:	f9400be0 	ldr	x0, [sp, #16]
   830b8:	91000400 	add	x0, x0, #0x1
   830bc:	f9000be0 	str	x0, [sp, #16]
   830c0:	f9400be0 	ldr	x0, [sp, #16]
   830c4:	39400000 	ldrb	w0, [x0]
   830c8:	7100001f 	cmp	w0, #0x0
   830cc:	54fffea1 	b.ne	830a0 <uart_puts+0x14>  // b.any
   830d0:	d503201f 	nop
   830d4:	d503201f 	nop
   830d8:	a8c27bfd 	ldp	x29, x30, [sp], #32
   830dc:	d65f03c0 	ret

00000000000830e0 <uart_format_print>:
   830e0:	a9bc7bfd 	stp	x29, x30, [sp, #-64]!
   830e4:	910003fd 	mov	x29, sp
   830e8:	f9000bf3 	str	x19, [sp, #16]
   830ec:	f90017e0 	str	x0, [sp, #40]
   830f0:	f90013e1 	str	x1, [sp, #32]
   830f4:	aa0203f3 	mov	x19, x2
   830f8:	14000098 	b	83358 <uart_format_print+0x278>
   830fc:	3940ffe0 	ldrb	w0, [sp, #63]
   83100:	7100941f 	cmp	w0, #0x25
   83104:	540000a0 	b.eq	83118 <uart_format_print+0x38>  // b.none
   83108:	3940ffe1 	ldrb	w1, [sp, #63]
   8310c:	f94017e0 	ldr	x0, [sp, #40]
   83110:	97ffffaa 	bl	82fb8 <uart_putc>
   83114:	14000091 	b	83358 <uart_format_print+0x278>
   83118:	f94013e0 	ldr	x0, [sp, #32]
   8311c:	91000401 	add	x1, x0, #0x1
   83120:	f90013e1 	str	x1, [sp, #32]
   83124:	39400000 	ldrb	w0, [x0]
   83128:	3900ffe0 	strb	w0, [sp, #63]
   8312c:	3940ffe0 	ldrb	w0, [sp, #63]
   83130:	7101e01f 	cmp	w0, #0x78
   83134:	540009c0 	b.eq	8326c <uart_format_print+0x18c>  // b.none
   83138:	7101e01f 	cmp	w0, #0x78
   8313c:	540010ec 	b.gt	83358 <uart_format_print+0x278>
   83140:	7101d41f 	cmp	w0, #0x75
   83144:	54000200 	b.eq	83184 <uart_format_print+0xa4>  // b.none
   83148:	7101d41f 	cmp	w0, #0x75
   8314c:	5400106c 	b.gt	83358 <uart_format_print+0x278>
   83150:	7101cc1f 	cmp	w0, #0x73
   83154:	54000c80 	b.eq	832e4 <uart_format_print+0x204>  // b.none
   83158:	7101cc1f 	cmp	w0, #0x73
   8315c:	54000fec 	b.gt	83358 <uart_format_print+0x278>
   83160:	7101901f 	cmp	w0, #0x64
   83164:	540004c0 	b.eq	831fc <uart_format_print+0x11c>  // b.none
   83168:	7101901f 	cmp	w0, #0x64
   8316c:	54000f6c 	b.gt	83358 <uart_format_print+0x278>
   83170:	7100001f 	cmp	w0, #0x0
   83174:	54001040 	b.eq	8337c <uart_format_print+0x29c>  // b.none
   83178:	7100941f 	cmp	w0, #0x25
   8317c:	54000e60 	b.eq	83348 <uart_format_print+0x268>  // b.none
   83180:	14000076 	b	83358 <uart_format_print+0x278>
   83184:	b9401a61 	ldr	w1, [x19, #24]
   83188:	f9400260 	ldr	x0, [x19]
   8318c:	7100003f 	cmp	w1, #0x0
   83190:	540000ab 	b.lt	831a4 <uart_format_print+0xc4>  // b.tstop
   83194:	91002c01 	add	x1, x0, #0xb
   83198:	927df021 	and	x1, x1, #0xfffffffffffffff8
   8319c:	f9000261 	str	x1, [x19]
   831a0:	1400000d 	b	831d4 <uart_format_print+0xf4>
   831a4:	11002022 	add	w2, w1, #0x8
   831a8:	b9001a62 	str	w2, [x19, #24]
   831ac:	b9401a62 	ldr	w2, [x19, #24]
   831b0:	7100005f 	cmp	w2, #0x0
   831b4:	540000ad 	b.le	831c8 <uart_format_print+0xe8>
   831b8:	91002c01 	add	x1, x0, #0xb
   831bc:	927df021 	and	x1, x1, #0xfffffffffffffff8
   831c0:	f9000261 	str	x1, [x19]
   831c4:	14000004 	b	831d4 <uart_format_print+0xf4>
   831c8:	f9400662 	ldr	x2, [x19, #8]
   831cc:	93407c20 	sxtw	x0, w1
   831d0:	8b000040 	add	x0, x2, x0
   831d4:	b9400000 	ldr	w0, [x0]
   831d8:	9100c3e1 	add	x1, sp, #0x30
   831dc:	aa0103e2 	mov	x2, x1
   831e0:	52800141 	mov	w1, #0xa                   	// #10
   831e4:	940007aa 	bl	8508c <ui2a>
   831e8:	9100c3e0 	add	x0, sp, #0x30
   831ec:	aa0003e1 	mov	x1, x0
   831f0:	f94017e0 	ldr	x0, [sp, #40]
   831f4:	97ffffa6 	bl	8308c <uart_puts>
   831f8:	14000058 	b	83358 <uart_format_print+0x278>
   831fc:	b9401a61 	ldr	w1, [x19, #24]
   83200:	f9400260 	ldr	x0, [x19]
   83204:	7100003f 	cmp	w1, #0x0
   83208:	540000ab 	b.lt	8321c <uart_format_print+0x13c>  // b.tstop
   8320c:	91002c01 	add	x1, x0, #0xb
   83210:	927df021 	and	x1, x1, #0xfffffffffffffff8
   83214:	f9000261 	str	x1, [x19]
   83218:	1400000d 	b	8324c <uart_format_print+0x16c>
   8321c:	11002022 	add	w2, w1, #0x8
   83220:	b9001a62 	str	w2, [x19, #24]
   83224:	b9401a62 	ldr	w2, [x19, #24]
   83228:	7100005f 	cmp	w2, #0x0
   8322c:	540000ad 	b.le	83240 <uart_format_print+0x160>
   83230:	91002c01 	add	x1, x0, #0xb
   83234:	927df021 	and	x1, x1, #0xfffffffffffffff8
   83238:	f9000261 	str	x1, [x19]
   8323c:	14000004 	b	8324c <uart_format_print+0x16c>
   83240:	f9400662 	ldr	x2, [x19, #8]
   83244:	93407c20 	sxtw	x0, w1
   83248:	8b000040 	add	x0, x2, x0
   8324c:	b9400000 	ldr	w0, [x0]
   83250:	9100c3e1 	add	x1, sp, #0x30
   83254:	940007d2 	bl	8519c <i2a>
   83258:	9100c3e0 	add	x0, sp, #0x30
   8325c:	aa0003e1 	mov	x1, x0
   83260:	f94017e0 	ldr	x0, [sp, #40]
   83264:	97ffff8a 	bl	8308c <uart_puts>
   83268:	1400003c 	b	83358 <uart_format_print+0x278>
   8326c:	b9401a61 	ldr	w1, [x19, #24]
   83270:	f9400260 	ldr	x0, [x19]
   83274:	7100003f 	cmp	w1, #0x0
   83278:	540000ab 	b.lt	8328c <uart_format_print+0x1ac>  // b.tstop
   8327c:	91002c01 	add	x1, x0, #0xb
   83280:	927df021 	and	x1, x1, #0xfffffffffffffff8
   83284:	f9000261 	str	x1, [x19]
   83288:	1400000d 	b	832bc <uart_format_print+0x1dc>
   8328c:	11002022 	add	w2, w1, #0x8
   83290:	b9001a62 	str	w2, [x19, #24]
   83294:	b9401a62 	ldr	w2, [x19, #24]
   83298:	7100005f 	cmp	w2, #0x0
   8329c:	540000ad 	b.le	832b0 <uart_format_print+0x1d0>
   832a0:	91002c01 	add	x1, x0, #0xb
   832a4:	927df021 	and	x1, x1, #0xfffffffffffffff8
   832a8:	f9000261 	str	x1, [x19]
   832ac:	14000004 	b	832bc <uart_format_print+0x1dc>
   832b0:	f9400662 	ldr	x2, [x19, #8]
   832b4:	93407c20 	sxtw	x0, w1
   832b8:	8b000040 	add	x0, x2, x0
   832bc:	b9400000 	ldr	w0, [x0]
   832c0:	9100c3e1 	add	x1, sp, #0x30
   832c4:	aa0103e2 	mov	x2, x1
   832c8:	52800201 	mov	w1, #0x10                  	// #16
   832cc:	94000770 	bl	8508c <ui2a>
   832d0:	9100c3e0 	add	x0, sp, #0x30
   832d4:	aa0003e1 	mov	x1, x0
   832d8:	f94017e0 	ldr	x0, [sp, #40]
   832dc:	97ffff6c 	bl	8308c <uart_puts>
   832e0:	1400001e 	b	83358 <uart_format_print+0x278>
   832e4:	b9401a61 	ldr	w1, [x19, #24]
   832e8:	f9400260 	ldr	x0, [x19]
   832ec:	7100003f 	cmp	w1, #0x0
   832f0:	540000ab 	b.lt	83304 <uart_format_print+0x224>  // b.tstop
   832f4:	91003c01 	add	x1, x0, #0xf
   832f8:	927df021 	and	x1, x1, #0xfffffffffffffff8
   832fc:	f9000261 	str	x1, [x19]
   83300:	1400000d 	b	83334 <uart_format_print+0x254>
   83304:	11002022 	add	w2, w1, #0x8
   83308:	b9001a62 	str	w2, [x19, #24]
   8330c:	b9401a62 	ldr	w2, [x19, #24]
   83310:	7100005f 	cmp	w2, #0x0
   83314:	540000ad 	b.le	83328 <uart_format_print+0x248>
   83318:	91003c01 	add	x1, x0, #0xf
   8331c:	927df021 	and	x1, x1, #0xfffffffffffffff8
   83320:	f9000261 	str	x1, [x19]
   83324:	14000004 	b	83334 <uart_format_print+0x254>
   83328:	f9400662 	ldr	x2, [x19, #8]
   8332c:	93407c20 	sxtw	x0, w1
   83330:	8b000040 	add	x0, x2, x0
   83334:	f9400000 	ldr	x0, [x0]
   83338:	aa0003e1 	mov	x1, x0
   8333c:	f94017e0 	ldr	x0, [sp, #40]
   83340:	97ffff53 	bl	8308c <uart_puts>
   83344:	14000005 	b	83358 <uart_format_print+0x278>
   83348:	3940ffe1 	ldrb	w1, [sp, #63]
   8334c:	f94017e0 	ldr	x0, [sp, #40]
   83350:	97ffff1a 	bl	82fb8 <uart_putc>
   83354:	d503201f 	nop
   83358:	f94013e0 	ldr	x0, [sp, #32]
   8335c:	91000401 	add	x1, x0, #0x1
   83360:	f90013e1 	str	x1, [sp, #32]
   83364:	39400000 	ldrb	w0, [x0]
   83368:	3900ffe0 	strb	w0, [sp, #63]
   8336c:	3940ffe0 	ldrb	w0, [sp, #63]
   83370:	7100001f 	cmp	w0, #0x0
   83374:	54ffec41 	b.ne	830fc <uart_format_print+0x1c>  // b.any
   83378:	14000002 	b	83380 <uart_format_print+0x2a0>
   8337c:	d503201f 	nop
   83380:	f9400bf3 	ldr	x19, [sp, #16]
   83384:	a8c47bfd 	ldp	x29, x30, [sp], #64
   83388:	d65f03c0 	ret

000000000008338c <uart_printf>:
   8338c:	a9b77bfd 	stp	x29, x30, [sp, #-144]!
   83390:	910003fd 	mov	x29, sp
   83394:	f9001fe0 	str	x0, [sp, #56]
   83398:	f9001be1 	str	x1, [sp, #48]
   8339c:	f90033e2 	str	x2, [sp, #96]
   833a0:	f90037e3 	str	x3, [sp, #104]
   833a4:	f9003be4 	str	x4, [sp, #112]
   833a8:	f9003fe5 	str	x5, [sp, #120]
   833ac:	f90043e6 	str	x6, [sp, #128]
   833b0:	f90047e7 	str	x7, [sp, #136]
   833b4:	910243e0 	add	x0, sp, #0x90
   833b8:	f90023e0 	str	x0, [sp, #64]
   833bc:	910243e0 	add	x0, sp, #0x90
   833c0:	f90027e0 	str	x0, [sp, #72]
   833c4:	910183e0 	add	x0, sp, #0x60
   833c8:	f9002be0 	str	x0, [sp, #80]
   833cc:	128005e0 	mov	w0, #0xffffffd0            	// #-48
   833d0:	b9005be0 	str	w0, [sp, #88]
   833d4:	b9005fff 	str	wzr, [sp, #92]
   833d8:	a94407e0 	ldp	x0, x1, [sp, #64]
   833dc:	a90107e0 	stp	x0, x1, [sp, #16]
   833e0:	a94507e0 	ldp	x0, x1, [sp, #80]
   833e4:	a90207e0 	stp	x0, x1, [sp, #32]
   833e8:	910043e0 	add	x0, sp, #0x10
   833ec:	aa0003e2 	mov	x2, x0
   833f0:	f9401be1 	ldr	x1, [sp, #48]
   833f4:	f9401fe0 	ldr	x0, [sp, #56]
   833f8:	97ffff3a 	bl	830e0 <uart_format_print>
   833fc:	d503201f 	nop
   83400:	a8c97bfd 	ldp	x29, x30, [sp], #144
   83404:	d65f03c0 	ret

0000000000083408 <stimer_getlo>:
   83408:	d10043ff 	sub	sp, sp, #0x10
   8340c:	d2860001 	mov	x1, #0x3000                	// #12288
   83410:	f2bfc001 	movk	x1, #0xfe00, lsl #16
   83414:	52800080 	mov	w0, #0x4                   	// #4
   83418:	2a0003e0 	mov	w0, w0
   8341c:	8b000020 	add	x0, x1, x0
   83420:	b9400000 	ldr	w0, [x0]
   83424:	b9000fe0 	str	w0, [sp, #12]
   83428:	b9400fe0 	ldr	w0, [sp, #12]
   8342c:	910043ff 	add	sp, sp, #0x10
   83430:	d65f03c0 	ret

0000000000083434 <stimer_gethi>:
   83434:	d10043ff 	sub	sp, sp, #0x10
   83438:	d2860001 	mov	x1, #0x3000                	// #12288
   8343c:	f2bfc001 	movk	x1, #0xfe00, lsl #16
   83440:	52800100 	mov	w0, #0x8                   	// #8
   83444:	2a0003e0 	mov	w0, w0
   83448:	8b000020 	add	x0, x1, x0
   8344c:	b9400000 	ldr	w0, [x0]
   83450:	b9000fe0 	str	w0, [sp, #12]
   83454:	b9400fe0 	ldr	w0, [sp, #12]
   83458:	910043ff 	add	sp, sp, #0x10
   8345c:	d65f03c0 	ret

0000000000083460 <stimer_snooze>:
   83460:	a9bf7bfd 	stp	x29, x30, [sp, #-16]!
   83464:	910003fd 	mov	x29, sp
   83468:	97ffffe8 	bl	83408 <stimer_getlo>
   8346c:	2a0003e1 	mov	w1, w0
   83470:	52827100 	mov	w0, #0x1388                	// #5000
   83474:	0b000021 	add	w1, w1, w0
   83478:	90000020 	adrp	x0, 87000 <el1_a32_serror+0x80>
   8347c:	911f6000 	add	x0, x0, #0x7d8
   83480:	b9000001 	str	w1, [x0]
   83484:	d503201f 	nop
   83488:	a8c17bfd 	ldp	x29, x30, [sp], #16
   8348c:	d65f03c0 	ret

0000000000083490 <stimer_wake>:
   83490:	a9be7bfd 	stp	x29, x30, [sp, #-32]!
   83494:	910003fd 	mov	x29, sp
   83498:	f9000bf3 	str	x19, [sp, #16]
   8349c:	d503201f 	nop
   834a0:	90000020 	adrp	x0, 87000 <el1_a32_serror+0x80>
   834a4:	911f6000 	add	x0, x0, #0x7d8
   834a8:	b9400013 	ldr	w19, [x0]
   834ac:	97ffffd7 	bl	83408 <stimer_getlo>
   834b0:	4b000260 	sub	w0, w19, w0
   834b4:	7100001f 	cmp	w0, #0x0
   834b8:	54ffff4c 	b.gt	834a0 <stimer_wake+0x10>
   834bc:	d503201f 	nop
   834c0:	f9400bf3 	ldr	x19, [sp, #16]
   834c4:	a8c27bfd 	ldp	x29, x30, [sp], #32
   834c8:	d65f03c0 	ret

00000000000834cc <scrSchedule>:
   834cc:	d10103ff 	sub	sp, sp, #0x40
   834d0:	b9000fe0 	str	w0, [sp, #12]
   834d4:	b9000be1 	str	w1, [sp, #8]
   834d8:	b90007e2 	str	w2, [sp, #4]
   834dc:	b9400fe0 	ldr	w0, [sp, #12]
   834e0:	b9002be0 	str	w0, [sp, #40]
   834e4:	b9400be0 	ldr	w0, [sp, #8]
   834e8:	b9002fe0 	str	w0, [sp, #44]
   834ec:	b94007e0 	ldr	w0, [sp, #4]
   834f0:	b90033e0 	str	w0, [sp, #48]
   834f4:	b9003fff 	str	wzr, [sp, #60]
   834f8:	b9003bff 	str	wzr, [sp, #56]
   834fc:	1400004f 	b	83638 <scrSchedule+0x16c>
   83500:	f0000060 	adrp	x0, 92000 <PROCS+0xa808>
   83504:	91376002 	add	x2, x0, #0xdd8
   83508:	b9803be1 	ldrsw	x1, [sp, #56]
   8350c:	aa0103e0 	mov	x0, x1
   83510:	d37ff800 	lsl	x0, x0, #1
   83514:	8b010000 	add	x0, x0, x1
   83518:	d37ef400 	lsl	x0, x0, #2
   8351c:	8b000040 	add	x0, x2, x0
   83520:	b9400000 	ldr	w0, [x0]
   83524:	7100001f 	cmp	w0, #0x0
   83528:	54000201 	b.ne	83568 <scrSchedule+0x9c>  // b.any
   8352c:	f0000060 	adrp	x0, 92000 <PROCS+0xa808>
   83530:	91376002 	add	x2, x0, #0xdd8
   83534:	b9803be1 	ldrsw	x1, [sp, #56]
   83538:	aa0103e0 	mov	x0, x1
   8353c:	d37ff800 	lsl	x0, x0, #1
   83540:	8b010000 	add	x0, x0, x1
   83544:	d37ef400 	lsl	x0, x0, #2
   83548:	8b000040 	add	x0, x2, x0
   8354c:	b9402be1 	ldr	w1, [sp, #40]
   83550:	b9000001 	str	w1, [x0]
   83554:	b9402fe1 	ldr	w1, [sp, #44]
   83558:	b9000401 	str	w1, [x0, #4]
   8355c:	b94033e1 	ldr	w1, [sp, #48]
   83560:	b9000801 	str	w1, [x0, #8]
   83564:	14000039 	b	83648 <scrSchedule+0x17c>
   83568:	f0000060 	adrp	x0, 92000 <PROCS+0xa808>
   8356c:	91376002 	add	x2, x0, #0xdd8
   83570:	b9803be1 	ldrsw	x1, [sp, #56]
   83574:	aa0103e0 	mov	x0, x1
   83578:	d37ff800 	lsl	x0, x0, #1
   8357c:	8b010000 	add	x0, x0, x1
   83580:	d37ef400 	lsl	x0, x0, #2
   83584:	8b000040 	add	x0, x2, x0
   83588:	b9400400 	ldr	w0, [x0, #4]
   8358c:	b9400be1 	ldr	w1, [sp, #8]
   83590:	6b00003f 	cmp	w1, w0
   83594:	5400006d 	b.le	835a0 <scrSchedule+0xd4>
   83598:	52800020 	mov	w0, #0x1                   	// #1
   8359c:	b9003fe0 	str	w0, [sp, #60]
   835a0:	b9403fe0 	ldr	w0, [sp, #60]
   835a4:	7100001f 	cmp	w0, #0x0
   835a8:	54000420 	b.eq	8362c <scrSchedule+0x160>  // b.none
   835ac:	f0000060 	adrp	x0, 92000 <PROCS+0xa808>
   835b0:	91376002 	add	x2, x0, #0xdd8
   835b4:	b9803be1 	ldrsw	x1, [sp, #56]
   835b8:	aa0103e0 	mov	x0, x1
   835bc:	d37ff800 	lsl	x0, x0, #1
   835c0:	8b010000 	add	x0, x0, x1
   835c4:	d37ef400 	lsl	x0, x0, #2
   835c8:	8b000040 	add	x0, x2, x0
   835cc:	b9400001 	ldr	w1, [x0]
   835d0:	b9001be1 	str	w1, [sp, #24]
   835d4:	b9400401 	ldr	w1, [x0, #4]
   835d8:	b9001fe1 	str	w1, [sp, #28]
   835dc:	b9400800 	ldr	w0, [x0, #8]
   835e0:	b90023e0 	str	w0, [sp, #32]
   835e4:	f0000060 	adrp	x0, 92000 <PROCS+0xa808>
   835e8:	91376002 	add	x2, x0, #0xdd8
   835ec:	b9803be1 	ldrsw	x1, [sp, #56]
   835f0:	aa0103e0 	mov	x0, x1
   835f4:	d37ff800 	lsl	x0, x0, #1
   835f8:	8b010000 	add	x0, x0, x1
   835fc:	d37ef400 	lsl	x0, x0, #2
   83600:	8b000040 	add	x0, x2, x0
   83604:	b9402be1 	ldr	w1, [sp, #40]
   83608:	b9000001 	str	w1, [x0]
   8360c:	b9402fe1 	ldr	w1, [sp, #44]
   83610:	b9000401 	str	w1, [x0, #4]
   83614:	b94033e1 	ldr	w1, [sp, #48]
   83618:	b9000801 	str	w1, [x0, #8]
   8361c:	f9400fe0 	ldr	x0, [sp, #24]
   83620:	f90017e0 	str	x0, [sp, #40]
   83624:	b94023e0 	ldr	w0, [sp, #32]
   83628:	b90033e0 	str	w0, [sp, #48]
   8362c:	b9403be0 	ldr	w0, [sp, #56]
   83630:	11000400 	add	w0, w0, #0x1
   83634:	b9003be0 	str	w0, [sp, #56]
   83638:	b9403be0 	ldr	w0, [sp, #56]
   8363c:	71004c1f 	cmp	w0, #0x13
   83640:	54fff60d 	b.le	83500 <scrSchedule+0x34>
   83644:	d503201f 	nop
   83648:	910103ff 	add	sp, sp, #0x40
   8364c:	d65f03c0 	ret

0000000000083650 <unblock>:
   83650:	d10103ff 	sub	sp, sp, #0x40
   83654:	b9000fe0 	str	w0, [sp, #12]
   83658:	b9000be1 	str	w1, [sp, #8]
   8365c:	b90007e2 	str	w2, [sp, #4]
   83660:	b9400fe0 	ldr	w0, [sp, #12]
   83664:	b9002be0 	str	w0, [sp, #40]
   83668:	b9400be0 	ldr	w0, [sp, #8]
   8366c:	b9002fe0 	str	w0, [sp, #44]
   83670:	b94007e0 	ldr	w0, [sp, #4]
   83674:	b90033e0 	str	w0, [sp, #48]
   83678:	b9003bff 	str	wzr, [sp, #56]
   8367c:	b9003fff 	str	wzr, [sp, #60]
   83680:	14000031 	b	83744 <unblock+0xf4>
   83684:	f0000060 	adrp	x0, 92000 <PROCS+0xa808>
   83688:	91376002 	add	x2, x0, #0xdd8
   8368c:	b9803fe1 	ldrsw	x1, [sp, #60]
   83690:	aa0103e0 	mov	x0, x1
   83694:	d37ff800 	lsl	x0, x0, #1
   83698:	8b010000 	add	x0, x0, x1
   8369c:	d37ef400 	lsl	x0, x0, #2
   836a0:	8b000040 	add	x0, x2, x0
   836a4:	b9400000 	ldr	w0, [x0]
   836a8:	7100001f 	cmp	w0, #0x0
   836ac:	54000540 	b.eq	83754 <unblock+0x104>  // b.none
   836b0:	f0000060 	adrp	x0, 92000 <PROCS+0xa808>
   836b4:	91376002 	add	x2, x0, #0xdd8
   836b8:	b9803fe1 	ldrsw	x1, [sp, #60]
   836bc:	aa0103e0 	mov	x0, x1
   836c0:	d37ff800 	lsl	x0, x0, #1
   836c4:	8b010000 	add	x0, x0, x1
   836c8:	d37ef400 	lsl	x0, x0, #2
   836cc:	8b000040 	add	x0, x2, x0
   836d0:	b9400400 	ldr	w0, [x0, #4]
   836d4:	b9400be1 	ldr	w1, [sp, #8]
   836d8:	6b00003f 	cmp	w1, w0
   836dc:	540002e1 	b.ne	83738 <unblock+0xe8>  // b.any
   836e0:	f0000060 	adrp	x0, 92000 <PROCS+0xa808>
   836e4:	91376002 	add	x2, x0, #0xdd8
   836e8:	b9803fe1 	ldrsw	x1, [sp, #60]
   836ec:	aa0103e0 	mov	x0, x1
   836f0:	d37ff800 	lsl	x0, x0, #1
   836f4:	8b010000 	add	x0, x0, x1
   836f8:	d37ef400 	lsl	x0, x0, #2
   836fc:	8b000040 	add	x0, x2, x0
   83700:	b9400000 	ldr	w0, [x0]
   83704:	b9400fe1 	ldr	w1, [sp, #12]
   83708:	6b00003f 	cmp	w1, w0
   8370c:	54000161 	b.ne	83738 <unblock+0xe8>  // b.any
   83710:	f0000060 	adrp	x0, 92000 <PROCS+0xa808>
   83714:	91376002 	add	x2, x0, #0xdd8
   83718:	b9803fe1 	ldrsw	x1, [sp, #60]
   8371c:	aa0103e0 	mov	x0, x1
   83720:	d37ff800 	lsl	x0, x0, #1
   83724:	8b010000 	add	x0, x0, x1
   83728:	d37ef400 	lsl	x0, x0, #2
   8372c:	8b000040 	add	x0, x2, x0
   83730:	b94007e1 	ldr	w1, [sp, #4]
   83734:	b9000801 	str	w1, [x0, #8]
   83738:	b9403fe0 	ldr	w0, [sp, #60]
   8373c:	11000400 	add	w0, w0, #0x1
   83740:	b9003fe0 	str	w0, [sp, #60]
   83744:	b9403fe0 	ldr	w0, [sp, #60]
   83748:	71004c1f 	cmp	w0, #0x13
   8374c:	54fff9cd 	b.le	83684 <unblock+0x34>
   83750:	14000002 	b	83758 <unblock+0x108>
   83754:	d503201f 	nop
   83758:	910103ff 	add	sp, sp, #0x40
   8375c:	d65f03c0 	ret

0000000000083760 <scrPick>:
   83760:	d10083ff 	sub	sp, sp, #0x20
   83764:	12800000 	mov	w0, #0xffffffff            	// #-1
   83768:	b9001fe0 	str	w0, [sp, #28]
   8376c:	b9001bff 	str	wzr, [sp, #24]
   83770:	b9000bff 	str	wzr, [sp, #8]
   83774:	b9000fff 	str	wzr, [sp, #12]
   83778:	b90013ff 	str	wzr, [sp, #16]
   8377c:	b90017ff 	str	wzr, [sp, #20]
   83780:	14000042 	b	83888 <scrPick+0x128>
   83784:	b9401be0 	ldr	w0, [sp, #24]
   83788:	7100001f 	cmp	w0, #0x0
   8378c:	54000340 	b.eq	837f4 <scrPick+0x94>  // b.none
   83790:	b94017e0 	ldr	w0, [sp, #20]
   83794:	51000401 	sub	w1, w0, #0x1
   83798:	f0000060 	adrp	x0, 92000 <PROCS+0xa808>
   8379c:	91376002 	add	x2, x0, #0xdd8
   837a0:	93407c21 	sxtw	x1, w1
   837a4:	aa0103e0 	mov	x0, x1
   837a8:	d37ff800 	lsl	x0, x0, #1
   837ac:	8b010000 	add	x0, x0, x1
   837b0:	d37ef400 	lsl	x0, x0, #2
   837b4:	8b000041 	add	x1, x2, x0
   837b8:	f0000060 	adrp	x0, 92000 <PROCS+0xa808>
   837bc:	91376003 	add	x3, x0, #0xdd8
   837c0:	b98017e2 	ldrsw	x2, [sp, #20]
   837c4:	aa0203e0 	mov	x0, x2
   837c8:	d37ff800 	lsl	x0, x0, #1
   837cc:	8b020000 	add	x0, x0, x2
   837d0:	d37ef400 	lsl	x0, x0, #2
   837d4:	8b000060 	add	x0, x3, x0
   837d8:	b9400002 	ldr	w2, [x0]
   837dc:	b9000022 	str	w2, [x1]
   837e0:	b9400402 	ldr	w2, [x0, #4]
   837e4:	b9000422 	str	w2, [x1, #4]
   837e8:	b9400800 	ldr	w0, [x0, #8]
   837ec:	b9000820 	str	w0, [x1, #8]
   837f0:	14000023 	b	8387c <scrPick+0x11c>
   837f4:	f0000060 	adrp	x0, 92000 <PROCS+0xa808>
   837f8:	91376002 	add	x2, x0, #0xdd8
   837fc:	b98017e1 	ldrsw	x1, [sp, #20]
   83800:	aa0103e0 	mov	x0, x1
   83804:	d37ff800 	lsl	x0, x0, #1
   83808:	8b010000 	add	x0, x0, x1
   8380c:	d37ef400 	lsl	x0, x0, #2
   83810:	8b000040 	add	x0, x2, x0
   83814:	b9400000 	ldr	w0, [x0]
   83818:	7100001f 	cmp	w0, #0x0
   8381c:	5400030d 	b.le	8387c <scrPick+0x11c>
   83820:	f0000060 	adrp	x0, 92000 <PROCS+0xa808>
   83824:	91376002 	add	x2, x0, #0xdd8
   83828:	b98017e1 	ldrsw	x1, [sp, #20]
   8382c:	aa0103e0 	mov	x0, x1
   83830:	d37ff800 	lsl	x0, x0, #1
   83834:	8b010000 	add	x0, x0, x1
   83838:	d37ef400 	lsl	x0, x0, #2
   8383c:	8b000040 	add	x0, x2, x0
   83840:	b9400800 	ldr	w0, [x0, #8]
   83844:	7100001f 	cmp	w0, #0x0
   83848:	540001a1 	b.ne	8387c <scrPick+0x11c>  // b.any
   8384c:	f0000060 	adrp	x0, 92000 <PROCS+0xa808>
   83850:	91376002 	add	x2, x0, #0xdd8
   83854:	b98017e1 	ldrsw	x1, [sp, #20]
   83858:	aa0103e0 	mov	x0, x1
   8385c:	d37ff800 	lsl	x0, x0, #1
   83860:	8b010000 	add	x0, x0, x1
   83864:	d37ef400 	lsl	x0, x0, #2
   83868:	8b000040 	add	x0, x2, x0
   8386c:	b9400000 	ldr	w0, [x0]
   83870:	b9001fe0 	str	w0, [sp, #28]
   83874:	52800020 	mov	w0, #0x1                   	// #1
   83878:	b9001be0 	str	w0, [sp, #24]
   8387c:	b94017e0 	ldr	w0, [sp, #20]
   83880:	11000400 	add	w0, w0, #0x1
   83884:	b90017e0 	str	w0, [sp, #20]
   83888:	b94017e0 	ldr	w0, [sp, #20]
   8388c:	71004c1f 	cmp	w0, #0x13
   83890:	54fff7ad 	b.le	83784 <scrPick+0x24>
   83894:	b9401be0 	ldr	w0, [sp, #24]
   83898:	7100001f 	cmp	w0, #0x0
   8389c:	54000140 	b.eq	838c4 <scrPick+0x164>  // b.none
   838a0:	f0000060 	adrp	x0, 92000 <PROCS+0xa808>
   838a4:	91376000 	add	x0, x0, #0xdd8
   838a8:	91039000 	add	x0, x0, #0xe4
   838ac:	b9400be1 	ldr	w1, [sp, #8]
   838b0:	b9000001 	str	w1, [x0]
   838b4:	b9400fe1 	ldr	w1, [sp, #12]
   838b8:	b9000401 	str	w1, [x0, #4]
   838bc:	b94013e1 	ldr	w1, [sp, #16]
   838c0:	b9000801 	str	w1, [x0, #8]
   838c4:	b9401fe0 	ldr	w0, [sp, #28]
   838c8:	910083ff 	add	sp, sp, #0x20
   838cc:	d65f03c0 	ret

00000000000838d0 <InitSys>:
   838d0:	d10083ff 	sub	sp, sp, #0x20
   838d4:	f90007e0 	str	x0, [sp, #8]
   838d8:	90000020 	adrp	x0, 87000 <el1_a32_serror+0x80>
   838dc:	911fa000 	add	x0, x0, #0x7e8
   838e0:	f94007e1 	ldr	x1, [sp, #8]
   838e4:	f9000001 	str	x1, [x0]
   838e8:	90000020 	adrp	x0, 87000 <el1_a32_serror+0x80>
   838ec:	911fc000 	add	x0, x0, #0x7f0
   838f0:	b900001f 	str	wzr, [x0]
   838f4:	b9001fff 	str	wzr, [sp, #28]
   838f8:	14000056 	b	83a50 <InitSys+0x180>
   838fc:	90000020 	adrp	x0, 87000 <el1_a32_serror+0x80>
   83900:	911fe001 	add	x1, x0, #0x7f8
   83904:	b9801fe2 	ldrsw	x2, [sp, #28]
   83908:	d2812300 	mov	x0, #0x918                 	// #2328
   8390c:	9b007c40 	mul	x0, x2, x0
   83910:	8b000020 	add	x0, x1, x0
   83914:	f900001f 	str	xzr, [x0]
   83918:	90000020 	adrp	x0, 87000 <el1_a32_serror+0x80>
   8391c:	911fe001 	add	x1, x0, #0x7f8
   83920:	b9801fe2 	ldrsw	x2, [sp, #28]
   83924:	d2812300 	mov	x0, #0x918                 	// #2328
   83928:	9b007c40 	mul	x0, x2, x0
   8392c:	8b000020 	add	x0, x1, x0
   83930:	f900041f 	str	xzr, [x0, #8]
   83934:	90000020 	adrp	x0, 87000 <el1_a32_serror+0x80>
   83938:	911fe001 	add	x1, x0, #0x7f8
   8393c:	b9801fe2 	ldrsw	x2, [sp, #28]
   83940:	d2812300 	mov	x0, #0x918                 	// #2328
   83944:	9b007c40 	mul	x0, x2, x0
   83948:	8b000020 	add	x0, x1, x0
   8394c:	b900101f 	str	wzr, [x0, #16]
   83950:	90000020 	adrp	x0, 87000 <el1_a32_serror+0x80>
   83954:	911fe001 	add	x1, x0, #0x7f8
   83958:	b9801fe2 	ldrsw	x2, [sp, #28]
   8395c:	d2812300 	mov	x0, #0x918                 	// #2328
   83960:	9b007c40 	mul	x0, x2, x0
   83964:	8b000020 	add	x0, x1, x0
   83968:	b900141f 	str	wzr, [x0, #20]
   8396c:	90000020 	adrp	x0, 87000 <el1_a32_serror+0x80>
   83970:	911fe001 	add	x1, x0, #0x7f8
   83974:	b9801fe2 	ldrsw	x2, [sp, #28]
   83978:	d2812300 	mov	x0, #0x918                 	// #2328
   8397c:	9b007c40 	mul	x0, x2, x0
   83980:	8b000020 	add	x0, x1, x0
   83984:	b9001c1f 	str	wzr, [x0, #28]
   83988:	b9001bff 	str	wzr, [sp, #24]
   8398c:	14000010 	b	839cc <InitSys+0xfc>
   83990:	b9401be0 	ldr	w0, [sp, #24]
   83994:	11002800 	add	w0, w0, #0xa
   83998:	93407c02 	sxtw	x2, w0
   8399c:	90000020 	adrp	x0, 87000 <el1_a32_serror+0x80>
   839a0:	911fe000 	add	x0, x0, #0x7f8
   839a4:	b9801be1 	ldrsw	x1, [sp, #24]
   839a8:	b9801fe4 	ldrsw	x4, [sp, #28]
   839ac:	d2802463 	mov	x3, #0x123                 	// #291
   839b0:	9b037c83 	mul	x3, x4, x3
   839b4:	8b010061 	add	x1, x3, x1
   839b8:	91001021 	add	x1, x1, #0x4
   839bc:	f8217802 	str	x2, [x0, x1, lsl #3]
   839c0:	b9401be0 	ldr	w0, [sp, #24]
   839c4:	11000400 	add	w0, w0, #0x1
   839c8:	b9001be0 	str	w0, [sp, #24]
   839cc:	b9401be0 	ldr	w0, [sp, #24]
   839d0:	7100781f 	cmp	w0, #0x1e
   839d4:	54fffded 	b.le	83990 <InitSys+0xc0>
   839d8:	f0000060 	adrp	x0, 92000 <PROCS+0xa808>
   839dc:	91376002 	add	x2, x0, #0xdd8
   839e0:	b9801fe1 	ldrsw	x1, [sp, #28]
   839e4:	aa0103e0 	mov	x0, x1
   839e8:	d37ff800 	lsl	x0, x0, #1
   839ec:	8b010000 	add	x0, x0, x1
   839f0:	d37ef400 	lsl	x0, x0, #2
   839f4:	8b000040 	add	x0, x2, x0
   839f8:	b900001f 	str	wzr, [x0]
   839fc:	f0000060 	adrp	x0, 92000 <PROCS+0xa808>
   83a00:	91376002 	add	x2, x0, #0xdd8
   83a04:	b9801fe1 	ldrsw	x1, [sp, #28]
   83a08:	aa0103e0 	mov	x0, x1
   83a0c:	d37ff800 	lsl	x0, x0, #1
   83a10:	8b010000 	add	x0, x0, x1
   83a14:	d37ef400 	lsl	x0, x0, #2
   83a18:	8b000040 	add	x0, x2, x0
   83a1c:	b900081f 	str	wzr, [x0, #8]
   83a20:	f0000060 	adrp	x0, 92000 <PROCS+0xa808>
   83a24:	91376002 	add	x2, x0, #0xdd8
   83a28:	b9801fe1 	ldrsw	x1, [sp, #28]
   83a2c:	aa0103e0 	mov	x0, x1
   83a30:	d37ff800 	lsl	x0, x0, #1
   83a34:	8b010000 	add	x0, x0, x1
   83a38:	d37ef400 	lsl	x0, x0, #2
   83a3c:	8b000040 	add	x0, x2, x0
   83a40:	b900041f 	str	wzr, [x0, #4]
   83a44:	b9401fe0 	ldr	w0, [sp, #28]
   83a48:	11000400 	add	w0, w0, #0x1
   83a4c:	b9001fe0 	str	w0, [sp, #28]
   83a50:	b9401fe0 	ldr	w0, [sp, #28]
   83a54:	71004c1f 	cmp	w0, #0x13
   83a58:	54fff52d 	b.le	838fc <InitSys+0x2c>
   83a5c:	d503201f 	nop
   83a60:	910083ff 	add	sp, sp, #0x20
   83a64:	d65f03c0 	ret

0000000000083a68 <Handle>:
   83a68:	a9bd7bfd 	stp	x29, x30, [sp, #-48]!
   83a6c:	910003fd 	mov	x29, sp
   83a70:	f9000fe0 	str	x0, [sp, #24]
   83a74:	90000020 	adrp	x0, 87000 <el1_a32_serror+0x80>
   83a78:	911fc000 	add	x0, x0, #0x7f0
   83a7c:	b9400000 	ldr	w0, [x0]
   83a80:	51000400 	sub	w0, w0, #0x1
   83a84:	b9002fe0 	str	w0, [sp, #44]
   83a88:	b9802fe1 	ldrsw	x1, [sp, #44]
   83a8c:	d2812300 	mov	x0, #0x918                 	// #2328
   83a90:	9b007c20 	mul	x0, x1, x0
   83a94:	91008001 	add	x1, x0, #0x20
   83a98:	90000020 	adrp	x0, 87000 <el1_a32_serror+0x80>
   83a9c:	911fe000 	add	x0, x0, #0x7f8
   83aa0:	8b000025 	add	x5, x1, x0
   83aa4:	b9802fe1 	ldrsw	x1, [sp, #44]
   83aa8:	d2812300 	mov	x0, #0x918                 	// #2328
   83aac:	9b007c21 	mul	x1, x1, x0
   83ab0:	90000020 	adrp	x0, 87000 <el1_a32_serror+0x80>
   83ab4:	911fe000 	add	x0, x0, #0x7f8
   83ab8:	8b000020 	add	x0, x1, x0
   83abc:	91002002 	add	x2, x0, #0x8
   83ac0:	b9802fe1 	ldrsw	x1, [sp, #44]
   83ac4:	d2812300 	mov	x0, #0x918                 	// #2328
   83ac8:	9b007c21 	mul	x1, x1, x0
   83acc:	90000020 	adrp	x0, 87000 <el1_a32_serror+0x80>
   83ad0:	911fe000 	add	x0, x0, #0x7f8
   83ad4:	8b000023 	add	x3, x1, x0
   83ad8:	b9802fe1 	ldrsw	x1, [sp, #44]
   83adc:	d2812300 	mov	x0, #0x918                 	// #2328
   83ae0:	9b007c20 	mul	x0, x1, x0
   83ae4:	91004001 	add	x1, x0, #0x10
   83ae8:	90000020 	adrp	x0, 87000 <el1_a32_serror+0x80>
   83aec:	911fe000 	add	x0, x0, #0x7f8
   83af0:	8b000020 	add	x0, x1, x0
   83af4:	aa0003e4 	mov	x4, x0
   83af8:	aa0503e1 	mov	x1, x5
   83afc:	f9400fe0 	ldr	x0, [sp, #24]
   83b00:	940008fa 	bl	85ee8 <Save>
   83b04:	d503201f 	nop
   83b08:	a8c37bfd 	ldp	x29, x30, [sp], #48
   83b0c:	d65f03c0 	ret

0000000000083b10 <dead>:
   83b10:	d10043ff 	sub	sp, sp, #0x10
   83b14:	39003fe0 	strb	w0, [sp, #15]
   83b18:	39c03fe2 	ldrsb	w2, [sp, #15]
   83b1c:	90000020 	adrp	x0, 87000 <el1_a32_serror+0x80>
   83b20:	911fe001 	add	x1, x0, #0x7f8
   83b24:	93407c42 	sxtw	x2, w2
   83b28:	d2812300 	mov	x0, #0x918                 	// #2328
   83b2c:	9b007c40 	mul	x0, x2, x0
   83b30:	8b000020 	add	x0, x1, x0
   83b34:	f9400000 	ldr	x0, [x0]
   83b38:	f100001f 	cmp	x0, #0x0
   83b3c:	540001a1 	b.ne	83b70 <dead+0x60>  // b.any
   83b40:	39c03fe2 	ldrsb	w2, [sp, #15]
   83b44:	90000020 	adrp	x0, 87000 <el1_a32_serror+0x80>
   83b48:	911fe001 	add	x1, x0, #0x7f8
   83b4c:	93407c42 	sxtw	x2, w2
   83b50:	d2812300 	mov	x0, #0x918                 	// #2328
   83b54:	9b007c40 	mul	x0, x2, x0
   83b58:	8b000020 	add	x0, x1, x0
   83b5c:	f9400400 	ldr	x0, [x0, #8]
   83b60:	f100001f 	cmp	x0, #0x0
   83b64:	54000061 	b.ne	83b70 <dead+0x60>  // b.any
   83b68:	52800020 	mov	w0, #0x1                   	// #1
   83b6c:	14000002 	b	83b74 <dead+0x64>
   83b70:	52800000 	mov	w0, #0x0                   	// #0
   83b74:	13001c00 	sxtb	w0, w0
   83b78:	910043ff 	add	sp, sp, #0x10
   83b7c:	d65f03c0 	ret

0000000000083b80 <send_helper>:
   83b80:	a9bc7bfd 	stp	x29, x30, [sp, #-64]!
   83b84:	910003fd 	mov	x29, sp
   83b88:	90000020 	adrp	x0, 87000 <el1_a32_serror+0x80>
   83b8c:	911fc000 	add	x0, x0, #0x7f0
   83b90:	b9400000 	ldr	w0, [x0]
   83b94:	51000400 	sub	w0, w0, #0x1
   83b98:	b9003fe0 	str	w0, [sp, #60]
   83b9c:	90000020 	adrp	x0, 87000 <el1_a32_serror+0x80>
   83ba0:	911fe001 	add	x1, x0, #0x7f8
   83ba4:	b9803fe2 	ldrsw	x2, [sp, #60]
   83ba8:	d2812300 	mov	x0, #0x918                 	// #2328
   83bac:	9b007c40 	mul	x0, x2, x0
   83bb0:	8b000020 	add	x0, x1, x0
   83bb4:	f9401000 	ldr	x0, [x0, #32]
   83bb8:	b9003be0 	str	w0, [sp, #56]
   83bbc:	90000020 	adrp	x0, 87000 <el1_a32_serror+0x80>
   83bc0:	911fe001 	add	x1, x0, #0x7f8
   83bc4:	b9803fe2 	ldrsw	x2, [sp, #60]
   83bc8:	d2812300 	mov	x0, #0x918                 	// #2328
   83bcc:	9b007c40 	mul	x0, x2, x0
   83bd0:	8b000020 	add	x0, x1, x0
   83bd4:	f9401400 	ldr	x0, [x0, #40]
   83bd8:	f9001be0 	str	x0, [sp, #48]
   83bdc:	90000020 	adrp	x0, 87000 <el1_a32_serror+0x80>
   83be0:	911fe001 	add	x1, x0, #0x7f8
   83be4:	b9803fe2 	ldrsw	x2, [sp, #60]
   83be8:	d2812300 	mov	x0, #0x918                 	// #2328
   83bec:	9b007c40 	mul	x0, x2, x0
   83bf0:	8b000020 	add	x0, x1, x0
   83bf4:	f9401800 	ldr	x0, [x0, #48]
   83bf8:	b9002fe0 	str	w0, [sp, #44]
   83bfc:	90000020 	adrp	x0, 87000 <el1_a32_serror+0x80>
   83c00:	911fe001 	add	x1, x0, #0x7f8
   83c04:	b9803fe2 	ldrsw	x2, [sp, #60]
   83c08:	d2812300 	mov	x0, #0x918                 	// #2328
   83c0c:	9b007c40 	mul	x0, x2, x0
   83c10:	8b000020 	add	x0, x1, x0
   83c14:	f9401c00 	ldr	x0, [x0, #56]
   83c18:	f90013e0 	str	x0, [sp, #32]
   83c1c:	90000020 	adrp	x0, 87000 <el1_a32_serror+0x80>
   83c20:	911fe001 	add	x1, x0, #0x7f8
   83c24:	b9803fe2 	ldrsw	x2, [sp, #60]
   83c28:	d2812300 	mov	x0, #0x918                 	// #2328
   83c2c:	9b007c40 	mul	x0, x2, x0
   83c30:	8b000020 	add	x0, x1, x0
   83c34:	f9402000 	ldr	x0, [x0, #64]
   83c38:	b9001fe0 	str	w0, [sp, #28]
   83c3c:	90000020 	adrp	x0, 87000 <el1_a32_serror+0x80>
   83c40:	911fe001 	add	x1, x0, #0x7f8
   83c44:	b9803fe2 	ldrsw	x2, [sp, #60]
   83c48:	d2812300 	mov	x0, #0x918                 	// #2328
   83c4c:	9b007c40 	mul	x0, x2, x0
   83c50:	8b000020 	add	x0, x1, x0
   83c54:	b9403be1 	ldr	w1, [sp, #56]
   83c58:	b9011801 	str	w1, [x0, #280]
   83c5c:	90000020 	adrp	x0, 87000 <el1_a32_serror+0x80>
   83c60:	911fe001 	add	x1, x0, #0x7f8
   83c64:	b9803fe2 	ldrsw	x2, [sp, #60]
   83c68:	d2812300 	mov	x0, #0x918                 	// #2328
   83c6c:	9b007c40 	mul	x0, x2, x0
   83c70:	8b000020 	add	x0, x1, x0
   83c74:	f9401be1 	ldr	x1, [sp, #48]
   83c78:	f9009001 	str	x1, [x0, #288]
   83c7c:	90000020 	adrp	x0, 87000 <el1_a32_serror+0x80>
   83c80:	911fe001 	add	x1, x0, #0x7f8
   83c84:	b9803fe2 	ldrsw	x2, [sp, #60]
   83c88:	d2812300 	mov	x0, #0x918                 	// #2328
   83c8c:	9b007c40 	mul	x0, x2, x0
   83c90:	8b000020 	add	x0, x1, x0
   83c94:	b9402fe1 	ldr	w1, [sp, #44]
   83c98:	b9012801 	str	w1, [x0, #296]
   83c9c:	90000020 	adrp	x0, 87000 <el1_a32_serror+0x80>
   83ca0:	911fe001 	add	x1, x0, #0x7f8
   83ca4:	b9803fe2 	ldrsw	x2, [sp, #60]
   83ca8:	d2812300 	mov	x0, #0x918                 	// #2328
   83cac:	9b007c40 	mul	x0, x2, x0
   83cb0:	8b000020 	add	x0, x1, x0
   83cb4:	f94013e1 	ldr	x1, [sp, #32]
   83cb8:	f9009801 	str	x1, [x0, #304]
   83cbc:	90000020 	adrp	x0, 87000 <el1_a32_serror+0x80>
   83cc0:	911fe001 	add	x1, x0, #0x7f8
   83cc4:	b9803fe2 	ldrsw	x2, [sp, #60]
   83cc8:	d2812300 	mov	x0, #0x918                 	// #2328
   83ccc:	9b007c40 	mul	x0, x2, x0
   83cd0:	8b000020 	add	x0, x1, x0
   83cd4:	b9401fe1 	ldr	w1, [sp, #28]
   83cd8:	b9013801 	str	w1, [x0, #312]
   83cdc:	90000020 	adrp	x0, 87000 <el1_a32_serror+0x80>
   83ce0:	911fe001 	add	x1, x0, #0x7f8
   83ce4:	b9803fe2 	ldrsw	x2, [sp, #60]
   83ce8:	d2812300 	mov	x0, #0x918                 	// #2328
   83cec:	9b007c40 	mul	x0, x2, x0
   83cf0:	8b000020 	add	x0, x1, x0
   83cf4:	52800021 	mov	w1, #0x1                   	// #1
   83cf8:	39244801 	strb	w1, [x0, #2322]
   83cfc:	b9403be0 	ldr	w0, [sp, #56]
   83d00:	51000400 	sub	w0, w0, #0x1
   83d04:	b9003fe0 	str	w0, [sp, #60]
   83d08:	90000020 	adrp	x0, 87000 <el1_a32_serror+0x80>
   83d0c:	911fe001 	add	x1, x0, #0x7f8
   83d10:	b9803fe2 	ldrsw	x2, [sp, #60]
   83d14:	d2812300 	mov	x0, #0x918                 	// #2328
   83d18:	9b007c40 	mul	x0, x2, x0
   83d1c:	8b000020 	add	x0, x1, x0
   83d20:	39644400 	ldrb	w0, [x0, #2321]
   83d24:	b9001be0 	str	w0, [sp, #24]
   83d28:	90000020 	adrp	x0, 87000 <el1_a32_serror+0x80>
   83d2c:	911fc000 	add	x0, x0, #0x7f0
   83d30:	b9400002 	ldr	w2, [x0]
   83d34:	90000020 	adrp	x0, 87000 <el1_a32_serror+0x80>
   83d38:	911fe003 	add	x3, x0, #0x7f8
   83d3c:	b9801be1 	ldrsw	x1, [sp, #24]
   83d40:	b9803fe4 	ldrsw	x4, [sp, #60]
   83d44:	aa0103e0 	mov	x0, x1
   83d48:	d37ef400 	lsl	x0, x0, #2
   83d4c:	8b010000 	add	x0, x0, x1
   83d50:	d37df000 	lsl	x0, x0, #3
   83d54:	d2812301 	mov	x1, #0x918                 	// #2328
   83d58:	9b017c81 	mul	x1, x4, x1
   83d5c:	8b010000 	add	x0, x0, x1
   83d60:	8b000060 	add	x0, x3, x0
   83d64:	b9014002 	str	w2, [x0, #320]
   83d68:	90000020 	adrp	x0, 87000 <el1_a32_serror+0x80>
   83d6c:	911fe002 	add	x2, x0, #0x7f8
   83d70:	b9801be1 	ldrsw	x1, [sp, #24]
   83d74:	b9803fe3 	ldrsw	x3, [sp, #60]
   83d78:	aa0103e0 	mov	x0, x1
   83d7c:	d37ef400 	lsl	x0, x0, #2
   83d80:	8b010000 	add	x0, x0, x1
   83d84:	d37df000 	lsl	x0, x0, #3
   83d88:	d2812301 	mov	x1, #0x918                 	// #2328
   83d8c:	9b017c61 	mul	x1, x3, x1
   83d90:	8b010000 	add	x0, x0, x1
   83d94:	8b000040 	add	x0, x2, x0
   83d98:	f9401be1 	ldr	x1, [sp, #48]
   83d9c:	f900a401 	str	x1, [x0, #328]
   83da0:	90000020 	adrp	x0, 87000 <el1_a32_serror+0x80>
   83da4:	911fe002 	add	x2, x0, #0x7f8
   83da8:	b9801be1 	ldrsw	x1, [sp, #24]
   83dac:	b9803fe3 	ldrsw	x3, [sp, #60]
   83db0:	aa0103e0 	mov	x0, x1
   83db4:	d37ef400 	lsl	x0, x0, #2
   83db8:	8b010000 	add	x0, x0, x1
   83dbc:	d37df000 	lsl	x0, x0, #3
   83dc0:	d2812301 	mov	x1, #0x918                 	// #2328
   83dc4:	9b017c61 	mul	x1, x3, x1
   83dc8:	8b010000 	add	x0, x0, x1
   83dcc:	8b000040 	add	x0, x2, x0
   83dd0:	b9402fe1 	ldr	w1, [sp, #44]
   83dd4:	b9015001 	str	w1, [x0, #336]
   83dd8:	90000020 	adrp	x0, 87000 <el1_a32_serror+0x80>
   83ddc:	911fe002 	add	x2, x0, #0x7f8
   83de0:	b9801be1 	ldrsw	x1, [sp, #24]
   83de4:	b9803fe3 	ldrsw	x3, [sp, #60]
   83de8:	aa0103e0 	mov	x0, x1
   83dec:	d37ef400 	lsl	x0, x0, #2
   83df0:	8b010000 	add	x0, x0, x1
   83df4:	d37df000 	lsl	x0, x0, #3
   83df8:	d2812301 	mov	x1, #0x918                 	// #2328
   83dfc:	9b017c61 	mul	x1, x3, x1
   83e00:	8b010000 	add	x0, x0, x1
   83e04:	8b000040 	add	x0, x2, x0
   83e08:	f94013e1 	ldr	x1, [sp, #32]
   83e0c:	f900ac01 	str	x1, [x0, #344]
   83e10:	90000020 	adrp	x0, 87000 <el1_a32_serror+0x80>
   83e14:	911fe002 	add	x2, x0, #0x7f8
   83e18:	b9801be1 	ldrsw	x1, [sp, #24]
   83e1c:	b9803fe3 	ldrsw	x3, [sp, #60]
   83e20:	aa0103e0 	mov	x0, x1
   83e24:	d37ef400 	lsl	x0, x0, #2
   83e28:	8b010000 	add	x0, x0, x1
   83e2c:	d37df000 	lsl	x0, x0, #3
   83e30:	d2812301 	mov	x1, #0x918                 	// #2328
   83e34:	9b017c61 	mul	x1, x3, x1
   83e38:	8b010000 	add	x0, x0, x1
   83e3c:	8b000040 	add	x0, x2, x0
   83e40:	b9401fe1 	ldr	w1, [sp, #28]
   83e44:	b9016001 	str	w1, [x0, #352]
   83e48:	90000020 	adrp	x0, 87000 <el1_a32_serror+0x80>
   83e4c:	911fe001 	add	x1, x0, #0x7f8
   83e50:	b9803fe2 	ldrsw	x2, [sp, #60]
   83e54:	d2812300 	mov	x0, #0x918                 	// #2328
   83e58:	9b007c40 	mul	x0, x2, x0
   83e5c:	8b000020 	add	x0, x1, x0
   83e60:	39644400 	ldrb	w0, [x0, #2321]
   83e64:	11000400 	add	w0, w0, #0x1
   83e68:	12001c03 	and	w3, w0, #0xff
   83e6c:	90000020 	adrp	x0, 87000 <el1_a32_serror+0x80>
   83e70:	911fe001 	add	x1, x0, #0x7f8
   83e74:	b9803fe2 	ldrsw	x2, [sp, #60]
   83e78:	d2812300 	mov	x0, #0x918                 	// #2328
   83e7c:	9b007c40 	mul	x0, x2, x0
   83e80:	8b000020 	add	x0, x1, x0
   83e84:	2a0303e1 	mov	w1, w3
   83e88:	39244401 	strb	w1, [x0, #2321]
   83e8c:	90000020 	adrp	x0, 87000 <el1_a32_serror+0x80>
   83e90:	911fe001 	add	x1, x0, #0x7f8
   83e94:	b9803fe2 	ldrsw	x2, [sp, #60]
   83e98:	d2812300 	mov	x0, #0x918                 	// #2328
   83e9c:	9b007c40 	mul	x0, x2, x0
   83ea0:	8b000020 	add	x0, x1, x0
   83ea4:	39644400 	ldrb	w0, [x0, #2321]
   83ea8:	5290a3e1 	mov	w1, #0x851f                	// #34079
   83eac:	72aa3d61 	movk	w1, #0x51eb, lsl #16
   83eb0:	9ba17c01 	umull	x1, w0, w1
   83eb4:	d360fc21 	lsr	x1, x1, #32
   83eb8:	53047c22 	lsr	w2, w1, #4
   83ebc:	52800641 	mov	w1, #0x32                  	// #50
   83ec0:	1b017c41 	mul	w1, w2, w1
   83ec4:	4b010000 	sub	w0, w0, w1
   83ec8:	12001c03 	and	w3, w0, #0xff
   83ecc:	90000020 	adrp	x0, 87000 <el1_a32_serror+0x80>
   83ed0:	911fe001 	add	x1, x0, #0x7f8
   83ed4:	b9803fe2 	ldrsw	x2, [sp, #60]
   83ed8:	d2812300 	mov	x0, #0x918                 	// #2328
   83edc:	9b007c40 	mul	x0, x2, x0
   83ee0:	8b000020 	add	x0, x1, x0
   83ee4:	2a0303e1 	mov	w1, w3
   83ee8:	39244401 	strb	w1, [x0, #2321]
   83eec:	90000020 	adrp	x0, 87000 <el1_a32_serror+0x80>
   83ef0:	911fe001 	add	x1, x0, #0x7f8
   83ef4:	b9803fe2 	ldrsw	x2, [sp, #60]
   83ef8:	d2812300 	mov	x0, #0x918                 	// #2328
   83efc:	9b007c40 	mul	x0, x2, x0
   83f00:	8b000020 	add	x0, x1, x0
   83f04:	39644c00 	ldrb	w0, [x0, #2323]
   83f08:	7100041f 	cmp	w0, #0x1
   83f0c:	540000c1 	b.ne	83f24 <send_helper+0x3a4>  // b.any
   83f10:	b9403be0 	ldr	w0, [sp, #56]
   83f14:	51000400 	sub	w0, w0, #0x1
   83f18:	b9003fe0 	str	w0, [sp, #60]
   83f1c:	b9403be0 	ldr	w0, [sp, #56]
   83f20:	94000004 	bl	83f30 <recieve_helper>
   83f24:	d503201f 	nop
   83f28:	a8c47bfd 	ldp	x29, x30, [sp], #64
   83f2c:	d65f03c0 	ret

0000000000083f30 <recieve_helper>:
   83f30:	a9ba7bfd 	stp	x29, x30, [sp, #-96]!
   83f34:	910003fd 	mov	x29, sp
   83f38:	b9001fe0 	str	w0, [sp, #28]
   83f3c:	b9401fe0 	ldr	w0, [sp, #28]
   83f40:	51000402 	sub	w2, w0, #0x1
   83f44:	90000020 	adrp	x0, 87000 <el1_a32_serror+0x80>
   83f48:	911fe001 	add	x1, x0, #0x7f8
   83f4c:	93407c42 	sxtw	x2, w2
   83f50:	d2812300 	mov	x0, #0x918                 	// #2328
   83f54:	9b007c40 	mul	x0, x2, x0
   83f58:	8b000020 	add	x0, x1, x0
   83f5c:	39644000 	ldrb	w0, [x0, #2320]
   83f60:	b9005fe0 	str	w0, [sp, #92]
   83f64:	b9401fe0 	ldr	w0, [sp, #28]
   83f68:	51000402 	sub	w2, w0, #0x1
   83f6c:	90000020 	adrp	x0, 87000 <el1_a32_serror+0x80>
   83f70:	911fe001 	add	x1, x0, #0x7f8
   83f74:	93407c42 	sxtw	x2, w2
   83f78:	d2812300 	mov	x0, #0x918                 	// #2328
   83f7c:	9b007c40 	mul	x0, x2, x0
   83f80:	8b000020 	add	x0, x1, x0
   83f84:	39644400 	ldrb	w0, [x0, #2321]
   83f88:	b9005be0 	str	w0, [sp, #88]
   83f8c:	b9401fe0 	ldr	w0, [sp, #28]
   83f90:	51000402 	sub	w2, w0, #0x1
   83f94:	90000020 	adrp	x0, 87000 <el1_a32_serror+0x80>
   83f98:	911fe001 	add	x1, x0, #0x7f8
   83f9c:	93407c42 	sxtw	x2, w2
   83fa0:	d2812300 	mov	x0, #0x918                 	// #2328
   83fa4:	9b007c40 	mul	x0, x2, x0
   83fa8:	8b000020 	add	x0, x1, x0
   83fac:	f9401000 	ldr	x0, [x0, #32]
   83fb0:	f9002be0 	str	x0, [sp, #80]
   83fb4:	b9401fe0 	ldr	w0, [sp, #28]
   83fb8:	51000402 	sub	w2, w0, #0x1
   83fbc:	90000020 	adrp	x0, 87000 <el1_a32_serror+0x80>
   83fc0:	911fe001 	add	x1, x0, #0x7f8
   83fc4:	93407c42 	sxtw	x2, w2
   83fc8:	d2812300 	mov	x0, #0x918                 	// #2328
   83fcc:	9b007c40 	mul	x0, x2, x0
   83fd0:	8b000020 	add	x0, x1, x0
   83fd4:	f9401400 	ldr	x0, [x0, #40]
   83fd8:	f90027e0 	str	x0, [sp, #72]
   83fdc:	b9401fe0 	ldr	w0, [sp, #28]
   83fe0:	51000402 	sub	w2, w0, #0x1
   83fe4:	90000020 	adrp	x0, 87000 <el1_a32_serror+0x80>
   83fe8:	911fe001 	add	x1, x0, #0x7f8
   83fec:	93407c42 	sxtw	x2, w2
   83ff0:	d2812300 	mov	x0, #0x918                 	// #2328
   83ff4:	9b007c40 	mul	x0, x2, x0
   83ff8:	8b000020 	add	x0, x1, x0
   83ffc:	f9401800 	ldr	x0, [x0, #48]
   84000:	b90047e0 	str	w0, [sp, #68]
   84004:	b9405fe1 	ldr	w1, [sp, #92]
   84008:	b9405be0 	ldr	w0, [sp, #88]
   8400c:	6b00003f 	cmp	w1, w0
   84010:	54000181 	b.ne	84040 <recieve_helper+0x110>  // b.any
   84014:	b9401fe0 	ldr	w0, [sp, #28]
   84018:	51000402 	sub	w2, w0, #0x1
   8401c:	f0000000 	adrp	x0, 87000 <el1_a32_serror+0x80>
   84020:	911fe001 	add	x1, x0, #0x7f8
   84024:	93407c42 	sxtw	x2, w2
   84028:	d2812300 	mov	x0, #0x918                 	// #2328
   8402c:	9b007c40 	mul	x0, x2, x0
   84030:	8b000020 	add	x0, x1, x0
   84034:	52800021 	mov	w1, #0x1                   	// #1
   84038:	39244c01 	strb	w1, [x0, #2323]
   8403c:	14000084 	b	8424c <recieve_helper+0x31c>
   84040:	b9401fe0 	ldr	w0, [sp, #28]
   84044:	51000402 	sub	w2, w0, #0x1
   84048:	f0000000 	adrp	x0, 87000 <el1_a32_serror+0x80>
   8404c:	911fe001 	add	x1, x0, #0x7f8
   84050:	93407c42 	sxtw	x2, w2
   84054:	d2812300 	mov	x0, #0x918                 	// #2328
   84058:	9b007c40 	mul	x0, x2, x0
   8405c:	8b000020 	add	x0, x1, x0
   84060:	39244c1f 	strb	wzr, [x0, #2323]
   84064:	b9401fe0 	ldr	w0, [sp, #28]
   84068:	51000400 	sub	w0, w0, #0x1
   8406c:	b90043e0 	str	w0, [sp, #64]
   84070:	f0000000 	adrp	x0, 87000 <el1_a32_serror+0x80>
   84074:	911fe002 	add	x2, x0, #0x7f8
   84078:	b9805fe1 	ldrsw	x1, [sp, #92]
   8407c:	b98043e3 	ldrsw	x3, [sp, #64]
   84080:	aa0103e0 	mov	x0, x1
   84084:	d37ef400 	lsl	x0, x0, #2
   84088:	8b010000 	add	x0, x0, x1
   8408c:	d37df000 	lsl	x0, x0, #3
   84090:	d2812301 	mov	x1, #0x918                 	// #2328
   84094:	9b017c61 	mul	x1, x3, x1
   84098:	8b010000 	add	x0, x0, x1
   8409c:	8b000040 	add	x0, x2, x0
   840a0:	b9415000 	ldr	w0, [x0, #336]
   840a4:	b9003fe0 	str	w0, [sp, #60]
   840a8:	f0000000 	adrp	x0, 87000 <el1_a32_serror+0x80>
   840ac:	911fe002 	add	x2, x0, #0x7f8
   840b0:	b9805fe1 	ldrsw	x1, [sp, #92]
   840b4:	b98043e3 	ldrsw	x3, [sp, #64]
   840b8:	aa0103e0 	mov	x0, x1
   840bc:	d37ef400 	lsl	x0, x0, #2
   840c0:	8b010000 	add	x0, x0, x1
   840c4:	d37df000 	lsl	x0, x0, #3
   840c8:	d2812301 	mov	x1, #0x918                 	// #2328
   840cc:	9b017c61 	mul	x1, x3, x1
   840d0:	8b010000 	add	x0, x0, x1
   840d4:	8b000040 	add	x0, x2, x0
   840d8:	f940a400 	ldr	x0, [x0, #328]
   840dc:	f9001be0 	str	x0, [sp, #48]
   840e0:	f0000000 	adrp	x0, 87000 <el1_a32_serror+0x80>
   840e4:	911fe002 	add	x2, x0, #0x7f8
   840e8:	b9805fe1 	ldrsw	x1, [sp, #92]
   840ec:	b98043e3 	ldrsw	x3, [sp, #64]
   840f0:	aa0103e0 	mov	x0, x1
   840f4:	d37ef400 	lsl	x0, x0, #2
   840f8:	8b010000 	add	x0, x0, x1
   840fc:	d37df000 	lsl	x0, x0, #3
   84100:	d2812301 	mov	x1, #0x918                 	// #2328
   84104:	9b017c61 	mul	x1, x3, x1
   84108:	8b010000 	add	x0, x0, x1
   8410c:	8b000040 	add	x0, x2, x0
   84110:	b9414000 	ldr	w0, [x0, #320]
   84114:	b9002fe0 	str	w0, [sp, #44]
   84118:	f9402be0 	ldr	x0, [sp, #80]
   8411c:	b9402fe1 	ldr	w1, [sp, #44]
   84120:	b9000001 	str	w1, [x0]
   84124:	b94047e0 	ldr	w0, [sp, #68]
   84128:	51000401 	sub	w1, w0, #0x1
   8412c:	b9403fe0 	ldr	w0, [sp, #60]
   84130:	51000400 	sub	w0, w0, #0x1
   84134:	2a0003e3 	mov	w3, w0
   84138:	f9401be2 	ldr	x2, [sp, #48]
   8413c:	f94027e0 	ldr	x0, [sp, #72]
   84140:	97fff2d4 	bl	80c90 <cust_strcpy>
   84144:	11000400 	add	w0, w0, #0x1
   84148:	b90047e0 	str	w0, [sp, #68]
   8414c:	f0000000 	adrp	x0, 87000 <el1_a32_serror+0x80>
   84150:	911fe001 	add	x1, x0, #0x7f8
   84154:	b98043e2 	ldrsw	x2, [sp, #64]
   84158:	d2812300 	mov	x0, #0x918                 	// #2328
   8415c:	9b007c40 	mul	x0, x2, x0
   84160:	8b000020 	add	x0, x1, x0
   84164:	39644000 	ldrb	w0, [x0, #2320]
   84168:	11000400 	add	w0, w0, #0x1
   8416c:	12001c03 	and	w3, w0, #0xff
   84170:	f0000000 	adrp	x0, 87000 <el1_a32_serror+0x80>
   84174:	911fe001 	add	x1, x0, #0x7f8
   84178:	b98043e2 	ldrsw	x2, [sp, #64]
   8417c:	d2812300 	mov	x0, #0x918                 	// #2328
   84180:	9b007c40 	mul	x0, x2, x0
   84184:	8b000020 	add	x0, x1, x0
   84188:	2a0303e1 	mov	w1, w3
   8418c:	39244001 	strb	w1, [x0, #2320]
   84190:	f0000000 	adrp	x0, 87000 <el1_a32_serror+0x80>
   84194:	911fe001 	add	x1, x0, #0x7f8
   84198:	b98043e2 	ldrsw	x2, [sp, #64]
   8419c:	d2812300 	mov	x0, #0x918                 	// #2328
   841a0:	9b007c40 	mul	x0, x2, x0
   841a4:	8b000020 	add	x0, x1, x0
   841a8:	39644000 	ldrb	w0, [x0, #2320]
   841ac:	5290a3e1 	mov	w1, #0x851f                	// #34079
   841b0:	72aa3d61 	movk	w1, #0x51eb, lsl #16
   841b4:	9ba17c01 	umull	x1, w0, w1
   841b8:	d360fc21 	lsr	x1, x1, #32
   841bc:	53047c22 	lsr	w2, w1, #4
   841c0:	52800641 	mov	w1, #0x32                  	// #50
   841c4:	1b017c41 	mul	w1, w2, w1
   841c8:	4b010000 	sub	w0, w0, w1
   841cc:	12001c03 	and	w3, w0, #0xff
   841d0:	f0000000 	adrp	x0, 87000 <el1_a32_serror+0x80>
   841d4:	911fe001 	add	x1, x0, #0x7f8
   841d8:	b98043e2 	ldrsw	x2, [sp, #64]
   841dc:	d2812300 	mov	x0, #0x918                 	// #2328
   841e0:	9b007c40 	mul	x0, x2, x0
   841e4:	8b000020 	add	x0, x1, x0
   841e8:	2a0303e1 	mov	w1, w3
   841ec:	39244001 	strb	w1, [x0, #2320]
   841f0:	b9401fe0 	ldr	w0, [sp, #28]
   841f4:	51000402 	sub	w2, w0, #0x1
   841f8:	f0000000 	adrp	x0, 87000 <el1_a32_serror+0x80>
   841fc:	911fe001 	add	x1, x0, #0x7f8
   84200:	93407c42 	sxtw	x2, w2
   84204:	d2812300 	mov	x0, #0x918                 	// #2328
   84208:	9b007c40 	mul	x0, x2, x0
   8420c:	8b000020 	add	x0, x1, x0
   84210:	b9401c00 	ldr	w0, [x0, #28]
   84214:	52800002 	mov	w2, #0x0                   	// #0
   84218:	2a0003e1 	mov	w1, w0
   8421c:	b9401fe0 	ldr	w0, [sp, #28]
   84220:	97fffd0c 	bl	83650 <unblock>
   84224:	b9401fe0 	ldr	w0, [sp, #28]
   84228:	51000403 	sub	w3, w0, #0x1
   8422c:	b98047e1 	ldrsw	x1, [sp, #68]
   84230:	f0000000 	adrp	x0, 87000 <el1_a32_serror+0x80>
   84234:	911fe002 	add	x2, x0, #0x7f8
   84238:	93407c63 	sxtw	x3, w3
   8423c:	d2812300 	mov	x0, #0x918                 	// #2328
   84240:	9b007c60 	mul	x0, x3, x0
   84244:	8b000040 	add	x0, x2, x0
   84248:	f9001001 	str	x1, [x0, #32]
   8424c:	a8c67bfd 	ldp	x29, x30, [sp], #96
   84250:	d65f03c0 	ret

0000000000084254 <reply_helper>:
   84254:	a9bc7bfd 	stp	x29, x30, [sp, #-64]!
   84258:	910003fd 	mov	x29, sp
   8425c:	f0000000 	adrp	x0, 87000 <el1_a32_serror+0x80>
   84260:	911fc000 	add	x0, x0, #0x7f0
   84264:	b9400000 	ldr	w0, [x0]
   84268:	51000400 	sub	w0, w0, #0x1
   8426c:	b9003fe0 	str	w0, [sp, #60]
   84270:	f0000000 	adrp	x0, 87000 <el1_a32_serror+0x80>
   84274:	911fe001 	add	x1, x0, #0x7f8
   84278:	b9803fe2 	ldrsw	x2, [sp, #60]
   8427c:	d2812300 	mov	x0, #0x918                 	// #2328
   84280:	9b007c40 	mul	x0, x2, x0
   84284:	8b000020 	add	x0, x1, x0
   84288:	f9401000 	ldr	x0, [x0, #32]
   8428c:	b9003be0 	str	w0, [sp, #56]
   84290:	f0000000 	adrp	x0, 87000 <el1_a32_serror+0x80>
   84294:	911fe001 	add	x1, x0, #0x7f8
   84298:	b9803fe2 	ldrsw	x2, [sp, #60]
   8429c:	d2812300 	mov	x0, #0x918                 	// #2328
   842a0:	9b007c40 	mul	x0, x2, x0
   842a4:	8b000020 	add	x0, x1, x0
   842a8:	f9401400 	ldr	x0, [x0, #40]
   842ac:	f9001be0 	str	x0, [sp, #48]
   842b0:	f0000000 	adrp	x0, 87000 <el1_a32_serror+0x80>
   842b4:	911fe001 	add	x1, x0, #0x7f8
   842b8:	b9803fe2 	ldrsw	x2, [sp, #60]
   842bc:	d2812300 	mov	x0, #0x918                 	// #2328
   842c0:	9b007c40 	mul	x0, x2, x0
   842c4:	8b000020 	add	x0, x1, x0
   842c8:	f9401800 	ldr	x0, [x0, #48]
   842cc:	b9002fe0 	str	w0, [sp, #44]
   842d0:	b9403be0 	ldr	w0, [sp, #56]
   842d4:	51000402 	sub	w2, w0, #0x1
   842d8:	f0000000 	adrp	x0, 87000 <el1_a32_serror+0x80>
   842dc:	911fe001 	add	x1, x0, #0x7f8
   842e0:	93407c42 	sxtw	x2, w2
   842e4:	d2812300 	mov	x0, #0x918                 	// #2328
   842e8:	9b007c40 	mul	x0, x2, x0
   842ec:	8b000020 	add	x0, x1, x0
   842f0:	f9409800 	ldr	x0, [x0, #304]
   842f4:	f90013e0 	str	x0, [sp, #32]
   842f8:	b9403be0 	ldr	w0, [sp, #56]
   842fc:	51000402 	sub	w2, w0, #0x1
   84300:	f0000000 	adrp	x0, 87000 <el1_a32_serror+0x80>
   84304:	911fe001 	add	x1, x0, #0x7f8
   84308:	93407c42 	sxtw	x2, w2
   8430c:	d2812300 	mov	x0, #0x918                 	// #2328
   84310:	9b007c40 	mul	x0, x2, x0
   84314:	8b000020 	add	x0, x1, x0
   84318:	b9413800 	ldr	w0, [x0, #312]
   8431c:	b9001fe0 	str	w0, [sp, #28]
   84320:	b9001bff 	str	wzr, [sp, #24]
   84324:	b9401fe0 	ldr	w0, [sp, #28]
   84328:	51000401 	sub	w1, w0, #0x1
   8432c:	b9402fe0 	ldr	w0, [sp, #44]
   84330:	51000400 	sub	w0, w0, #0x1
   84334:	2a0003e3 	mov	w3, w0
   84338:	f9401be2 	ldr	x2, [sp, #48]
   8433c:	f94013e0 	ldr	x0, [sp, #32]
   84340:	97fff254 	bl	80c90 <cust_strcpy>
   84344:	11000400 	add	w0, w0, #0x1
   84348:	b9002fe0 	str	w0, [sp, #44]
   8434c:	b9403be0 	ldr	w0, [sp, #56]
   84350:	51000402 	sub	w2, w0, #0x1
   84354:	f0000000 	adrp	x0, 87000 <el1_a32_serror+0x80>
   84358:	911fe001 	add	x1, x0, #0x7f8
   8435c:	93407c42 	sxtw	x2, w2
   84360:	d2812300 	mov	x0, #0x918                 	// #2328
   84364:	9b007c40 	mul	x0, x2, x0
   84368:	8b000020 	add	x0, x1, x0
   8436c:	b9401c00 	ldr	w0, [x0, #28]
   84370:	52800002 	mov	w2, #0x0                   	// #0
   84374:	2a0003e1 	mov	w1, w0
   84378:	b9403be0 	ldr	w0, [sp, #56]
   8437c:	97fffcb5 	bl	83650 <unblock>
   84380:	b9403be0 	ldr	w0, [sp, #56]
   84384:	51000403 	sub	w3, w0, #0x1
   84388:	b9802fe1 	ldrsw	x1, [sp, #44]
   8438c:	f0000000 	adrp	x0, 87000 <el1_a32_serror+0x80>
   84390:	911fe002 	add	x2, x0, #0x7f8
   84394:	93407c63 	sxtw	x3, w3
   84398:	d2812300 	mov	x0, #0x918                 	// #2328
   8439c:	9b007c60 	mul	x0, x3, x0
   843a0:	8b000040 	add	x0, x2, x0
   843a4:	f9001001 	str	x1, [x0, #32]
   843a8:	b9403be0 	ldr	w0, [sp, #56]
   843ac:	51000402 	sub	w2, w0, #0x1
   843b0:	f0000000 	adrp	x0, 87000 <el1_a32_serror+0x80>
   843b4:	911fe001 	add	x1, x0, #0x7f8
   843b8:	93407c42 	sxtw	x2, w2
   843bc:	d2812300 	mov	x0, #0x918                 	// #2328
   843c0:	9b007c40 	mul	x0, x2, x0
   843c4:	8b000020 	add	x0, x1, x0
   843c8:	3924481f 	strb	wzr, [x0, #2322]
   843cc:	f0000000 	adrp	x0, 87000 <el1_a32_serror+0x80>
   843d0:	911fc000 	add	x0, x0, #0x7f0
   843d4:	b9400000 	ldr	w0, [x0]
   843d8:	51000403 	sub	w3, w0, #0x1
   843dc:	b9802fe1 	ldrsw	x1, [sp, #44]
   843e0:	f0000000 	adrp	x0, 87000 <el1_a32_serror+0x80>
   843e4:	911fe002 	add	x2, x0, #0x7f8
   843e8:	93407c63 	sxtw	x3, w3
   843ec:	d2812300 	mov	x0, #0x918                 	// #2328
   843f0:	9b007c60 	mul	x0, x3, x0
   843f4:	8b000040 	add	x0, x2, x0
   843f8:	f9001001 	str	x1, [x0, #32]
   843fc:	d503201f 	nop
   84400:	a8c47bfd 	ldp	x29, x30, [sp], #64
   84404:	d65f03c0 	ret

0000000000084408 <Exception>:
   84408:	a9bc7bfd 	stp	x29, x30, [sp, #-64]!
   8440c:	910003fd 	mov	x29, sp
   84410:	f9000fe0 	str	x0, [sp, #24]
   84414:	f0000000 	adrp	x0, 87000 <el1_a32_serror+0x80>
   84418:	911fc000 	add	x0, x0, #0x7f0
   8441c:	b9400000 	ldr	w0, [x0]
   84420:	51000400 	sub	w0, w0, #0x1
   84424:	b90033e0 	str	w0, [sp, #48]
   84428:	f9400fe0 	ldr	x0, [sp, #24]
   8442c:	d358fc00 	lsr	x0, x0, #24
   84430:	f101581f 	cmp	x0, #0x56
   84434:	54003501 	b.ne	84ad4 <Exception+0x6cc>  // b.any
   84438:	f9400fe0 	ldr	x0, [sp, #24]
   8443c:	12005c00 	and	w0, w0, #0xffffff
   84440:	b9002fe0 	str	w0, [sp, #44]
   84444:	b9402fe0 	ldr	w0, [sp, #44]
   84448:	7100201f 	cmp	w0, #0x8
   8444c:	54003060 	b.eq	84a58 <Exception+0x650>  // b.none
   84450:	b9402fe0 	ldr	w0, [sp, #44]
   84454:	7100201f 	cmp	w0, #0x8
   84458:	540033cc 	b.gt	84ad0 <Exception+0x6c8>
   8445c:	b9402fe0 	ldr	w0, [sp, #44]
   84460:	71001c1f 	cmp	w0, #0x7
   84464:	540027e0 	b.eq	84960 <Exception+0x558>  // b.none
   84468:	b9402fe0 	ldr	w0, [sp, #44]
   8446c:	71001c1f 	cmp	w0, #0x7
   84470:	5400330c 	b.gt	84ad0 <Exception+0x6c8>
   84474:	b9402fe0 	ldr	w0, [sp, #44]
   84478:	7100181f 	cmp	w0, #0x6
   8447c:	540024c0 	b.eq	84914 <Exception+0x50c>  // b.none
   84480:	b9402fe0 	ldr	w0, [sp, #44]
   84484:	7100181f 	cmp	w0, #0x6
   84488:	5400324c 	b.gt	84ad0 <Exception+0x6c8>
   8448c:	b9402fe0 	ldr	w0, [sp, #44]
   84490:	7100141f 	cmp	w0, #0x5
   84494:	54001d00 	b.eq	84834 <Exception+0x42c>  // b.none
   84498:	b9402fe0 	ldr	w0, [sp, #44]
   8449c:	7100141f 	cmp	w0, #0x5
   844a0:	5400318c 	b.gt	84ad0 <Exception+0x6c8>
   844a4:	b9402fe0 	ldr	w0, [sp, #44]
   844a8:	7100101f 	cmp	w0, #0x4
   844ac:	54001880 	b.eq	847bc <Exception+0x3b4>  // b.none
   844b0:	b9402fe0 	ldr	w0, [sp, #44]
   844b4:	7100101f 	cmp	w0, #0x4
   844b8:	540030cc 	b.gt	84ad0 <Exception+0x6c8>
   844bc:	b9402fe0 	ldr	w0, [sp, #44]
   844c0:	71000c1f 	cmp	w0, #0x3
   844c4:	54001400 	b.eq	84744 <Exception+0x33c>  // b.none
   844c8:	b9402fe0 	ldr	w0, [sp, #44]
   844cc:	71000c1f 	cmp	w0, #0x3
   844d0:	5400300c 	b.gt	84ad0 <Exception+0x6c8>
   844d4:	b9402fe0 	ldr	w0, [sp, #44]
   844d8:	7100081f 	cmp	w0, #0x2
   844dc:	540003a0 	b.eq	84550 <Exception+0x148>  // b.none
   844e0:	b9402fe0 	ldr	w0, [sp, #44]
   844e4:	7100081f 	cmp	w0, #0x2
   844e8:	54002f4c 	b.gt	84ad0 <Exception+0x6c8>
   844ec:	b9402fe0 	ldr	w0, [sp, #44]
   844f0:	7100001f 	cmp	w0, #0x0
   844f4:	540000a0 	b.eq	84508 <Exception+0x100>  // b.none
   844f8:	b9402fe0 	ldr	w0, [sp, #44]
   844fc:	7100041f 	cmp	w0, #0x1
   84500:	540000a0 	b.eq	84514 <Exception+0x10c>  // b.none
   84504:	14000173 	b	84ad0 <Exception+0x6c8>
   84508:	b94033e0 	ldr	w0, [sp, #48]
   8450c:	9400024f 	bl	84e48 <Kill>
   84510:	14000171 	b	84ad4 <Exception+0x6cc>
   84514:	f0000000 	adrp	x0, 87000 <el1_a32_serror+0x80>
   84518:	911fc000 	add	x0, x0, #0x7f0
   8451c:	b9400003 	ldr	w3, [x0]
   84520:	f0000000 	adrp	x0, 87000 <el1_a32_serror+0x80>
   84524:	911fe001 	add	x1, x0, #0x7f8
   84528:	b98033e2 	ldrsw	x2, [sp, #48]
   8452c:	d2812300 	mov	x0, #0x918                 	// #2328
   84530:	9b007c40 	mul	x0, x2, x0
   84534:	8b000020 	add	x0, x1, x0
   84538:	b9401c00 	ldr	w0, [x0, #28]
   8453c:	52800002 	mov	w2, #0x0                   	// #0
   84540:	2a0003e1 	mov	w1, w0
   84544:	2a0303e0 	mov	w0, w3
   84548:	97fffbe1 	bl	834cc <scrSchedule>
   8454c:	14000162 	b	84ad4 <Exception+0x6cc>
   84550:	f0000000 	adrp	x0, 87000 <el1_a32_serror+0x80>
   84554:	911fc000 	add	x0, x0, #0x7f0
   84558:	b9400003 	ldr	w3, [x0]
   8455c:	f0000000 	adrp	x0, 87000 <el1_a32_serror+0x80>
   84560:	911fe001 	add	x1, x0, #0x7f8
   84564:	b98033e2 	ldrsw	x2, [sp, #48]
   84568:	d2812300 	mov	x0, #0x918                 	// #2328
   8456c:	9b007c40 	mul	x0, x2, x0
   84570:	8b000020 	add	x0, x1, x0
   84574:	b9401c00 	ldr	w0, [x0, #28]
   84578:	52800002 	mov	w2, #0x0                   	// #0
   8457c:	2a0003e1 	mov	w1, w0
   84580:	2a0303e0 	mov	w0, w3
   84584:	97fffbd2 	bl	834cc <scrSchedule>
   84588:	b9003fff 	str	wzr, [sp, #60]
   8458c:	14000013 	b	845d8 <Exception+0x1d0>
   84590:	f0000000 	adrp	x0, 87000 <el1_a32_serror+0x80>
   84594:	911fe000 	add	x0, x0, #0x7f8
   84598:	b9803fe1 	ldrsw	x1, [sp, #60]
   8459c:	b98033e3 	ldrsw	x3, [sp, #48]
   845a0:	d2802462 	mov	x2, #0x123                 	// #291
   845a4:	9b027c62 	mul	x2, x3, x2
   845a8:	8b010041 	add	x1, x2, x1
   845ac:	91001021 	add	x1, x1, #0x4
   845b0:	f8617800 	ldr	x0, [x0, x1, lsl #3]
   845b4:	aa0003e3 	mov	x3, x0
   845b8:	b9403fe2 	ldr	w2, [sp, #60]
   845bc:	f0000000 	adrp	x0, 87000 <el1_a32_serror+0x80>
   845c0:	911a0001 	add	x1, x0, #0x680
   845c4:	d2800020 	mov	x0, #0x1                   	// #1
   845c8:	97fffb71 	bl	8338c <uart_printf>
   845cc:	b9403fe0 	ldr	w0, [sp, #60]
   845d0:	11000400 	add	w0, w0, #0x1
   845d4:	b9003fe0 	str	w0, [sp, #60]
   845d8:	b9403fe0 	ldr	w0, [sp, #60]
   845dc:	7100781f 	cmp	w0, #0x1e
   845e0:	54fffd8d 	b.le	84590 <Exception+0x188>
   845e4:	f0000000 	adrp	x0, 87000 <el1_a32_serror+0x80>
   845e8:	911fe001 	add	x1, x0, #0x7f8
   845ec:	b98033e2 	ldrsw	x2, [sp, #48]
   845f0:	d2812300 	mov	x0, #0x918                 	// #2328
   845f4:	9b007c40 	mul	x0, x2, x0
   845f8:	8b000020 	add	x0, x1, x0
   845fc:	f9401000 	ldr	x0, [x0, #32]
   84600:	2a0003e3 	mov	w3, w0
   84604:	f0000000 	adrp	x0, 87000 <el1_a32_serror+0x80>
   84608:	911fe001 	add	x1, x0, #0x7f8
   8460c:	b98033e2 	ldrsw	x2, [sp, #48]
   84610:	d2812300 	mov	x0, #0x918                 	// #2328
   84614:	9b007c40 	mul	x0, x2, x0
   84618:	8b000020 	add	x0, x1, x0
   8461c:	f9401400 	ldr	x0, [x0, #40]
   84620:	aa0003e1 	mov	x1, x0
   84624:	b94033e0 	ldr	w0, [sp, #48]
   84628:	11000400 	add	w0, w0, #0x1
   8462c:	2a0003e2 	mov	w2, w0
   84630:	2a0303e0 	mov	w0, w3
   84634:	94000189 	bl	84c58 <KernelCreate>
   84638:	b90027e0 	str	w0, [sp, #36]
   8463c:	f0000000 	adrp	x0, 87000 <el1_a32_serror+0x80>
   84640:	911fe001 	add	x1, x0, #0x7f8
   84644:	b98033e2 	ldrsw	x2, [sp, #48]
   84648:	d2812300 	mov	x0, #0x918                 	// #2328
   8464c:	9b007c40 	mul	x0, x2, x0
   84650:	8b000020 	add	x0, x1, x0
   84654:	f9401800 	ldr	x0, [x0, #48]
   84658:	f100001f 	cmp	x0, #0x0
   8465c:	54000620 	b.eq	84720 <Exception+0x318>  // b.none
   84660:	b9003bff 	str	wzr, [sp, #56]
   84664:	1400002c 	b	84714 <Exception+0x30c>
   84668:	b9803be0 	ldrsw	x0, [sp, #56]
   8466c:	d37df001 	lsl	x1, x0, #3
   84670:	f0000000 	adrp	x0, 87000 <el1_a32_serror+0x80>
   84674:	911fe002 	add	x2, x0, #0x7f8
   84678:	b98033e3 	ldrsw	x3, [sp, #48]
   8467c:	d2812300 	mov	x0, #0x918                 	// #2328
   84680:	9b007c60 	mul	x0, x3, x0
   84684:	8b000040 	add	x0, x2, x0
   84688:	f9401c00 	ldr	x0, [x0, #56]
   8468c:	8b000020 	add	x0, x1, x0
   84690:	f9400001 	ldr	x1, [x0]
   84694:	b94027e0 	ldr	w0, [sp, #36]
   84698:	51000402 	sub	w2, w0, #0x1
   8469c:	aa0103e4 	mov	x4, x1
   846a0:	f0000000 	adrp	x0, 87000 <el1_a32_serror+0x80>
   846a4:	911fe000 	add	x0, x0, #0x7f8
   846a8:	b9803be1 	ldrsw	x1, [sp, #56]
   846ac:	93407c43 	sxtw	x3, w2
   846b0:	d2802462 	mov	x2, #0x123                 	// #291
   846b4:	9b027c62 	mul	x2, x3, x2
   846b8:	8b010041 	add	x1, x2, x1
   846bc:	91001021 	add	x1, x1, #0x4
   846c0:	f8217804 	str	x4, [x0, x1, lsl #3]
   846c4:	b94027e0 	ldr	w0, [sp, #36]
   846c8:	51000402 	sub	w2, w0, #0x1
   846cc:	f0000000 	adrp	x0, 87000 <el1_a32_serror+0x80>
   846d0:	911fe000 	add	x0, x0, #0x7f8
   846d4:	b9803be1 	ldrsw	x1, [sp, #56]
   846d8:	93407c43 	sxtw	x3, w2
   846dc:	d2802462 	mov	x2, #0x123                 	// #291
   846e0:	9b027c62 	mul	x2, x3, x2
   846e4:	8b010041 	add	x1, x2, x1
   846e8:	91001021 	add	x1, x1, #0x4
   846ec:	f8617800 	ldr	x0, [x0, x1, lsl #3]
   846f0:	aa0003e3 	mov	x3, x0
   846f4:	b9403be2 	ldr	w2, [sp, #56]
   846f8:	f0000000 	adrp	x0, 87000 <el1_a32_serror+0x80>
   846fc:	911a0001 	add	x1, x0, #0x680
   84700:	d2800020 	mov	x0, #0x1                   	// #1
   84704:	97fffb22 	bl	8338c <uart_printf>
   84708:	b9403be0 	ldr	w0, [sp, #56]
   8470c:	11000400 	add	w0, w0, #0x1
   84710:	b9003be0 	str	w0, [sp, #56]
   84714:	b9403be0 	ldr	w0, [sp, #56]
   84718:	71001c1f 	cmp	w0, #0x7
   8471c:	54fffa6d 	b.le	84668 <Exception+0x260>
   84720:	b98027e1 	ldrsw	x1, [sp, #36]
   84724:	f0000000 	adrp	x0, 87000 <el1_a32_serror+0x80>
   84728:	911fe002 	add	x2, x0, #0x7f8
   8472c:	b98033e3 	ldrsw	x3, [sp, #48]
   84730:	d2812300 	mov	x0, #0x918                 	// #2328
   84734:	9b007c60 	mul	x0, x3, x0
   84738:	8b000040 	add	x0, x2, x0
   8473c:	f9001001 	str	x1, [x0, #32]
   84740:	140000e5 	b	84ad4 <Exception+0x6cc>
   84744:	f0000000 	adrp	x0, 87000 <el1_a32_serror+0x80>
   84748:	911fc000 	add	x0, x0, #0x7f0
   8474c:	b9400003 	ldr	w3, [x0]
   84750:	f0000000 	adrp	x0, 87000 <el1_a32_serror+0x80>
   84754:	911fe001 	add	x1, x0, #0x7f8
   84758:	b98033e2 	ldrsw	x2, [sp, #48]
   8475c:	d2812300 	mov	x0, #0x918                 	// #2328
   84760:	9b007c40 	mul	x0, x2, x0
   84764:	8b000020 	add	x0, x1, x0
   84768:	b9401c00 	ldr	w0, [x0, #28]
   8476c:	52800002 	mov	w2, #0x0                   	// #0
   84770:	2a0003e1 	mov	w1, w0
   84774:	2a0303e0 	mov	w0, w3
   84778:	97fffb55 	bl	834cc <scrSchedule>
   8477c:	f0000000 	adrp	x0, 87000 <el1_a32_serror+0x80>
   84780:	911fe001 	add	x1, x0, #0x7f8
   84784:	b98033e2 	ldrsw	x2, [sp, #48]
   84788:	d2812300 	mov	x0, #0x918                 	// #2328
   8478c:	9b007c40 	mul	x0, x2, x0
   84790:	8b000020 	add	x0, x1, x0
   84794:	b9401800 	ldr	w0, [x0, #24]
   84798:	93407c01 	sxtw	x1, w0
   8479c:	f0000000 	adrp	x0, 87000 <el1_a32_serror+0x80>
   847a0:	911fe002 	add	x2, x0, #0x7f8
   847a4:	b98033e3 	ldrsw	x3, [sp, #48]
   847a8:	d2812300 	mov	x0, #0x918                 	// #2328
   847ac:	9b007c60 	mul	x0, x3, x0
   847b0:	8b000040 	add	x0, x2, x0
   847b4:	f9001001 	str	x1, [x0, #32]
   847b8:	140000c7 	b	84ad4 <Exception+0x6cc>
   847bc:	f0000000 	adrp	x0, 87000 <el1_a32_serror+0x80>
   847c0:	911fc000 	add	x0, x0, #0x7f0
   847c4:	b9400003 	ldr	w3, [x0]
   847c8:	f0000000 	adrp	x0, 87000 <el1_a32_serror+0x80>
   847cc:	911fe001 	add	x1, x0, #0x7f8
   847d0:	b98033e2 	ldrsw	x2, [sp, #48]
   847d4:	d2812300 	mov	x0, #0x918                 	// #2328
   847d8:	9b007c40 	mul	x0, x2, x0
   847dc:	8b000020 	add	x0, x1, x0
   847e0:	b9401c00 	ldr	w0, [x0, #28]
   847e4:	52800002 	mov	w2, #0x0                   	// #0
   847e8:	2a0003e1 	mov	w1, w0
   847ec:	2a0303e0 	mov	w0, w3
   847f0:	97fffb37 	bl	834cc <scrSchedule>
   847f4:	f0000000 	adrp	x0, 87000 <el1_a32_serror+0x80>
   847f8:	911fe001 	add	x1, x0, #0x7f8
   847fc:	b98033e2 	ldrsw	x2, [sp, #48]
   84800:	d2812300 	mov	x0, #0x918                 	// #2328
   84804:	9b007c40 	mul	x0, x2, x0
   84808:	8b000020 	add	x0, x1, x0
   8480c:	b9401400 	ldr	w0, [x0, #20]
   84810:	93407c01 	sxtw	x1, w0
   84814:	f0000000 	adrp	x0, 87000 <el1_a32_serror+0x80>
   84818:	911fe002 	add	x2, x0, #0x7f8
   8481c:	b98033e3 	ldrsw	x3, [sp, #48]
   84820:	d2812300 	mov	x0, #0x918                 	// #2328
   84824:	9b007c60 	mul	x0, x3, x0
   84828:	8b000040 	add	x0, x2, x0
   8482c:	f9001001 	str	x1, [x0, #32]
   84830:	140000a9 	b	84ad4 <Exception+0x6cc>
   84834:	f0000000 	adrp	x0, 87000 <el1_a32_serror+0x80>
   84838:	911fe001 	add	x1, x0, #0x7f8
   8483c:	b98033e2 	ldrsw	x2, [sp, #48]
   84840:	d2812300 	mov	x0, #0x918                 	// #2328
   84844:	9b007c40 	mul	x0, x2, x0
   84848:	8b000020 	add	x0, x1, x0
   8484c:	f9401000 	ldr	x0, [x0, #32]
   84850:	b9002be0 	str	w0, [sp, #40]
   84854:	b9402be0 	ldr	w0, [sp, #40]
   84858:	12001c00 	and	w0, w0, #0xff
   8485c:	51000400 	sub	w0, w0, #0x1
   84860:	12001c00 	and	w0, w0, #0xff
   84864:	13001c00 	sxtb	w0, w0
   84868:	97fffcaa 	bl	83b10 <dead>
   8486c:	13001c00 	sxtb	w0, w0
   84870:	7100001f 	cmp	w0, #0x0
   84874:	54000300 	b.eq	848d4 <Exception+0x4cc>  // b.none
   84878:	f0000000 	adrp	x0, 87000 <el1_a32_serror+0x80>
   8487c:	911fc000 	add	x0, x0, #0x7f0
   84880:	b9400003 	ldr	w3, [x0]
   84884:	f0000000 	adrp	x0, 87000 <el1_a32_serror+0x80>
   84888:	911fe001 	add	x1, x0, #0x7f8
   8488c:	b98033e2 	ldrsw	x2, [sp, #48]
   84890:	d2812300 	mov	x0, #0x918                 	// #2328
   84894:	9b007c40 	mul	x0, x2, x0
   84898:	8b000020 	add	x0, x1, x0
   8489c:	b9401c00 	ldr	w0, [x0, #28]
   848a0:	52800002 	mov	w2, #0x0                   	// #0
   848a4:	2a0003e1 	mov	w1, w0
   848a8:	2a0303e0 	mov	w0, w3
   848ac:	97fffb08 	bl	834cc <scrSchedule>
   848b0:	f0000000 	adrp	x0, 87000 <el1_a32_serror+0x80>
   848b4:	911fe001 	add	x1, x0, #0x7f8
   848b8:	b98033e2 	ldrsw	x2, [sp, #48]
   848bc:	d2812300 	mov	x0, #0x918                 	// #2328
   848c0:	9b007c40 	mul	x0, x2, x0
   848c4:	8b000020 	add	x0, x1, x0
   848c8:	92800001 	mov	x1, #0xffffffffffffffff    	// #-1
   848cc:	f9001001 	str	x1, [x0, #32]
   848d0:	14000081 	b	84ad4 <Exception+0x6cc>
   848d4:	f0000000 	adrp	x0, 87000 <el1_a32_serror+0x80>
   848d8:	911fc000 	add	x0, x0, #0x7f0
   848dc:	b9400003 	ldr	w3, [x0]
   848e0:	f0000000 	adrp	x0, 87000 <el1_a32_serror+0x80>
   848e4:	911fe001 	add	x1, x0, #0x7f8
   848e8:	b98033e2 	ldrsw	x2, [sp, #48]
   848ec:	d2812300 	mov	x0, #0x918                 	// #2328
   848f0:	9b007c40 	mul	x0, x2, x0
   848f4:	8b000020 	add	x0, x1, x0
   848f8:	b9401c00 	ldr	w0, [x0, #28]
   848fc:	52800022 	mov	w2, #0x1                   	// #1
   84900:	2a0003e1 	mov	w1, w0
   84904:	2a0303e0 	mov	w0, w3
   84908:	97fffaf1 	bl	834cc <scrSchedule>
   8490c:	97fffc9d 	bl	83b80 <send_helper>
   84910:	14000071 	b	84ad4 <Exception+0x6cc>
   84914:	f0000000 	adrp	x0, 87000 <el1_a32_serror+0x80>
   84918:	911fc000 	add	x0, x0, #0x7f0
   8491c:	b9400003 	ldr	w3, [x0]
   84920:	f0000000 	adrp	x0, 87000 <el1_a32_serror+0x80>
   84924:	911fe001 	add	x1, x0, #0x7f8
   84928:	b98033e2 	ldrsw	x2, [sp, #48]
   8492c:	d2812300 	mov	x0, #0x918                 	// #2328
   84930:	9b007c40 	mul	x0, x2, x0
   84934:	8b000020 	add	x0, x1, x0
   84938:	b9401c00 	ldr	w0, [x0, #28]
   8493c:	52800022 	mov	w2, #0x1                   	// #1
   84940:	2a0003e1 	mov	w1, w0
   84944:	2a0303e0 	mov	w0, w3
   84948:	97fffae1 	bl	834cc <scrSchedule>
   8494c:	f0000000 	adrp	x0, 87000 <el1_a32_serror+0x80>
   84950:	911fc000 	add	x0, x0, #0x7f0
   84954:	b9400000 	ldr	w0, [x0]
   84958:	97fffd76 	bl	83f30 <recieve_helper>
   8495c:	1400005e 	b	84ad4 <Exception+0x6cc>
   84960:	f0000000 	adrp	x0, 87000 <el1_a32_serror+0x80>
   84964:	911fc000 	add	x0, x0, #0x7f0
   84968:	b9400003 	ldr	w3, [x0]
   8496c:	f0000000 	adrp	x0, 87000 <el1_a32_serror+0x80>
   84970:	911fe001 	add	x1, x0, #0x7f8
   84974:	b98033e2 	ldrsw	x2, [sp, #48]
   84978:	d2812300 	mov	x0, #0x918                 	// #2328
   8497c:	9b007c40 	mul	x0, x2, x0
   84980:	8b000020 	add	x0, x1, x0
   84984:	b9401c00 	ldr	w0, [x0, #28]
   84988:	52800002 	mov	w2, #0x0                   	// #0
   8498c:	2a0003e1 	mov	w1, w0
   84990:	2a0303e0 	mov	w0, w3
   84994:	97ffface 	bl	834cc <scrSchedule>
   84998:	f0000000 	adrp	x0, 87000 <el1_a32_serror+0x80>
   8499c:	911fe001 	add	x1, x0, #0x7f8
   849a0:	b98033e2 	ldrsw	x2, [sp, #48]
   849a4:	d2812300 	mov	x0, #0x918                 	// #2328
   849a8:	9b007c40 	mul	x0, x2, x0
   849ac:	8b000020 	add	x0, x1, x0
   849b0:	f9401000 	ldr	x0, [x0, #32]
   849b4:	b9002be0 	str	w0, [sp, #40]
   849b8:	b9402be0 	ldr	w0, [sp, #40]
   849bc:	12001c00 	and	w0, w0, #0xff
   849c0:	51000400 	sub	w0, w0, #0x1
   849c4:	12001c00 	and	w0, w0, #0xff
   849c8:	13001c00 	sxtb	w0, w0
   849cc:	97fffc51 	bl	83b10 <dead>
   849d0:	13001c00 	sxtb	w0, w0
   849d4:	7100001f 	cmp	w0, #0x0
   849d8:	54000140 	b.eq	84a00 <Exception+0x5f8>  // b.none
   849dc:	f0000000 	adrp	x0, 87000 <el1_a32_serror+0x80>
   849e0:	911fe001 	add	x1, x0, #0x7f8
   849e4:	b98033e2 	ldrsw	x2, [sp, #48]
   849e8:	d2812300 	mov	x0, #0x918                 	// #2328
   849ec:	9b007c40 	mul	x0, x2, x0
   849f0:	8b000020 	add	x0, x1, x0
   849f4:	92800001 	mov	x1, #0xffffffffffffffff    	// #-1
   849f8:	f9001001 	str	x1, [x0, #32]
   849fc:	14000036 	b	84ad4 <Exception+0x6cc>
   84a00:	b9402be0 	ldr	w0, [sp, #40]
   84a04:	51000402 	sub	w2, w0, #0x1
   84a08:	f0000000 	adrp	x0, 87000 <el1_a32_serror+0x80>
   84a0c:	911fe001 	add	x1, x0, #0x7f8
   84a10:	93407c42 	sxtw	x2, w2
   84a14:	d2812300 	mov	x0, #0x918                 	// #2328
   84a18:	9b007c40 	mul	x0, x2, x0
   84a1c:	8b000020 	add	x0, x1, x0
   84a20:	39644800 	ldrb	w0, [x0, #2322]
   84a24:	7100001f 	cmp	w0, #0x0
   84a28:	54000141 	b.ne	84a50 <Exception+0x648>  // b.any
   84a2c:	f0000000 	adrp	x0, 87000 <el1_a32_serror+0x80>
   84a30:	911fe001 	add	x1, x0, #0x7f8
   84a34:	b98033e2 	ldrsw	x2, [sp, #48]
   84a38:	d2812300 	mov	x0, #0x918                 	// #2328
   84a3c:	9b007c40 	mul	x0, x2, x0
   84a40:	8b000020 	add	x0, x1, x0
   84a44:	92800021 	mov	x1, #0xfffffffffffffffe    	// #-2
   84a48:	f9001001 	str	x1, [x0, #32]
   84a4c:	14000022 	b	84ad4 <Exception+0x6cc>
   84a50:	97fffe01 	bl	84254 <reply_helper>
   84a54:	14000020 	b	84ad4 <Exception+0x6cc>
   84a58:	f0000000 	adrp	x0, 87000 <el1_a32_serror+0x80>
   84a5c:	911fc000 	add	x0, x0, #0x7f0
   84a60:	b9400003 	ldr	w3, [x0]
   84a64:	f0000000 	adrp	x0, 87000 <el1_a32_serror+0x80>
   84a68:	911fe001 	add	x1, x0, #0x7f8
   84a6c:	b98033e2 	ldrsw	x2, [sp, #48]
   84a70:	d2812300 	mov	x0, #0x918                 	// #2328
   84a74:	9b007c40 	mul	x0, x2, x0
   84a78:	8b000020 	add	x0, x1, x0
   84a7c:	b9401c00 	ldr	w0, [x0, #28]
   84a80:	52800002 	mov	w2, #0x0                   	// #0
   84a84:	2a0003e1 	mov	w1, w0
   84a88:	2a0303e0 	mov	w0, w3
   84a8c:	97fffa90 	bl	834cc <scrSchedule>
   84a90:	f0000000 	adrp	x0, 87000 <el1_a32_serror+0x80>
   84a94:	911fe001 	add	x1, x0, #0x7f8
   84a98:	b98033e2 	ldrsw	x2, [sp, #48]
   84a9c:	d2812300 	mov	x0, #0x918                 	// #2328
   84aa0:	9b007c40 	mul	x0, x2, x0
   84aa4:	8b000020 	add	x0, x1, x0
   84aa8:	b9401c00 	ldr	w0, [x0, #28]
   84aac:	93407c01 	sxtw	x1, w0
   84ab0:	f0000000 	adrp	x0, 87000 <el1_a32_serror+0x80>
   84ab4:	911fe002 	add	x2, x0, #0x7f8
   84ab8:	b98033e3 	ldrsw	x3, [sp, #48]
   84abc:	d2812300 	mov	x0, #0x918                 	// #2328
   84ac0:	9b007c60 	mul	x0, x3, x0
   84ac4:	8b000040 	add	x0, x2, x0
   84ac8:	f9001001 	str	x1, [x0, #32]
   84acc:	14000002 	b	84ad4 <Exception+0x6cc>
   84ad0:	d503201f 	nop
   84ad4:	9400002b 	bl	84b80 <Schedule>
   84ad8:	f0000000 	adrp	x0, 87000 <el1_a32_serror+0x80>
   84adc:	911a4001 	add	x1, x0, #0x690
   84ae0:	d2800020 	mov	x0, #0x1                   	// #1
   84ae4:	97fffa2a 	bl	8338c <uart_printf>
   84ae8:	b90037ff 	str	wzr, [sp, #52]
   84aec:	1400001c 	b	84b5c <Exception+0x754>
   84af0:	d0000060 	adrp	x0, 92000 <PROCS+0xa808>
   84af4:	91376002 	add	x2, x0, #0xdd8
   84af8:	b98037e1 	ldrsw	x1, [sp, #52]
   84afc:	aa0103e0 	mov	x0, x1
   84b00:	d37ff800 	lsl	x0, x0, #1
   84b04:	8b010000 	add	x0, x0, x1
   84b08:	d37ef400 	lsl	x0, x0, #2
   84b0c:	8b000040 	add	x0, x2, x0
   84b10:	b9400004 	ldr	w4, [x0]
   84b14:	d0000060 	adrp	x0, 92000 <PROCS+0xa808>
   84b18:	91376002 	add	x2, x0, #0xdd8
   84b1c:	b98037e1 	ldrsw	x1, [sp, #52]
   84b20:	aa0103e0 	mov	x0, x1
   84b24:	d37ff800 	lsl	x0, x0, #1
   84b28:	8b010000 	add	x0, x0, x1
   84b2c:	d37ef400 	lsl	x0, x0, #2
   84b30:	8b000040 	add	x0, x2, x0
   84b34:	b9400800 	ldr	w0, [x0, #8]
   84b38:	2a0003e3 	mov	w3, w0
   84b3c:	2a0403e2 	mov	w2, w4
   84b40:	f0000000 	adrp	x0, 87000 <el1_a32_serror+0x80>
   84b44:	911b0001 	add	x1, x0, #0x6c0
   84b48:	d2800020 	mov	x0, #0x1                   	// #1
   84b4c:	97fffa10 	bl	8338c <uart_printf>
   84b50:	b94037e0 	ldr	w0, [sp, #52]
   84b54:	11000400 	add	w0, w0, #0x1
   84b58:	b90037e0 	str	w0, [sp, #52]
   84b5c:	b94037e0 	ldr	w0, [sp, #52]
   84b60:	71004c1f 	cmp	w0, #0x13
   84b64:	54fffc6d 	b.le	84af0 <Exception+0x6e8>
   84b68:	d2800020 	mov	x0, #0x1                   	// #1
   84b6c:	97fff8d5 	bl	82ec0 <uart_getc>
   84b70:	97ffed37 	bl	8004c <EXIT>
   84b74:	d503201f 	nop
   84b78:	a8c47bfd 	ldp	x29, x30, [sp], #64
   84b7c:	d65f03c0 	ret

0000000000084b80 <Schedule>:
   84b80:	a9be7bfd 	stp	x29, x30, [sp, #-32]!
   84b84:	910003fd 	mov	x29, sp
   84b88:	97fffaf6 	bl	83760 <scrPick>
   84b8c:	2a0003e1 	mov	w1, w0
   84b90:	f0000000 	adrp	x0, 87000 <el1_a32_serror+0x80>
   84b94:	911fc000 	add	x0, x0, #0x7f0
   84b98:	b9000001 	str	w1, [x0]
   84b9c:	f0000000 	adrp	x0, 87000 <el1_a32_serror+0x80>
   84ba0:	911fc000 	add	x0, x0, #0x7f0
   84ba4:	b9400000 	ldr	w0, [x0]
   84ba8:	3100041f 	cmn	w0, #0x1
   84bac:	54000500 	b.eq	84c4c <Schedule+0xcc>  // b.none
   84bb0:	f0000000 	adrp	x0, 87000 <el1_a32_serror+0x80>
   84bb4:	911fc000 	add	x0, x0, #0x7f0
   84bb8:	b9400000 	ldr	w0, [x0]
   84bbc:	51000400 	sub	w0, w0, #0x1
   84bc0:	b9001fe0 	str	w0, [sp, #28]
   84bc4:	b9801fe1 	ldrsw	x1, [sp, #28]
   84bc8:	d2812300 	mov	x0, #0x918                 	// #2328
   84bcc:	9b007c20 	mul	x0, x1, x0
   84bd0:	91008001 	add	x1, x0, #0x20
   84bd4:	f0000000 	adrp	x0, 87000 <el1_a32_serror+0x80>
   84bd8:	911fe000 	add	x0, x0, #0x7f8
   84bdc:	8b000024 	add	x4, x1, x0
   84be0:	f0000000 	adrp	x0, 87000 <el1_a32_serror+0x80>
   84be4:	911fe001 	add	x1, x0, #0x7f8
   84be8:	b9801fe2 	ldrsw	x2, [sp, #28]
   84bec:	d2812300 	mov	x0, #0x918                 	// #2328
   84bf0:	9b007c40 	mul	x0, x2, x0
   84bf4:	8b000020 	add	x0, x1, x0
   84bf8:	f9400405 	ldr	x5, [x0, #8]
   84bfc:	f0000000 	adrp	x0, 87000 <el1_a32_serror+0x80>
   84c00:	911fe001 	add	x1, x0, #0x7f8
   84c04:	b9801fe2 	ldrsw	x2, [sp, #28]
   84c08:	d2812300 	mov	x0, #0x918                 	// #2328
   84c0c:	9b007c40 	mul	x0, x2, x0
   84c10:	8b000020 	add	x0, x1, x0
   84c14:	f9400006 	ldr	x6, [x0]
   84c18:	f0000000 	adrp	x0, 87000 <el1_a32_serror+0x80>
   84c1c:	911fe001 	add	x1, x0, #0x7f8
   84c20:	b9801fe2 	ldrsw	x2, [sp, #28]
   84c24:	d2812300 	mov	x0, #0x918                 	// #2328
   84c28:	9b007c40 	mul	x0, x2, x0
   84c2c:	8b000020 	add	x0, x1, x0
   84c30:	b9401000 	ldr	w0, [x0, #16]
   84c34:	2a0003e3 	mov	w3, w0
   84c38:	aa0603e2 	mov	x2, x6
   84c3c:	aa0503e1 	mov	x1, x5
   84c40:	aa0403e0 	mov	x0, x4
   84c44:	94000483 	bl	85e50 <Begin>
   84c48:	14000002 	b	84c50 <Schedule+0xd0>
   84c4c:	d503201f 	nop
   84c50:	a8c27bfd 	ldp	x29, x30, [sp], #32
   84c54:	d65f03c0 	ret

0000000000084c58 <KernelCreate>:
   84c58:	a9bd7bfd 	stp	x29, x30, [sp, #-48]!
   84c5c:	910003fd 	mov	x29, sp
   84c60:	b9001fe0 	str	w0, [sp, #28]
   84c64:	f9000be1 	str	x1, [sp, #16]
   84c68:	b9001be2 	str	w2, [sp, #24]
   84c6c:	b9002fff 	str	wzr, [sp, #44]
   84c70:	14000070 	b	84e30 <KernelCreate+0x1d8>
   84c74:	f0000000 	adrp	x0, 87000 <el1_a32_serror+0x80>
   84c78:	911fe001 	add	x1, x0, #0x7f8
   84c7c:	b9802fe2 	ldrsw	x2, [sp, #44]
   84c80:	d2812300 	mov	x0, #0x918                 	// #2328
   84c84:	9b007c40 	mul	x0, x2, x0
   84c88:	8b000020 	add	x0, x1, x0
   84c8c:	f9400400 	ldr	x0, [x0, #8]
   84c90:	f100001f 	cmp	x0, #0x0
   84c94:	54000c81 	b.ne	84e24 <KernelCreate+0x1cc>  // b.any
   84c98:	f0000000 	adrp	x0, 87000 <el1_a32_serror+0x80>
   84c9c:	911fe001 	add	x1, x0, #0x7f8
   84ca0:	b9802fe2 	ldrsw	x2, [sp, #44]
   84ca4:	d2812300 	mov	x0, #0x918                 	// #2328
   84ca8:	9b007c40 	mul	x0, x2, x0
   84cac:	8b000020 	add	x0, x1, x0
   84cb0:	f9400be1 	ldr	x1, [sp, #16]
   84cb4:	f9000401 	str	x1, [x0, #8]
   84cb8:	f0000000 	adrp	x0, 87000 <el1_a32_serror+0x80>
   84cbc:	911fa000 	add	x0, x0, #0x7e8
   84cc0:	f9400001 	ldr	x1, [x0]
   84cc4:	b9402fe0 	ldr	w0, [sp, #44]
   84cc8:	11000400 	add	w0, w0, #0x1
   84ccc:	53103c00 	lsl	w0, w0, #16
   84cd0:	93407c00 	sxtw	x0, w0
   84cd4:	8b000021 	add	x1, x1, x0
   84cd8:	f0000000 	adrp	x0, 87000 <el1_a32_serror+0x80>
   84cdc:	911fe002 	add	x2, x0, #0x7f8
   84ce0:	b9802fe3 	ldrsw	x3, [sp, #44]
   84ce4:	d2812300 	mov	x0, #0x918                 	// #2328
   84ce8:	9b007c60 	mul	x0, x3, x0
   84cec:	8b000040 	add	x0, x2, x0
   84cf0:	f9000001 	str	x1, [x0]
   84cf4:	f0000000 	adrp	x0, 87000 <el1_a32_serror+0x80>
   84cf8:	911fe001 	add	x1, x0, #0x7f8
   84cfc:	b9802fe2 	ldrsw	x2, [sp, #44]
   84d00:	d2812300 	mov	x0, #0x918                 	// #2328
   84d04:	9b007c40 	mul	x0, x2, x0
   84d08:	8b000020 	add	x0, x1, x0
   84d0c:	b9401be1 	ldr	w1, [sp, #24]
   84d10:	b9001401 	str	w1, [x0, #20]
   84d14:	f0000000 	adrp	x0, 87000 <el1_a32_serror+0x80>
   84d18:	911fe001 	add	x1, x0, #0x7f8
   84d1c:	b9802fe2 	ldrsw	x2, [sp, #44]
   84d20:	d2812300 	mov	x0, #0x918                 	// #2328
   84d24:	9b007c40 	mul	x0, x2, x0
   84d28:	8b000020 	add	x0, x1, x0
   84d2c:	b9401fe1 	ldr	w1, [sp, #28]
   84d30:	b9001c01 	str	w1, [x0, #28]
   84d34:	b9402fe0 	ldr	w0, [sp, #44]
   84d38:	11000401 	add	w1, w0, #0x1
   84d3c:	f0000000 	adrp	x0, 87000 <el1_a32_serror+0x80>
   84d40:	911fe002 	add	x2, x0, #0x7f8
   84d44:	b9802fe3 	ldrsw	x3, [sp, #44]
   84d48:	d2812300 	mov	x0, #0x918                 	// #2328
   84d4c:	9b007c60 	mul	x0, x3, x0
   84d50:	8b000040 	add	x0, x2, x0
   84d54:	b9001801 	str	w1, [x0, #24]
   84d58:	f0000000 	adrp	x0, 87000 <el1_a32_serror+0x80>
   84d5c:	911fe001 	add	x1, x0, #0x7f8
   84d60:	b9802fe2 	ldrsw	x2, [sp, #44]
   84d64:	d2812300 	mov	x0, #0x918                 	// #2328
   84d68:	9b007c40 	mul	x0, x2, x0
   84d6c:	8b000020 	add	x0, x1, x0
   84d70:	b900101f 	str	wzr, [x0, #16]
   84d74:	f0000000 	adrp	x0, 87000 <el1_a32_serror+0x80>
   84d78:	911fe001 	add	x1, x0, #0x7f8
   84d7c:	b9802fe2 	ldrsw	x2, [sp, #44]
   84d80:	d2812300 	mov	x0, #0x918                 	// #2328
   84d84:	9b007c40 	mul	x0, x2, x0
   84d88:	8b000020 	add	x0, x1, x0
   84d8c:	3924481f 	strb	wzr, [x0, #2322]
   84d90:	f0000000 	adrp	x0, 87000 <el1_a32_serror+0x80>
   84d94:	911fe001 	add	x1, x0, #0x7f8
   84d98:	b9802fe2 	ldrsw	x2, [sp, #44]
   84d9c:	d2812300 	mov	x0, #0x918                 	// #2328
   84da0:	9b007c40 	mul	x0, x2, x0
   84da4:	8b000020 	add	x0, x1, x0
   84da8:	39244c1f 	strb	wzr, [x0, #2323]
   84dac:	f0000000 	adrp	x0, 87000 <el1_a32_serror+0x80>
   84db0:	911fe001 	add	x1, x0, #0x7f8
   84db4:	b9802fe2 	ldrsw	x2, [sp, #44]
   84db8:	d2812300 	mov	x0, #0x918                 	// #2328
   84dbc:	9b007c40 	mul	x0, x2, x0
   84dc0:	8b000020 	add	x0, x1, x0
   84dc4:	3924401f 	strb	wzr, [x0, #2320]
   84dc8:	f0000000 	adrp	x0, 87000 <el1_a32_serror+0x80>
   84dcc:	911fe001 	add	x1, x0, #0x7f8
   84dd0:	b9802fe2 	ldrsw	x2, [sp, #44]
   84dd4:	d2812300 	mov	x0, #0x918                 	// #2328
   84dd8:	9b007c40 	mul	x0, x2, x0
   84ddc:	8b000020 	add	x0, x1, x0
   84de0:	3924441f 	strb	wzr, [x0, #2321]
   84de4:	b9402fe0 	ldr	w0, [sp, #44]
   84de8:	11000403 	add	w3, w0, #0x1
   84dec:	f0000000 	adrp	x0, 87000 <el1_a32_serror+0x80>
   84df0:	911fe001 	add	x1, x0, #0x7f8
   84df4:	b9802fe2 	ldrsw	x2, [sp, #44]
   84df8:	d2812300 	mov	x0, #0x918                 	// #2328
   84dfc:	9b007c40 	mul	x0, x2, x0
   84e00:	8b000020 	add	x0, x1, x0
   84e04:	b9401c00 	ldr	w0, [x0, #28]
   84e08:	52800002 	mov	w2, #0x0                   	// #0
   84e0c:	2a0003e1 	mov	w1, w0
   84e10:	2a0303e0 	mov	w0, w3
   84e14:	97fff9ae 	bl	834cc <scrSchedule>
   84e18:	b9402fe0 	ldr	w0, [sp, #44]
   84e1c:	11000400 	add	w0, w0, #0x1
   84e20:	14000008 	b	84e40 <KernelCreate+0x1e8>
   84e24:	b9402fe0 	ldr	w0, [sp, #44]
   84e28:	11000400 	add	w0, w0, #0x1
   84e2c:	b9002fe0 	str	w0, [sp, #44]
   84e30:	b9402fe0 	ldr	w0, [sp, #44]
   84e34:	71004c1f 	cmp	w0, #0x13
   84e38:	54fff1ed 	b.le	84c74 <KernelCreate+0x1c>
   84e3c:	12800020 	mov	w0, #0xfffffffe            	// #-2
   84e40:	a8c37bfd 	ldp	x29, x30, [sp], #48
   84e44:	d65f03c0 	ret

0000000000084e48 <Kill>:
   84e48:	d10043ff 	sub	sp, sp, #0x10
   84e4c:	b9000fe0 	str	w0, [sp, #12]
   84e50:	f0000000 	adrp	x0, 87000 <el1_a32_serror+0x80>
   84e54:	911fe001 	add	x1, x0, #0x7f8
   84e58:	b9800fe2 	ldrsw	x2, [sp, #12]
   84e5c:	d2812300 	mov	x0, #0x918                 	// #2328
   84e60:	9b007c40 	mul	x0, x2, x0
   84e64:	8b000020 	add	x0, x1, x0
   84e68:	f900001f 	str	xzr, [x0]
   84e6c:	f0000000 	adrp	x0, 87000 <el1_a32_serror+0x80>
   84e70:	911fe001 	add	x1, x0, #0x7f8
   84e74:	b9800fe2 	ldrsw	x2, [sp, #12]
   84e78:	d2812300 	mov	x0, #0x918                 	// #2328
   84e7c:	9b007c40 	mul	x0, x2, x0
   84e80:	8b000020 	add	x0, x1, x0
   84e84:	f900041f 	str	xzr, [x0, #8]
   84e88:	d503201f 	nop
   84e8c:	910043ff 	add	sp, sp, #0x10
   84e90:	d65f03c0 	ret

0000000000084e94 <Send>:
   84e94:	d10083ff 	sub	sp, sp, #0x20
   84e98:	b9001fe0 	str	w0, [sp, #28]
   84e9c:	f9000be1 	str	x1, [sp, #16]
   84ea0:	b9001be2 	str	w2, [sp, #24]
   84ea4:	f90007e3 	str	x3, [sp, #8]
   84ea8:	b90007e4 	str	w4, [sp, #4]
   84eac:	d40000a1 	svc	#0x5
   84eb0:	d503201f 	nop
   84eb4:	d503201f 	nop
   84eb8:	910083ff 	add	sp, sp, #0x20
   84ebc:	d65f03c0 	ret

0000000000084ec0 <Receive>:
   84ec0:	d10083ff 	sub	sp, sp, #0x20
   84ec4:	f9000fe0 	str	x0, [sp, #24]
   84ec8:	f9000be1 	str	x1, [sp, #16]
   84ecc:	b9000fe2 	str	w2, [sp, #12]
   84ed0:	d40000c1 	svc	#0x6
   84ed4:	d503201f 	nop
   84ed8:	d503201f 	nop
   84edc:	910083ff 	add	sp, sp, #0x20
   84ee0:	d65f03c0 	ret

0000000000084ee4 <Reply>:
   84ee4:	d10043ff 	sub	sp, sp, #0x10
   84ee8:	b9000fe0 	str	w0, [sp, #12]
   84eec:	f90003e1 	str	x1, [sp]
   84ef0:	b9000be2 	str	w2, [sp, #8]
   84ef4:	d40000e1 	svc	#0x7
   84ef8:	d503201f 	nop
   84efc:	d503201f 	nop
   84f00:	910043ff 	add	sp, sp, #0x10
   84f04:	d65f03c0 	ret

0000000000084f08 <MyPriority>:
   84f08:	d10043ff 	sub	sp, sp, #0x10
   84f0c:	b9000fe0 	str	w0, [sp, #12]
   84f10:	d4000101 	svc	#0x8
   84f14:	d503201f 	nop
   84f18:	d503201f 	nop
   84f1c:	910043ff 	add	sp, sp, #0x10
   84f20:	d65f03c0 	ret

0000000000084f24 <MyTid>:
   84f24:	d4000061 	svc	#0x3
   84f28:	d503201f 	nop
   84f2c:	d503201f 	nop
   84f30:	d65f03c0 	ret

0000000000084f34 <MyParentTid>:
   84f34:	d4000081 	svc	#0x4
   84f38:	d503201f 	nop
   84f3c:	d503201f 	nop
   84f40:	d65f03c0 	ret

0000000000084f44 <Create>:
   84f44:	d10043ff 	sub	sp, sp, #0x10
   84f48:	b9000fe0 	str	w0, [sp, #12]
   84f4c:	f90003e1 	str	x1, [sp]
   84f50:	d4000041 	svc	#0x2
   84f54:	d503201f 	nop
   84f58:	d503201f 	nop
   84f5c:	910043ff 	add	sp, sp, #0x10
   84f60:	d65f03c0 	ret

0000000000084f64 <CreateArgs>:
   84f64:	d10083ff 	sub	sp, sp, #0x20
   84f68:	b9001fe0 	str	w0, [sp, #28]
   84f6c:	f9000be1 	str	x1, [sp, #16]
   84f70:	39006fe2 	strb	w2, [sp, #27]
   84f74:	f90007e3 	str	x3, [sp, #8]
   84f78:	d4000041 	svc	#0x2
   84f7c:	d503201f 	nop
   84f80:	d503201f 	nop
   84f84:	910083ff 	add	sp, sp, #0x20
   84f88:	d65f03c0 	ret

0000000000084f8c <Exit>:
   84f8c:	a9bf7bfd 	stp	x29, x30, [sp, #-16]!
   84f90:	910003fd 	mov	x29, sp
   84f94:	97fff5b4 	bl	82664 <Deregister>
   84f98:	d4000001 	svc	#0x0
   84f9c:	d503201f 	nop
   84fa0:	a8c17bfd 	ldp	x29, x30, [sp], #16
   84fa4:	d65f03c0 	ret

0000000000084fa8 <Yield>:
   84fa8:	d4000021 	svc	#0x1
   84fac:	d503201f 	nop
   84fb0:	d65f03c0 	ret

0000000000084fb4 <get_timerLO>:
   84fb4:	d10043ff 	sub	sp, sp, #0x10
   84fb8:	d2860001 	mov	x1, #0x3000                	// #12288
   84fbc:	f2bfc001 	movk	x1, #0xfe00, lsl #16
   84fc0:	52800080 	mov	w0, #0x4                   	// #4
   84fc4:	2a0003e0 	mov	w0, w0
   84fc8:	8b000020 	add	x0, x1, x0
   84fcc:	b9400000 	ldr	w0, [x0]
   84fd0:	b9000fe0 	str	w0, [sp, #12]
   84fd4:	b9400fe0 	ldr	w0, [sp, #12]
   84fd8:	910043ff 	add	sp, sp, #0x10
   84fdc:	d65f03c0 	ret

0000000000084fe0 <get_timerHI>:
   84fe0:	d10043ff 	sub	sp, sp, #0x10
   84fe4:	d2860001 	mov	x1, #0x3000                	// #12288
   84fe8:	f2bfc001 	movk	x1, #0xfe00, lsl #16
   84fec:	52800100 	mov	w0, #0x8                   	// #8
   84ff0:	2a0003e0 	mov	w0, w0
   84ff4:	8b000020 	add	x0, x1, x0
   84ff8:	b9400000 	ldr	w0, [x0]
   84ffc:	b9000fe0 	str	w0, [sp, #12]
   85000:	b9400fe0 	ldr	w0, [sp, #12]
   85004:	910043ff 	add	sp, sp, #0x10
   85008:	d65f03c0 	ret

000000000008500c <a2d>:
   8500c:	d10043ff 	sub	sp, sp, #0x10
   85010:	39003fe0 	strb	w0, [sp, #15]
   85014:	39403fe0 	ldrb	w0, [sp, #15]
   85018:	7100bc1f 	cmp	w0, #0x2f
   8501c:	540000e9 	b.ls	85038 <a2d+0x2c>  // b.plast
   85020:	39403fe0 	ldrb	w0, [sp, #15]
   85024:	7100e41f 	cmp	w0, #0x39
   85028:	54000088 	b.hi	85038 <a2d+0x2c>  // b.pmore
   8502c:	39403fe0 	ldrb	w0, [sp, #15]
   85030:	5100c000 	sub	w0, w0, #0x30
   85034:	14000014 	b	85084 <a2d+0x78>
   85038:	39403fe0 	ldrb	w0, [sp, #15]
   8503c:	7101801f 	cmp	w0, #0x60
   85040:	540000e9 	b.ls	8505c <a2d+0x50>  // b.plast
   85044:	39403fe0 	ldrb	w0, [sp, #15]
   85048:	7101981f 	cmp	w0, #0x66
   8504c:	54000088 	b.hi	8505c <a2d+0x50>  // b.pmore
   85050:	39403fe0 	ldrb	w0, [sp, #15]
   85054:	51015c00 	sub	w0, w0, #0x57
   85058:	1400000b 	b	85084 <a2d+0x78>
   8505c:	39403fe0 	ldrb	w0, [sp, #15]
   85060:	7101001f 	cmp	w0, #0x40
   85064:	540000e9 	b.ls	85080 <a2d+0x74>  // b.plast
   85068:	39403fe0 	ldrb	w0, [sp, #15]
   8506c:	7101181f 	cmp	w0, #0x46
   85070:	54000088 	b.hi	85080 <a2d+0x74>  // b.pmore
   85074:	39403fe0 	ldrb	w0, [sp, #15]
   85078:	5100dc00 	sub	w0, w0, #0x37
   8507c:	14000002 	b	85084 <a2d+0x78>
   85080:	12800000 	mov	w0, #0xffffffff            	// #-1
   85084:	910043ff 	add	sp, sp, #0x10
   85088:	d65f03c0 	ret

000000000008508c <ui2a>:
   8508c:	d10083ff 	sub	sp, sp, #0x20
   85090:	b9000fe0 	str	w0, [sp, #12]
   85094:	b9000be1 	str	w1, [sp, #8]
   85098:	f90003e2 	str	x2, [sp]
   8509c:	b9001fff 	str	wzr, [sp, #28]
   850a0:	52800020 	mov	w0, #0x1                   	// #1
   850a4:	b9001be0 	str	w0, [sp, #24]
   850a8:	14000005 	b	850bc <ui2a+0x30>
   850ac:	b9401be1 	ldr	w1, [sp, #24]
   850b0:	b9400be0 	ldr	w0, [sp, #8]
   850b4:	1b007c20 	mul	w0, w1, w0
   850b8:	b9001be0 	str	w0, [sp, #24]
   850bc:	b9400fe1 	ldr	w1, [sp, #12]
   850c0:	b9401be0 	ldr	w0, [sp, #24]
   850c4:	1ac00820 	udiv	w0, w1, w0
   850c8:	b9400be1 	ldr	w1, [sp, #8]
   850cc:	6b00003f 	cmp	w1, w0
   850d0:	54fffee9 	b.ls	850ac <ui2a+0x20>  // b.plast
   850d4:	1400002a 	b	8517c <ui2a+0xf0>
   850d8:	b9400fe1 	ldr	w1, [sp, #12]
   850dc:	b9401be0 	ldr	w0, [sp, #24]
   850e0:	1ac00820 	udiv	w0, w1, w0
   850e4:	b90017e0 	str	w0, [sp, #20]
   850e8:	b9400fe0 	ldr	w0, [sp, #12]
   850ec:	b9401be1 	ldr	w1, [sp, #24]
   850f0:	1ac10802 	udiv	w2, w0, w1
   850f4:	b9401be1 	ldr	w1, [sp, #24]
   850f8:	1b017c41 	mul	w1, w2, w1
   850fc:	4b010000 	sub	w0, w0, w1
   85100:	b9000fe0 	str	w0, [sp, #12]
   85104:	b9401be1 	ldr	w1, [sp, #24]
   85108:	b9400be0 	ldr	w0, [sp, #8]
   8510c:	1ac00820 	udiv	w0, w1, w0
   85110:	b9001be0 	str	w0, [sp, #24]
   85114:	b9401fe0 	ldr	w0, [sp, #28]
   85118:	7100001f 	cmp	w0, #0x0
   8511c:	540000e1 	b.ne	85138 <ui2a+0xac>  // b.any
   85120:	b94017e0 	ldr	w0, [sp, #20]
   85124:	7100001f 	cmp	w0, #0x0
   85128:	5400008c 	b.gt	85138 <ui2a+0xac>
   8512c:	b9401be0 	ldr	w0, [sp, #24]
   85130:	7100001f 	cmp	w0, #0x0
   85134:	54000241 	b.ne	8517c <ui2a+0xf0>  // b.any
   85138:	b94017e0 	ldr	w0, [sp, #20]
   8513c:	7100241f 	cmp	w0, #0x9
   85140:	5400006c 	b.gt	8514c <ui2a+0xc0>
   85144:	52800601 	mov	w1, #0x30                  	// #48
   85148:	14000002 	b	85150 <ui2a+0xc4>
   8514c:	52800ae1 	mov	w1, #0x57                  	// #87
   85150:	b94017e0 	ldr	w0, [sp, #20]
   85154:	12001c02 	and	w2, w0, #0xff
   85158:	f94003e0 	ldr	x0, [sp]
   8515c:	91000403 	add	x3, x0, #0x1
   85160:	f90003e3 	str	x3, [sp]
   85164:	0b020021 	add	w1, w1, w2
   85168:	12001c21 	and	w1, w1, #0xff
   8516c:	39000001 	strb	w1, [x0]
   85170:	b9401fe0 	ldr	w0, [sp, #28]
   85174:	11000400 	add	w0, w0, #0x1
   85178:	b9001fe0 	str	w0, [sp, #28]
   8517c:	b9401be0 	ldr	w0, [sp, #24]
   85180:	7100001f 	cmp	w0, #0x0
   85184:	54fffaa1 	b.ne	850d8 <ui2a+0x4c>  // b.any
   85188:	f94003e0 	ldr	x0, [sp]
   8518c:	3900001f 	strb	wzr, [x0]
   85190:	d503201f 	nop
   85194:	910083ff 	add	sp, sp, #0x20
   85198:	d65f03c0 	ret

000000000008519c <i2a>:
   8519c:	a9be7bfd 	stp	x29, x30, [sp, #-32]!
   851a0:	910003fd 	mov	x29, sp
   851a4:	b9001fe0 	str	w0, [sp, #28]
   851a8:	f9000be1 	str	x1, [sp, #16]
   851ac:	b9401fe0 	ldr	w0, [sp, #28]
   851b0:	7100001f 	cmp	w0, #0x0
   851b4:	5400012a 	b.ge	851d8 <i2a+0x3c>  // b.tcont
   851b8:	b9401fe0 	ldr	w0, [sp, #28]
   851bc:	4b0003e0 	neg	w0, w0
   851c0:	b9001fe0 	str	w0, [sp, #28]
   851c4:	f9400be0 	ldr	x0, [sp, #16]
   851c8:	91000401 	add	x1, x0, #0x1
   851cc:	f9000be1 	str	x1, [sp, #16]
   851d0:	528005a1 	mov	w1, #0x2d                  	// #45
   851d4:	39000001 	strb	w1, [x0]
   851d8:	b9401fe0 	ldr	w0, [sp, #28]
   851dc:	f9400be2 	ldr	x2, [sp, #16]
   851e0:	52800141 	mov	w1, #0xa                   	// #10
   851e4:	97ffffaa 	bl	8508c <ui2a>
   851e8:	d503201f 	nop
   851ec:	a8c27bfd 	ldp	x29, x30, [sp], #32
   851f0:	d65f03c0 	ret

00000000000851f4 <memset>:
   851f4:	d100c3ff 	sub	sp, sp, #0x30
   851f8:	f9000fe0 	str	x0, [sp, #24]
   851fc:	b90017e1 	str	w1, [sp, #20]
   85200:	f90007e2 	str	x2, [sp, #8]
   85204:	f9400fe0 	ldr	x0, [sp, #24]
   85208:	f90017e0 	str	x0, [sp, #40]
   8520c:	1400000a 	b	85234 <memset+0x40>
   85210:	f94017e0 	ldr	x0, [sp, #40]
   85214:	91000401 	add	x1, x0, #0x1
   85218:	f90017e1 	str	x1, [sp, #40]
   8521c:	b94017e1 	ldr	w1, [sp, #20]
   85220:	12001c21 	and	w1, w1, #0xff
   85224:	39000001 	strb	w1, [x0]
   85228:	f94007e0 	ldr	x0, [sp, #8]
   8522c:	d1000400 	sub	x0, x0, #0x1
   85230:	f90007e0 	str	x0, [sp, #8]
   85234:	f94007e0 	ldr	x0, [sp, #8]
   85238:	f100001f 	cmp	x0, #0x0
   8523c:	54fffea1 	b.ne	85210 <memset+0x1c>  // b.any
   85240:	f9400fe0 	ldr	x0, [sp, #24]
   85244:	9100c3ff 	add	sp, sp, #0x30
   85248:	d65f03c0 	ret

000000000008524c <memcpy>:
   8524c:	d10103ff 	sub	sp, sp, #0x40
   85250:	f9000fe0 	str	x0, [sp, #24]
   85254:	f9000be1 	str	x1, [sp, #16]
   85258:	f90007e2 	str	x2, [sp, #8]
   8525c:	f9400be0 	ldr	x0, [sp, #16]
   85260:	f9001fe0 	str	x0, [sp, #56]
   85264:	f9400fe0 	ldr	x0, [sp, #24]
   85268:	f9001be0 	str	x0, [sp, #48]
   8526c:	f90017ff 	str	xzr, [sp, #40]
   85270:	1400000c 	b	852a0 <memcpy+0x54>
   85274:	f9401fe1 	ldr	x1, [sp, #56]
   85278:	91000420 	add	x0, x1, #0x1
   8527c:	f9001fe0 	str	x0, [sp, #56]
   85280:	f9401be0 	ldr	x0, [sp, #48]
   85284:	91000402 	add	x2, x0, #0x1
   85288:	f9001be2 	str	x2, [sp, #48]
   8528c:	39400021 	ldrb	w1, [x1]
   85290:	39000001 	strb	w1, [x0]
   85294:	f94017e0 	ldr	x0, [sp, #40]
   85298:	91000400 	add	x0, x0, #0x1
   8529c:	f90017e0 	str	x0, [sp, #40]
   852a0:	f94017e1 	ldr	x1, [sp, #40]
   852a4:	f94007e0 	ldr	x0, [sp, #8]
   852a8:	eb00003f 	cmp	x1, x0
   852ac:	54fffe43 	b.cc	85274 <memcpy+0x28>  // b.lo, b.ul, b.last
   852b0:	f9400fe0 	ldr	x0, [sp, #24]
   852b4:	910103ff 	add	sp, sp, #0x40
   852b8:	d65f03c0 	ret

00000000000852bc <print_time>:
   852bc:	d10143ff 	sub	sp, sp, #0x50
   852c0:	a9017bfd 	stp	x29, x30, [sp, #16]
   852c4:	910043fd 	add	x29, sp, #0x10
   852c8:	f9001fe0 	str	x0, [sp, #56]
   852cc:	b90037e1 	str	w1, [sp, #52]
   852d0:	b90033e2 	str	w2, [sp, #48]
   852d4:	f90017e3 	str	x3, [sp, #40]
   852d8:	f9401fe2 	ldr	x2, [sp, #56]
   852dc:	b202e7e0 	mov	x0, #0xcccccccccccccccc    	// #-3689348814741910324
   852e0:	f29999a0 	movk	x0, #0xcccd
   852e4:	9bc07c40 	umulh	x0, x2, x0
   852e8:	d343fc01 	lsr	x1, x0, #3
   852ec:	aa0103e0 	mov	x0, x1
   852f0:	d37ef400 	lsl	x0, x0, #2
   852f4:	8b010000 	add	x0, x0, x1
   852f8:	d37ff800 	lsl	x0, x0, #1
   852fc:	cb000041 	sub	x1, x2, x0
   85300:	2a0103e0 	mov	w0, w1
   85304:	b9004fe0 	str	w0, [sp, #76]
   85308:	f9401fe1 	ldr	x1, [sp, #56]
   8530c:	b202e7e0 	mov	x0, #0xcccccccccccccccc    	// #-3689348814741910324
   85310:	f29999a0 	movk	x0, #0xcccd
   85314:	9bc07c20 	umulh	x0, x1, x0
   85318:	d343fc00 	lsr	x0, x0, #3
   8531c:	f9001fe0 	str	x0, [sp, #56]
   85320:	f9401fe2 	ldr	x2, [sp, #56]
   85324:	b201e3e0 	mov	x0, #0x8888888888888888    	// #-8608480567731124088
   85328:	f2911120 	movk	x0, #0x8889
   8532c:	9bc07c40 	umulh	x0, x2, x0
   85330:	d345fc01 	lsr	x1, x0, #5
   85334:	aa0103e0 	mov	x0, x1
   85338:	d37cec00 	lsl	x0, x0, #4
   8533c:	cb010000 	sub	x0, x0, x1
   85340:	d37ef400 	lsl	x0, x0, #2
   85344:	cb000041 	sub	x1, x2, x0
   85348:	2a0103e0 	mov	w0, w1
   8534c:	b9004be0 	str	w0, [sp, #72]
   85350:	f9401fe1 	ldr	x1, [sp, #56]
   85354:	b201e3e0 	mov	x0, #0x8888888888888888    	// #-8608480567731124088
   85358:	f2911120 	movk	x0, #0x8889
   8535c:	9bc07c20 	umulh	x0, x1, x0
   85360:	d345fc00 	lsr	x0, x0, #5
   85364:	f9001fe0 	str	x0, [sp, #56]
   85368:	f9401fe2 	ldr	x2, [sp, #56]
   8536c:	b201e3e0 	mov	x0, #0x8888888888888888    	// #-8608480567731124088
   85370:	f2911120 	movk	x0, #0x8889
   85374:	9bc07c40 	umulh	x0, x2, x0
   85378:	d345fc01 	lsr	x1, x0, #5
   8537c:	aa0103e0 	mov	x0, x1
   85380:	d37cec00 	lsl	x0, x0, #4
   85384:	cb010000 	sub	x0, x0, x1
   85388:	d37ef400 	lsl	x0, x0, #2
   8538c:	cb000041 	sub	x1, x2, x0
   85390:	2a0103e0 	mov	w0, w1
   85394:	b90047e0 	str	w0, [sp, #68]
   85398:	f9401fe1 	ldr	x1, [sp, #56]
   8539c:	b201e3e0 	mov	x0, #0x8888888888888888    	// #-8608480567731124088
   853a0:	f2911120 	movk	x0, #0x8889
   853a4:	9bc07c20 	umulh	x0, x1, x0
   853a8:	d345fc00 	lsr	x0, x0, #5
   853ac:	f9001fe0 	str	x0, [sp, #56]
   853b0:	f9401fe2 	ldr	x2, [sp, #56]
   853b4:	d342fc41 	lsr	x1, x2, #2
   853b8:	d29eb860 	mov	x0, #0xf5c3                	// #62915
   853bc:	f2ab8500 	movk	x0, #0x5c28, lsl #16
   853c0:	f2d851e0 	movk	x0, #0xc28f, lsl #32
   853c4:	f2e51ea0 	movk	x0, #0x28f5, lsl #48
   853c8:	9bc07c20 	umulh	x0, x1, x0
   853cc:	d342fc01 	lsr	x1, x0, #2
   853d0:	aa0103e0 	mov	x0, x1
   853d4:	d37ff800 	lsl	x0, x0, #1
   853d8:	8b010000 	add	x0, x0, x1
   853dc:	d37df000 	lsl	x0, x0, #3
   853e0:	8b010000 	add	x0, x0, x1
   853e4:	d37ef400 	lsl	x0, x0, #2
   853e8:	cb000041 	sub	x1, x2, x0
   853ec:	2a0103e0 	mov	w0, w1
   853f0:	b90043e0 	str	w0, [sp, #64]
   853f4:	b94033e3 	ldr	w3, [sp, #48]
   853f8:	b94037e2 	ldr	w2, [sp, #52]
   853fc:	d0000000 	adrp	x0, 87000 <el1_a32_serror+0x80>
   85400:	911c2001 	add	x1, x0, #0x708
   85404:	f94017e0 	ldr	x0, [sp, #40]
   85408:	97fff7e1 	bl	8338c <uart_printf>
   8540c:	b94043e1 	ldr	w1, [sp, #64]
   85410:	5290a3e0 	mov	w0, #0x851f                	// #34079
   85414:	72aa3d60 	movk	w0, #0x51eb, lsl #16
   85418:	9ba07c20 	umull	x0, w1, w0
   8541c:	d360fc00 	lsr	x0, x0, #32
   85420:	53057c08 	lsr	w8, w0, #5
   85424:	b94043e1 	ldr	w1, [sp, #64]
   85428:	529999a0 	mov	w0, #0xcccd                	// #52429
   8542c:	72b99980 	movk	w0, #0xcccc, lsl #16
   85430:	9ba07c20 	umull	x0, w1, w0
   85434:	d360fc00 	lsr	x0, x0, #32
   85438:	53037c01 	lsr	w1, w0, #3
   8543c:	529999a0 	mov	w0, #0xcccd                	// #52429
   85440:	72b99980 	movk	w0, #0xcccc, lsl #16
   85444:	9ba07c20 	umull	x0, w1, w0
   85448:	d360fc00 	lsr	x0, x0, #32
   8544c:	53037c02 	lsr	w2, w0, #3
   85450:	2a0203e0 	mov	w0, w2
   85454:	531e7400 	lsl	w0, w0, #2
   85458:	0b020000 	add	w0, w0, w2
   8545c:	531f7800 	lsl	w0, w0, #1
   85460:	4b000022 	sub	w2, w1, w0
   85464:	b94043e1 	ldr	w1, [sp, #64]
   85468:	529999a0 	mov	w0, #0xcccd                	// #52429
   8546c:	72b99980 	movk	w0, #0xcccc, lsl #16
   85470:	9ba07c20 	umull	x0, w1, w0
   85474:	d360fc00 	lsr	x0, x0, #32
   85478:	53037c03 	lsr	w3, w0, #3
   8547c:	2a0303e0 	mov	w0, w3
   85480:	531e7400 	lsl	w0, w0, #2
   85484:	0b030000 	add	w0, w0, w3
   85488:	531f7800 	lsl	w0, w0, #1
   8548c:	4b000023 	sub	w3, w1, w0
   85490:	b94047e1 	ldr	w1, [sp, #68]
   85494:	529999a0 	mov	w0, #0xcccd                	// #52429
   85498:	72b99980 	movk	w0, #0xcccc, lsl #16
   8549c:	9ba07c20 	umull	x0, w1, w0
   854a0:	d360fc00 	lsr	x0, x0, #32
   854a4:	53037c09 	lsr	w9, w0, #3
   854a8:	b94047e1 	ldr	w1, [sp, #68]
   854ac:	529999a0 	mov	w0, #0xcccd                	// #52429
   854b0:	72b99980 	movk	w0, #0xcccc, lsl #16
   854b4:	9ba07c20 	umull	x0, w1, w0
   854b8:	d360fc00 	lsr	x0, x0, #32
   854bc:	53037c04 	lsr	w4, w0, #3
   854c0:	2a0403e0 	mov	w0, w4
   854c4:	531e7400 	lsl	w0, w0, #2
   854c8:	0b040000 	add	w0, w0, w4
   854cc:	531f7800 	lsl	w0, w0, #1
   854d0:	4b000024 	sub	w4, w1, w0
   854d4:	b9404be1 	ldr	w1, [sp, #72]
   854d8:	529999a0 	mov	w0, #0xcccd                	// #52429
   854dc:	72b99980 	movk	w0, #0xcccc, lsl #16
   854e0:	9ba07c20 	umull	x0, w1, w0
   854e4:	d360fc00 	lsr	x0, x0, #32
   854e8:	53037c06 	lsr	w6, w0, #3
   854ec:	b9404be5 	ldr	w5, [sp, #72]
   854f0:	529999a0 	mov	w0, #0xcccd                	// #52429
   854f4:	72b99980 	movk	w0, #0xcccc, lsl #16
   854f8:	9ba07ca0 	umull	x0, w5, w0
   854fc:	d360fc00 	lsr	x0, x0, #32
   85500:	53037c01 	lsr	w1, w0, #3
   85504:	2a0103e0 	mov	w0, w1
   85508:	531e7400 	lsl	w0, w0, #2
   8550c:	0b010000 	add	w0, w0, w1
   85510:	531f7800 	lsl	w0, w0, #1
   85514:	4b0000a1 	sub	w1, w5, w0
   85518:	b9404fe0 	ldr	w0, [sp, #76]
   8551c:	b9000be0 	str	w0, [sp, #8]
   85520:	b90003e1 	str	w1, [sp]
   85524:	2a0603e7 	mov	w7, w6
   85528:	2a0403e6 	mov	w6, w4
   8552c:	2a0903e5 	mov	w5, w9
   85530:	2a0303e4 	mov	w4, w3
   85534:	2a0203e3 	mov	w3, w2
   85538:	2a0803e2 	mov	w2, w8
   8553c:	d0000000 	adrp	x0, 87000 <el1_a32_serror+0x80>
   85540:	911c6001 	add	x1, x0, #0x718
   85544:	f94017e0 	ldr	x0, [sp, #40]
   85548:	97fff791 	bl	8338c <uart_printf>
   8554c:	b9404be0 	ldr	w0, [sp, #72]
   85550:	12000400 	and	w0, w0, #0x3
   85554:	7100001f 	cmp	w0, #0x0
   85558:	540000c1 	b.ne	85570 <print_time+0x2b4>  // b.any
   8555c:	d0000000 	adrp	x0, 87000 <el1_a32_serror+0x80>
   85560:	911ce001 	add	x1, x0, #0x738
   85564:	f94017e0 	ldr	x0, [sp, #40]
   85568:	97fff789 	bl	8338c <uart_printf>
   8556c:	1400001c 	b	855dc <print_time+0x320>
   85570:	b9404be0 	ldr	w0, [sp, #72]
   85574:	12000400 	and	w0, w0, #0x3
   85578:	7100041f 	cmp	w0, #0x1
   8557c:	540000c1 	b.ne	85594 <print_time+0x2d8>  // b.any
   85580:	d0000000 	adrp	x0, 87000 <el1_a32_serror+0x80>
   85584:	911d0001 	add	x1, x0, #0x740
   85588:	f94017e0 	ldr	x0, [sp, #40]
   8558c:	97fff780 	bl	8338c <uart_printf>
   85590:	14000013 	b	855dc <print_time+0x320>
   85594:	b9404be0 	ldr	w0, [sp, #72]
   85598:	12000400 	and	w0, w0, #0x3
   8559c:	7100081f 	cmp	w0, #0x2
   855a0:	540000c1 	b.ne	855b8 <print_time+0x2fc>  // b.any
   855a4:	d0000000 	adrp	x0, 87000 <el1_a32_serror+0x80>
   855a8:	911d2001 	add	x1, x0, #0x748
   855ac:	f94017e0 	ldr	x0, [sp, #40]
   855b0:	97fff777 	bl	8338c <uart_printf>
   855b4:	1400000a 	b	855dc <print_time+0x320>
   855b8:	b9404be0 	ldr	w0, [sp, #72]
   855bc:	12000400 	and	w0, w0, #0x3
   855c0:	71000c1f 	cmp	w0, #0x3
   855c4:	540000c1 	b.ne	855dc <print_time+0x320>  // b.any
   855c8:	d0000000 	adrp	x0, 87000 <el1_a32_serror+0x80>
   855cc:	911d4001 	add	x1, x0, #0x750
   855d0:	f94017e0 	ldr	x0, [sp, #40]
   855d4:	97fff76e 	bl	8338c <uart_printf>
   855d8:	d503201f 	nop
   855dc:	d503201f 	nop
   855e0:	a9417bfd 	ldp	x29, x30, [sp, #16]
   855e4:	910143ff 	add	sp, sp, #0x50
   855e8:	d65f03c0 	ret

00000000000855ec <print_mstime>:
   855ec:	a9bc7bfd 	stp	x29, x30, [sp, #-64]!
   855f0:	910003fd 	mov	x29, sp
   855f4:	f90017e0 	str	x0, [sp, #40]
   855f8:	b90027e1 	str	w1, [sp, #36]
   855fc:	f9000fe2 	str	x2, [sp, #24]
   85600:	b90023e3 	str	w3, [sp, #32]
   85604:	528000a0 	mov	w0, #0x5                   	// #5
   85608:	b9003fe0 	str	w0, [sp, #60]
   8560c:	52800820 	mov	w0, #0x41                  	// #65
   85610:	b9003be0 	str	w0, [sp, #56]
   85614:	52800080 	mov	w0, #0x4                   	// #4
   85618:	b90037e0 	str	w0, [sp, #52]
   8561c:	52800160 	mov	w0, #0xb                   	// #11
   85620:	b90033e0 	str	w0, [sp, #48]
   85624:	d0000000 	adrp	x0, 87000 <el1_a32_serror+0x80>
   85628:	911d6001 	add	x1, x0, #0x758
   8562c:	f9400fe0 	ldr	x0, [sp, #24]
   85630:	97fff757 	bl	8338c <uart_printf>
   85634:	f94017e0 	ldr	x0, [sp, #40]
   85638:	d342fc01 	lsr	x1, x0, #2
   8563c:	d29eb860 	mov	x0, #0xf5c3                	// #62915
   85640:	f2ab8500 	movk	x0, #0x5c28, lsl #16
   85644:	f2d851e0 	movk	x0, #0xc28f, lsl #32
   85648:	f2e51ea0 	movk	x0, #0x28f5, lsl #48
   8564c:	9bc07c20 	umulh	x0, x1, x0
   85650:	d342fc00 	lsr	x0, x0, #2
   85654:	f90017e0 	str	x0, [sp, #40]
   85658:	b94027e0 	ldr	w0, [sp, #36]
   8565c:	12000001 	and	w1, w0, #0x1
   85660:	b94037e0 	ldr	w0, [sp, #52]
   85664:	1b007c21 	mul	w1, w1, w0
   85668:	b9403fe0 	ldr	w0, [sp, #60]
   8566c:	0b000021 	add	w1, w1, w0
   85670:	b94023e0 	ldr	w0, [sp, #32]
   85674:	0b000022 	add	w2, w1, w0
   85678:	b94027e0 	ldr	w0, [sp, #36]
   8567c:	53017c01 	lsr	w1, w0, #1
   85680:	b94033e0 	ldr	w0, [sp, #48]
   85684:	1b007c21 	mul	w1, w1, w0
   85688:	b9403be0 	ldr	w0, [sp, #56]
   8568c:	0b000020 	add	w0, w1, w0
   85690:	2a0003e3 	mov	w3, w0
   85694:	d0000000 	adrp	x0, 87000 <el1_a32_serror+0x80>
   85698:	911c2001 	add	x1, x0, #0x708
   8569c:	f9400fe0 	ldr	x0, [sp, #24]
   856a0:	97fff73b 	bl	8338c <uart_printf>
   856a4:	f94017e1 	ldr	x1, [sp, #40]
   856a8:	d290d3e0 	mov	x0, #0x869f                	// #34463
   856ac:	f2a00020 	movk	x0, #0x1, lsl #16
   856b0:	eb00003f 	cmp	x1, x0
   856b4:	540000c9 	b.ls	856cc <print_mstime+0xe0>  // b.plast
   856b8:	d0000000 	adrp	x0, 87000 <el1_a32_serror+0x80>
   856bc:	911d8001 	add	x1, x0, #0x760
   856c0:	f9400fe0 	ldr	x0, [sp, #24]
   856c4:	97fff732 	bl	8338c <uart_printf>
   856c8:	1400004b 	b	857f4 <print_mstime+0x208>
   856cc:	f94017e1 	ldr	x1, [sp, #40]
   856d0:	d28b2960 	mov	x0, #0x594b                	// #22859
   856d4:	f2a710c0 	movk	x0, #0x3886, lsl #16
   856d8:	f2d8bac0 	movk	x0, #0xc5d6, lsl #32
   856dc:	f2e68da0 	movk	x0, #0x346d, lsl #48
   856e0:	9bc07c20 	umulh	x0, x1, x0
   856e4:	d34bfc07 	lsr	x7, x0, #11
   856e8:	f94017e0 	ldr	x0, [sp, #40]
   856ec:	d343fc01 	lsr	x1, x0, #3
   856f0:	d29ef9e0 	mov	x0, #0xf7cf                	// #63439
   856f4:	f2bc6a60 	movk	x0, #0xe353, lsl #16
   856f8:	f2d374a0 	movk	x0, #0x9ba5, lsl #32
   856fc:	f2e41880 	movk	x0, #0x20c4, lsl #48
   85700:	9bc07c20 	umulh	x0, x1, x0
   85704:	d344fc02 	lsr	x2, x0, #4
   85708:	b202e7e0 	mov	x0, #0xcccccccccccccccc    	// #-3689348814741910324
   8570c:	f29999a0 	movk	x0, #0xcccd
   85710:	9bc07c40 	umulh	x0, x2, x0
   85714:	d343fc01 	lsr	x1, x0, #3
   85718:	aa0103e0 	mov	x0, x1
   8571c:	d37ef400 	lsl	x0, x0, #2
   85720:	8b010000 	add	x0, x0, x1
   85724:	d37ff800 	lsl	x0, x0, #1
   85728:	cb000041 	sub	x1, x2, x0
   8572c:	f94017e0 	ldr	x0, [sp, #40]
   85730:	d342fc02 	lsr	x2, x0, #2
   85734:	d29eb860 	mov	x0, #0xf5c3                	// #62915
   85738:	f2ab8500 	movk	x0, #0x5c28, lsl #16
   8573c:	f2d851e0 	movk	x0, #0xc28f, lsl #32
   85740:	f2e51ea0 	movk	x0, #0x28f5, lsl #48
   85744:	9bc07c40 	umulh	x0, x2, x0
   85748:	d342fc03 	lsr	x3, x0, #2
   8574c:	b202e7e0 	mov	x0, #0xcccccccccccccccc    	// #-3689348814741910324
   85750:	f29999a0 	movk	x0, #0xcccd
   85754:	9bc07c60 	umulh	x0, x3, x0
   85758:	d343fc02 	lsr	x2, x0, #3
   8575c:	aa0203e0 	mov	x0, x2
   85760:	d37ef400 	lsl	x0, x0, #2
   85764:	8b020000 	add	x0, x0, x2
   85768:	d37ff800 	lsl	x0, x0, #1
   8576c:	cb000062 	sub	x2, x3, x0
   85770:	f94017e3 	ldr	x3, [sp, #40]
   85774:	b202e7e0 	mov	x0, #0xcccccccccccccccc    	// #-3689348814741910324
   85778:	f29999a0 	movk	x0, #0xcccd
   8577c:	9bc07c60 	umulh	x0, x3, x0
   85780:	d343fc04 	lsr	x4, x0, #3
   85784:	b202e7e0 	mov	x0, #0xcccccccccccccccc    	// #-3689348814741910324
   85788:	f29999a0 	movk	x0, #0xcccd
   8578c:	9bc07c80 	umulh	x0, x4, x0
   85790:	d343fc03 	lsr	x3, x0, #3
   85794:	aa0303e0 	mov	x0, x3
   85798:	d37ef400 	lsl	x0, x0, #2
   8579c:	8b030000 	add	x0, x0, x3
   857a0:	d37ff800 	lsl	x0, x0, #1
   857a4:	cb000083 	sub	x3, x4, x0
   857a8:	f94017e5 	ldr	x5, [sp, #40]
   857ac:	b202e7e0 	mov	x0, #0xcccccccccccccccc    	// #-3689348814741910324
   857b0:	f29999a0 	movk	x0, #0xcccd
   857b4:	9bc07ca0 	umulh	x0, x5, x0
   857b8:	d343fc04 	lsr	x4, x0, #3
   857bc:	aa0403e0 	mov	x0, x4
   857c0:	d37ef400 	lsl	x0, x0, #2
   857c4:	8b040000 	add	x0, x0, x4
   857c8:	d37ff800 	lsl	x0, x0, #1
   857cc:	cb0000a4 	sub	x4, x5, x0
   857d0:	aa0403e6 	mov	x6, x4
   857d4:	aa0303e5 	mov	x5, x3
   857d8:	aa0203e4 	mov	x4, x2
   857dc:	aa0103e3 	mov	x3, x1
   857e0:	aa0703e2 	mov	x2, x7
   857e4:	d0000000 	adrp	x0, 87000 <el1_a32_serror+0x80>
   857e8:	911da001 	add	x1, x0, #0x768
   857ec:	f9400fe0 	ldr	x0, [sp, #24]
   857f0:	97fff6e7 	bl	8338c <uart_printf>
   857f4:	d0000000 	adrp	x0, 87000 <el1_a32_serror+0x80>
   857f8:	911de001 	add	x1, x0, #0x778
   857fc:	f9400fe0 	ldr	x0, [sp, #24]
   85800:	97fff6e3 	bl	8338c <uart_printf>
   85804:	d503201f 	nop
   85808:	a8c47bfd 	ldp	x29, x30, [sp], #64
   8580c:	d65f03c0 	ret

0000000000085810 <print_tspeed>:
   85810:	a9bb7bfd 	stp	x29, x30, [sp, #-80]!
   85814:	910003fd 	mov	x29, sp
   85818:	f90017e0 	str	x0, [sp, #40]
   8581c:	f90013e1 	str	x1, [sp, #32]
   85820:	f9000fe2 	str	x2, [sp, #24]
   85824:	528001c0 	mov	w0, #0xe                   	// #14
   85828:	b90047e0 	str	w0, [sp, #68]
   8582c:	528001a0 	mov	w0, #0xd                   	// #13
   85830:	b90043e0 	str	w0, [sp, #64]
   85834:	52800200 	mov	w0, #0x10                  	// #16
   85838:	b9003fe0 	str	w0, [sp, #60]
   8583c:	52800020 	mov	w0, #0x1                   	// #1
   85840:	b9004fe0 	str	w0, [sp, #76]
   85844:	b9004bff 	str	wzr, [sp, #72]
   85848:	14000079 	b	85a2c <print_tspeed+0x21c>
   8584c:	b9404be0 	ldr	w0, [sp, #72]
   85850:	d37ef400 	lsl	x0, x0, #2
   85854:	f94017e1 	ldr	x1, [sp, #40]
   85858:	8b000020 	add	x0, x1, x0
   8585c:	b9400000 	ldr	w0, [x0]
   85860:	7100001f 	cmp	w0, #0x0
   85864:	54000de0 	b.eq	85a20 <print_tspeed+0x210>  // b.none
   85868:	b9404be0 	ldr	w0, [sp, #72]
   8586c:	d37ef400 	lsl	x0, x0, #2
   85870:	f94017e1 	ldr	x1, [sp, #40]
   85874:	8b000020 	add	x0, x1, x0
   85878:	b9400000 	ldr	w0, [x0]
   8587c:	b9003be0 	str	w0, [sp, #56]
   85880:	b9404fe2 	ldr	w2, [sp, #76]
   85884:	528aaac0 	mov	w0, #0x5556                	// #21846
   85888:	72aaaaa0 	movk	w0, #0x5555, lsl #16
   8588c:	9b207c40 	smull	x0, w2, w0
   85890:	d360fc01 	lsr	x1, x0, #32
   85894:	131f7c40 	asr	w0, w2, #31
   85898:	4b000021 	sub	w1, w1, w0
   8589c:	2a0103e0 	mov	w0, w1
   858a0:	531f7800 	lsl	w0, w0, #1
   858a4:	0b010000 	add	w0, w0, w1
   858a8:	4b000041 	sub	w1, w2, w0
   858ac:	b94047e0 	ldr	w0, [sp, #68]
   858b0:	0b000022 	add	w2, w1, w0
   858b4:	b9404fe0 	ldr	w0, [sp, #76]
   858b8:	528aaac1 	mov	w1, #0x5556                	// #21846
   858bc:	72aaaaa1 	movk	w1, #0x5555, lsl #16
   858c0:	9b217c01 	smull	x1, w0, w1
   858c4:	d360fc21 	lsr	x1, x1, #32
   858c8:	131f7c00 	asr	w0, w0, #31
   858cc:	4b000021 	sub	w1, w1, w0
   858d0:	b9403fe0 	ldr	w0, [sp, #60]
   858d4:	1b007c21 	mul	w1, w1, w0
   858d8:	b94043e0 	ldr	w0, [sp, #64]
   858dc:	0b000020 	add	w0, w1, w0
   858e0:	2a0003e3 	mov	w3, w0
   858e4:	d0000000 	adrp	x0, 87000 <el1_a32_serror+0x80>
   858e8:	911c2001 	add	x1, x0, #0x708
   858ec:	f9400fe0 	ldr	x0, [sp, #24]
   858f0:	97fff6a7 	bl	8338c <uart_printf>
   858f4:	b9403be0 	ldr	w0, [sp, #56]
   858f8:	3100041f 	cmn	w0, #0x1
   858fc:	54000321 	b.ne	85960 <print_tspeed+0x150>  // b.any
   85900:	b9404be1 	ldr	w1, [sp, #72]
   85904:	529999a0 	mov	w0, #0xcccd                	// #52429
   85908:	72b99980 	movk	w0, #0xcccc, lsl #16
   8590c:	9ba07c20 	umull	x0, w1, w0
   85910:	d360fc00 	lsr	x0, x0, #32
   85914:	53037c04 	lsr	w4, w0, #3
   85918:	b9404be2 	ldr	w2, [sp, #72]
   8591c:	529999a0 	mov	w0, #0xcccd                	// #52429
   85920:	72b99980 	movk	w0, #0xcccc, lsl #16
   85924:	9ba07c40 	umull	x0, w2, w0
   85928:	d360fc00 	lsr	x0, x0, #32
   8592c:	53037c01 	lsr	w1, w0, #3
   85930:	2a0103e0 	mov	w0, w1
   85934:	531e7400 	lsl	w0, w0, #2
   85938:	0b010000 	add	w0, w0, w1
   8593c:	531f7800 	lsl	w0, w0, #1
   85940:	4b000041 	sub	w1, w2, w0
   85944:	2a0103e3 	mov	w3, w1
   85948:	2a0403e2 	mov	w2, w4
   8594c:	d0000000 	adrp	x0, 87000 <el1_a32_serror+0x80>
   85950:	911e0001 	add	x1, x0, #0x780
   85954:	f9400fe0 	ldr	x0, [sp, #24]
   85958:	97fff68d 	bl	8338c <uart_printf>
   8595c:	1400002e 	b	85a14 <print_tspeed+0x204>
   85960:	b9404be1 	ldr	w1, [sp, #72]
   85964:	529999a0 	mov	w0, #0xcccd                	// #52429
   85968:	72b99980 	movk	w0, #0xcccc, lsl #16
   8596c:	9ba07c20 	umull	x0, w1, w0
   85970:	d360fc00 	lsr	x0, x0, #32
   85974:	53037c06 	lsr	w6, w0, #3
   85978:	b9404be2 	ldr	w2, [sp, #72]
   8597c:	529999a0 	mov	w0, #0xcccd                	// #52429
   85980:	72b99980 	movk	w0, #0xcccc, lsl #16
   85984:	9ba07c40 	umull	x0, w2, w0
   85988:	d360fc00 	lsr	x0, x0, #32
   8598c:	53037c01 	lsr	w1, w0, #3
   85990:	2a0103e0 	mov	w0, w1
   85994:	531e7400 	lsl	w0, w0, #2
   85998:	0b010000 	add	w0, w0, w1
   8599c:	531f7800 	lsl	w0, w0, #1
   859a0:	4b000041 	sub	w1, w2, w0
   859a4:	b9403be0 	ldr	w0, [sp, #56]
   859a8:	528ccce2 	mov	w2, #0x6667                	// #26215
   859ac:	72acccc2 	movk	w2, #0x6666, lsl #16
   859b0:	9b227c02 	smull	x2, w0, w2
   859b4:	d360fc42 	lsr	x2, x2, #32
   859b8:	13027c42 	asr	w2, w2, #2
   859bc:	131f7c00 	asr	w0, w0, #31
   859c0:	4b000044 	sub	w4, w2, w0
   859c4:	b9403be3 	ldr	w3, [sp, #56]
   859c8:	528ccce0 	mov	w0, #0x6667                	// #26215
   859cc:	72acccc0 	movk	w0, #0x6666, lsl #16
   859d0:	9b207c60 	smull	x0, w3, w0
   859d4:	d360fc00 	lsr	x0, x0, #32
   859d8:	13027c02 	asr	w2, w0, #2
   859dc:	131f7c60 	asr	w0, w3, #31
   859e0:	4b000042 	sub	w2, w2, w0
   859e4:	2a0203e0 	mov	w0, w2
   859e8:	531e7400 	lsl	w0, w0, #2
   859ec:	0b020000 	add	w0, w0, w2
   859f0:	531f7800 	lsl	w0, w0, #1
   859f4:	4b000062 	sub	w2, w3, w0
   859f8:	2a0203e5 	mov	w5, w2
   859fc:	2a0103e3 	mov	w3, w1
   85a00:	2a0603e2 	mov	w2, w6
   85a04:	d0000000 	adrp	x0, 87000 <el1_a32_serror+0x80>
   85a08:	911e6001 	add	x1, x0, #0x798
   85a0c:	f9400fe0 	ldr	x0, [sp, #24]
   85a10:	97fff65f 	bl	8338c <uart_printf>
   85a14:	b9404fe0 	ldr	w0, [sp, #76]
   85a18:	11000400 	add	w0, w0, #0x1
   85a1c:	b9004fe0 	str	w0, [sp, #76]
   85a20:	b9404be0 	ldr	w0, [sp, #72]
   85a24:	11000400 	add	w0, w0, #0x1
   85a28:	b9004be0 	str	w0, [sp, #72]
   85a2c:	b9404be0 	ldr	w0, [sp, #72]
   85a30:	f94013e1 	ldr	x1, [sp, #32]
   85a34:	eb00003f 	cmp	x1, x0
   85a38:	54fff0a8 	b.hi	8584c <print_tspeed+0x3c>  // b.pmore
   85a3c:	14000025 	b	85ad0 <print_tspeed+0x2c0>
   85a40:	b9404fe2 	ldr	w2, [sp, #76]
   85a44:	528aaac0 	mov	w0, #0x5556                	// #21846
   85a48:	72aaaaa0 	movk	w0, #0x5555, lsl #16
   85a4c:	9b207c40 	smull	x0, w2, w0
   85a50:	d360fc01 	lsr	x1, x0, #32
   85a54:	131f7c40 	asr	w0, w2, #31
   85a58:	4b000021 	sub	w1, w1, w0
   85a5c:	2a0103e0 	mov	w0, w1
   85a60:	531f7800 	lsl	w0, w0, #1
   85a64:	0b010000 	add	w0, w0, w1
   85a68:	4b000041 	sub	w1, w2, w0
   85a6c:	b94047e0 	ldr	w0, [sp, #68]
   85a70:	0b000022 	add	w2, w1, w0
   85a74:	b9404fe0 	ldr	w0, [sp, #76]
   85a78:	528aaac1 	mov	w1, #0x5556                	// #21846
   85a7c:	72aaaaa1 	movk	w1, #0x5555, lsl #16
   85a80:	9b217c01 	smull	x1, w0, w1
   85a84:	d360fc21 	lsr	x1, x1, #32
   85a88:	131f7c00 	asr	w0, w0, #31
   85a8c:	4b000021 	sub	w1, w1, w0
   85a90:	b9403fe0 	ldr	w0, [sp, #60]
   85a94:	1b007c21 	mul	w1, w1, w0
   85a98:	b94043e0 	ldr	w0, [sp, #64]
   85a9c:	0b000020 	add	w0, w1, w0
   85aa0:	2a0003e3 	mov	w3, w0
   85aa4:	d0000000 	adrp	x0, 87000 <el1_a32_serror+0x80>
   85aa8:	911c2001 	add	x1, x0, #0x708
   85aac:	f9400fe0 	ldr	x0, [sp, #24]
   85ab0:	97fff637 	bl	8338c <uart_printf>
   85ab4:	d0000000 	adrp	x0, 87000 <el1_a32_serror+0x80>
   85ab8:	911ec001 	add	x1, x0, #0x7b0
   85abc:	f9400fe0 	ldr	x0, [sp, #24]
   85ac0:	97fff633 	bl	8338c <uart_printf>
   85ac4:	b9404fe0 	ldr	w0, [sp, #76]
   85ac8:	11000400 	add	w0, w0, #0x1
   85acc:	b9004fe0 	str	w0, [sp, #76]
   85ad0:	b9404fe0 	ldr	w0, [sp, #76]
   85ad4:	7100201f 	cmp	w0, #0x8
   85ad8:	54fffb4d 	b.le	85a40 <print_tspeed+0x230>
   85adc:	d0000000 	adrp	x0, 87000 <el1_a32_serror+0x80>
   85ae0:	911de001 	add	x1, x0, #0x778
   85ae4:	f9400fe0 	ldr	x0, [sp, #24]
   85ae8:	97fff629 	bl	8338c <uart_printf>
   85aec:	d503201f 	nop
   85af0:	a8c57bfd 	ldp	x29, x30, [sp], #80
   85af4:	d65f03c0 	ret

0000000000085af8 <print_sensors>:
   85af8:	a9bc7bfd 	stp	x29, x30, [sp, #-64]!
   85afc:	910003fd 	mov	x29, sp
   85b00:	f90017e0 	str	x0, [sp, #40]
   85b04:	f90013e1 	str	x1, [sp, #32]
   85b08:	b9001fe2 	str	w2, [sp, #28]
   85b0c:	b9001be3 	str	w3, [sp, #24]
   85b10:	f9000be4 	str	x4, [sp, #16]
   85b14:	d0000000 	adrp	x0, 87000 <el1_a32_serror+0x80>
   85b18:	911d6001 	add	x1, x0, #0x758
   85b1c:	f9400be0 	ldr	x0, [sp, #16]
   85b20:	97fff61b 	bl	8338c <uart_printf>
   85b24:	b9003fff 	str	wzr, [sp, #60]
   85b28:	14000041 	b	85c2c <print_sensors+0x134>
   85b2c:	b9403fe0 	ldr	w0, [sp, #60]
   85b30:	d37ef400 	lsl	x0, x0, #2
   85b34:	f94017e1 	ldr	x1, [sp, #40]
   85b38:	8b000020 	add	x0, x1, x0
   85b3c:	b9400000 	ldr	w0, [x0]
   85b40:	7100001f 	cmp	w0, #0x0
   85b44:	540006e0 	b.eq	85c20 <print_sensors+0x128>  // b.none
   85b48:	b9401be1 	ldr	w1, [sp, #24]
   85b4c:	b9403fe0 	ldr	w0, [sp, #60]
   85b50:	0b000020 	add	w0, w1, w0
   85b54:	b9401fe3 	ldr	w3, [sp, #28]
   85b58:	2a0003e2 	mov	w2, w0
   85b5c:	d0000000 	adrp	x0, 87000 <el1_a32_serror+0x80>
   85b60:	911c2001 	add	x1, x0, #0x708
   85b64:	f9400be0 	ldr	x0, [sp, #16]
   85b68:	97fff609 	bl	8338c <uart_printf>
   85b6c:	52800820 	mov	w0, #0x41                  	// #65
   85b70:	3900efe0 	strb	w0, [sp, #59]
   85b74:	b9403fe0 	ldr	w0, [sp, #60]
   85b78:	d37ef400 	lsl	x0, x0, #2
   85b7c:	f94017e1 	ldr	x1, [sp, #40]
   85b80:	8b000020 	add	x0, x1, x0
   85b84:	b9400000 	ldr	w0, [x0]
   85b88:	528f0f21 	mov	w1, #0x7879                	// #30841
   85b8c:	72af0f01 	movk	w1, #0x7878, lsl #16
   85b90:	9b217c01 	smull	x1, w0, w1
   85b94:	d360fc21 	lsr	x1, x1, #32
   85b98:	13037c21 	asr	w1, w1, #3
   85b9c:	131f7c00 	asr	w0, w0, #31
   85ba0:	4b000020 	sub	w0, w1, w0
   85ba4:	12001c00 	and	w0, w0, #0xff
   85ba8:	3940efe1 	ldrb	w1, [sp, #59]
   85bac:	0b010000 	add	w0, w0, w1
   85bb0:	12001c00 	and	w0, w0, #0xff
   85bb4:	2a0003e1 	mov	w1, w0
   85bb8:	f9400be0 	ldr	x0, [sp, #16]
   85bbc:	97fff4ff 	bl	82fb8 <uart_putc>
   85bc0:	b9403fe0 	ldr	w0, [sp, #60]
   85bc4:	d37ef400 	lsl	x0, x0, #2
   85bc8:	f94017e1 	ldr	x1, [sp, #40]
   85bcc:	8b000020 	add	x0, x1, x0
   85bd0:	b9400002 	ldr	w2, [x0]
   85bd4:	528f0f20 	mov	w0, #0x7879                	// #30841
   85bd8:	72af0f00 	movk	w0, #0x7878, lsl #16
   85bdc:	9b207c40 	smull	x0, w2, w0
   85be0:	d360fc00 	lsr	x0, x0, #32
   85be4:	13037c01 	asr	w1, w0, #3
   85be8:	131f7c40 	asr	w0, w2, #31
   85bec:	4b000021 	sub	w1, w1, w0
   85bf0:	2a0103e0 	mov	w0, w1
   85bf4:	531c6c00 	lsl	w0, w0, #4
   85bf8:	0b010000 	add	w0, w0, w1
   85bfc:	4b000041 	sub	w1, w2, w0
   85c00:	2a0103e2 	mov	w2, w1
   85c04:	d0000000 	adrp	x0, 87000 <el1_a32_serror+0x80>
   85c08:	911ee001 	add	x1, x0, #0x7b8
   85c0c:	f9400be0 	ldr	x0, [sp, #16]
   85c10:	97fff5df 	bl	8338c <uart_printf>
   85c14:	52800401 	mov	w1, #0x20                  	// #32
   85c18:	f9400be0 	ldr	x0, [sp, #16]
   85c1c:	97fff4e7 	bl	82fb8 <uart_putc>
   85c20:	b9403fe0 	ldr	w0, [sp, #60]
   85c24:	11000400 	add	w0, w0, #0x1
   85c28:	b9003fe0 	str	w0, [sp, #60]
   85c2c:	b9403fe0 	ldr	w0, [sp, #60]
   85c30:	f94013e1 	ldr	x1, [sp, #32]
   85c34:	eb00003f 	cmp	x1, x0
   85c38:	54fff7a8 	b.hi	85b2c <print_sensors+0x34>  // b.pmore
   85c3c:	d0000000 	adrp	x0, 87000 <el1_a32_serror+0x80>
   85c40:	911de001 	add	x1, x0, #0x778
   85c44:	f9400be0 	ldr	x0, [sp, #16]
   85c48:	97fff5d1 	bl	8338c <uart_printf>
   85c4c:	d503201f 	nop
   85c50:	a8c47bfd 	ldp	x29, x30, [sp], #64
   85c54:	d65f03c0 	ret

0000000000085c58 <sensor_push>:
   85c58:	d100c3ff 	sub	sp, sp, #0x30
   85c5c:	b9001fe0 	str	w0, [sp, #28]
   85c60:	f9000be1 	str	x1, [sp, #16]
   85c64:	f90007e2 	str	x2, [sp, #8]
   85c68:	b9002fff 	str	wzr, [sp, #44]
   85c6c:	14000012 	b	85cb4 <sensor_push+0x5c>
   85c70:	b9402fe0 	ldr	w0, [sp, #44]
   85c74:	d37ef400 	lsl	x0, x0, #2
   85c78:	f9400be1 	ldr	x1, [sp, #16]
   85c7c:	8b000020 	add	x0, x1, x0
   85c80:	b9400000 	ldr	w0, [x0]
   85c84:	b9002be0 	str	w0, [sp, #40]
   85c88:	b9402fe0 	ldr	w0, [sp, #44]
   85c8c:	d37ef400 	lsl	x0, x0, #2
   85c90:	f9400be1 	ldr	x1, [sp, #16]
   85c94:	8b000020 	add	x0, x1, x0
   85c98:	b9401fe1 	ldr	w1, [sp, #28]
   85c9c:	b9000001 	str	w1, [x0]
   85ca0:	b9402be0 	ldr	w0, [sp, #40]
   85ca4:	b9001fe0 	str	w0, [sp, #28]
   85ca8:	b9402fe0 	ldr	w0, [sp, #44]
   85cac:	11000400 	add	w0, w0, #0x1
   85cb0:	b9002fe0 	str	w0, [sp, #44]
   85cb4:	b9402fe0 	ldr	w0, [sp, #44]
   85cb8:	f94007e1 	ldr	x1, [sp, #8]
   85cbc:	eb00003f 	cmp	x1, x0
   85cc0:	54fffd88 	b.hi	85c70 <sensor_push+0x18>  // b.pmore
   85cc4:	d503201f 	nop
   85cc8:	9100c3ff 	add	sp, sp, #0x30
   85ccc:	d65f03c0 	ret

0000000000085cd0 <print_switch>:
   85cd0:	a9bc7bfd 	stp	x29, x30, [sp, #-64]!
   85cd4:	910003fd 	mov	x29, sp
   85cd8:	b9001fe0 	str	w0, [sp, #28]
   85cdc:	39006fe1 	strb	w1, [sp, #27]
   85ce0:	f9000be2 	str	x2, [sp, #16]
   85ce4:	52800080 	mov	w0, #0x4                   	// #4
   85ce8:	b9003fe0 	str	w0, [sp, #60]
   85cec:	52800140 	mov	w0, #0xa                   	// #10
   85cf0:	b9003be0 	str	w0, [sp, #56]
   85cf4:	52800120 	mov	w0, #0x9                   	// #9
   85cf8:	b90037e0 	str	w0, [sp, #52]
   85cfc:	52800140 	mov	w0, #0xa                   	// #10
   85d00:	b90033e0 	str	w0, [sp, #48]
   85d04:	52800260 	mov	w0, #0x13                  	// #19
   85d08:	b9002fe0 	str	w0, [sp, #44]
   85d0c:	52800140 	mov	w0, #0xa                   	// #10
   85d10:	b9002be0 	str	w0, [sp, #40]
   85d14:	39406fe0 	ldrb	w0, [sp, #27]
   85d18:	71010c1f 	cmp	w0, #0x43
   85d1c:	540000c1 	b.ne	85d34 <print_switch+0x64>  // b.any
   85d20:	d0000000 	adrp	x0, 87000 <el1_a32_serror+0x80>
   85d24:	911f0001 	add	x1, x0, #0x7c0
   85d28:	f9400be0 	ldr	x0, [sp, #16]
   85d2c:	97fff598 	bl	8338c <uart_printf>
   85d30:	14000005 	b	85d44 <print_switch+0x74>
   85d34:	d0000000 	adrp	x0, 87000 <el1_a32_serror+0x80>
   85d38:	911f2001 	add	x1, x0, #0x7c8
   85d3c:	f9400be0 	ldr	x0, [sp, #16]
   85d40:	97fff593 	bl	8338c <uart_printf>
   85d44:	b9401fe0 	ldr	w0, [sp, #28]
   85d48:	7101901f 	cmp	w0, #0x64
   85d4c:	5400038d 	b.le	85dbc <print_switch+0xec>
   85d50:	b9401fe0 	ldr	w0, [sp, #28]
   85d54:	51026400 	sub	w0, w0, #0x99
   85d58:	b9001fe0 	str	w0, [sp, #28]
   85d5c:	b9401fe0 	ldr	w0, [sp, #28]
   85d60:	531f7c01 	lsr	w1, w0, #31
   85d64:	0b000020 	add	w0, w1, w0
   85d68:	13017c00 	asr	w0, w0, #1
   85d6c:	2a0003e1 	mov	w1, w0
   85d70:	b94033e0 	ldr	w0, [sp, #48]
   85d74:	0b000022 	add	w2, w1, w0
   85d78:	b9401fe0 	ldr	w0, [sp, #28]
   85d7c:	7100001f 	cmp	w0, #0x0
   85d80:	12000000 	and	w0, w0, #0x1
   85d84:	5a80a401 	cneg	w1, w0, lt	// lt = tstop
   85d88:	b9402be0 	ldr	w0, [sp, #40]
   85d8c:	1b007c21 	mul	w1, w1, w0
   85d90:	b9402fe0 	ldr	w0, [sp, #44]
   85d94:	0b000020 	add	w0, w1, w0
   85d98:	2a0003e3 	mov	w3, w0
   85d9c:	d0000000 	adrp	x0, 87000 <el1_a32_serror+0x80>
   85da0:	911c2001 	add	x1, x0, #0x708
   85da4:	f9400be0 	ldr	x0, [sp, #16]
   85da8:	97fff579 	bl	8338c <uart_printf>
   85dac:	39406fe1 	ldrb	w1, [sp, #27]
   85db0:	f9400be0 	ldr	x0, [sp, #16]
   85db4:	97fff481 	bl	82fb8 <uart_putc>
   85db8:	1400001d 	b	85e2c <print_switch+0x15c>
   85dbc:	b9401fe0 	ldr	w0, [sp, #28]
   85dc0:	51000400 	sub	w0, w0, #0x1
   85dc4:	b9001fe0 	str	w0, [sp, #28]
   85dc8:	b9401fe0 	ldr	w0, [sp, #28]
   85dcc:	11000c01 	add	w1, w0, #0x3
   85dd0:	7100001f 	cmp	w0, #0x0
   85dd4:	1a80b020 	csel	w0, w1, w0, lt	// lt = tstop
   85dd8:	13027c00 	asr	w0, w0, #2
   85ddc:	2a0003e1 	mov	w1, w0
   85de0:	b9403fe0 	ldr	w0, [sp, #60]
   85de4:	0b000022 	add	w2, w1, w0
   85de8:	b9401fe0 	ldr	w0, [sp, #28]
   85dec:	6b0003e1 	negs	w1, w0
   85df0:	12000400 	and	w0, w0, #0x3
   85df4:	12000421 	and	w1, w1, #0x3
   85df8:	5a814401 	csneg	w1, w0, w1, mi	// mi = first
   85dfc:	b94037e0 	ldr	w0, [sp, #52]
   85e00:	1b007c21 	mul	w1, w1, w0
   85e04:	b9403be0 	ldr	w0, [sp, #56]
   85e08:	0b000020 	add	w0, w1, w0
   85e0c:	2a0003e3 	mov	w3, w0
   85e10:	d0000000 	adrp	x0, 87000 <el1_a32_serror+0x80>
   85e14:	911c2001 	add	x1, x0, #0x708
   85e18:	f9400be0 	ldr	x0, [sp, #16]
   85e1c:	97fff55c 	bl	8338c <uart_printf>
   85e20:	39406fe1 	ldrb	w1, [sp, #27]
   85e24:	f9400be0 	ldr	x0, [sp, #16]
   85e28:	97fff464 	bl	82fb8 <uart_putc>
   85e2c:	d0000000 	adrp	x0, 87000 <el1_a32_serror+0x80>
   85e30:	911de001 	add	x1, x0, #0x778
   85e34:	f9400be0 	ldr	x0, [sp, #16]
   85e38:	97fff555 	bl	8338c <uart_printf>
   85e3c:	d503201f 	nop
   85e40:	a8c47bfd 	ldp	x29, x30, [sp], #64
   85e44:	d65f03c0 	ret
	...

0000000000085e50 <Begin>:
   85e50:	d5184021 	msr	elr_el1, x1
   85e54:	d5184102 	msr	sp_el0, x2
   85e58:	d5184003 	msr	spsr_el1, x3
   85e5c:	580010e1 	ldr	x1, 86078 <pop_trap_frame+0x58>
   85e60:	9100003f 	mov	sp, x1
   85e64:	aa0003fe 	mov	x30, x0
   85e68:	f84087c0 	ldr	x0, [x30], #8
   85e6c:	f84087c1 	ldr	x1, [x30], #8
   85e70:	f84087c2 	ldr	x2, [x30], #8
   85e74:	f84087c3 	ldr	x3, [x30], #8
   85e78:	f84087c4 	ldr	x4, [x30], #8
   85e7c:	f84087c5 	ldr	x5, [x30], #8
   85e80:	f84087c6 	ldr	x6, [x30], #8
   85e84:	f84087c7 	ldr	x7, [x30], #8
   85e88:	f84087c8 	ldr	x8, [x30], #8
   85e8c:	f84087c9 	ldr	x9, [x30], #8
   85e90:	f84087ca 	ldr	x10, [x30], #8
   85e94:	f84087cb 	ldr	x11, [x30], #8
   85e98:	f84087cc 	ldr	x12, [x30], #8
   85e9c:	f84087cd 	ldr	x13, [x30], #8
   85ea0:	f84087ce 	ldr	x14, [x30], #8
   85ea4:	f84087cf 	ldr	x15, [x30], #8
   85ea8:	f84087d0 	ldr	x16, [x30], #8
   85eac:	f84087d1 	ldr	x17, [x30], #8
   85eb0:	f84087d2 	ldr	x18, [x30], #8
   85eb4:	f84087d3 	ldr	x19, [x30], #8
   85eb8:	f84087d4 	ldr	x20, [x30], #8
   85ebc:	f84087d5 	ldr	x21, [x30], #8
   85ec0:	f84087d6 	ldr	x22, [x30], #8
   85ec4:	f84087d7 	ldr	x23, [x30], #8
   85ec8:	f84087d8 	ldr	x24, [x30], #8
   85ecc:	f84087d9 	ldr	x25, [x30], #8
   85ed0:	f84087da 	ldr	x26, [x30], #8
   85ed4:	f84087db 	ldr	x27, [x30], #8
   85ed8:	f84087dc 	ldr	x28, [x30], #8
   85edc:	f84087dd 	ldr	x29, [x30], #8
   85ee0:	f84087de 	ldr	x30, [x30], #8
   85ee4:	d69f03e0 	eret

0000000000085ee8 <Save>:
   85ee8:	9100001f 	mov	sp, x0
   85eec:	d5384020 	mrs	x0, elr_el1
   85ef0:	f8000440 	str	x0, [x2], #0
   85ef4:	d5384100 	mrs	x0, sp_el0
   85ef8:	f8000460 	str	x0, [x3], #0
   85efc:	d5384000 	mrs	x0, spsr_el1
   85f00:	b8000480 	str	w0, [x4], #0
   85f04:	a8c10fe2 	ldp	x2, x3, [sp], #16
   85f08:	f8008422 	str	x2, [x1], #8
   85f0c:	f8008423 	str	x3, [x1], #8
   85f10:	a8c10fe2 	ldp	x2, x3, [sp], #16
   85f14:	f8008422 	str	x2, [x1], #8
   85f18:	f8008423 	str	x3, [x1], #8
   85f1c:	a8c10fe2 	ldp	x2, x3, [sp], #16
   85f20:	f8008422 	str	x2, [x1], #8
   85f24:	f8008423 	str	x3, [x1], #8
   85f28:	a8c10fe2 	ldp	x2, x3, [sp], #16
   85f2c:	f8008422 	str	x2, [x1], #8
   85f30:	f8008423 	str	x3, [x1], #8
   85f34:	a8c10fe2 	ldp	x2, x3, [sp], #16
   85f38:	f8008422 	str	x2, [x1], #8
   85f3c:	f8008423 	str	x3, [x1], #8
   85f40:	a8c10fe2 	ldp	x2, x3, [sp], #16
   85f44:	f8008422 	str	x2, [x1], #8
   85f48:	f8008423 	str	x3, [x1], #8
   85f4c:	a8c10fe2 	ldp	x2, x3, [sp], #16
   85f50:	f8008422 	str	x2, [x1], #8
   85f54:	f8008423 	str	x3, [x1], #8
   85f58:	a8c10fe2 	ldp	x2, x3, [sp], #16
   85f5c:	f8008422 	str	x2, [x1], #8
   85f60:	f8008423 	str	x3, [x1], #8
   85f64:	a8c10fe2 	ldp	x2, x3, [sp], #16
   85f68:	f8008422 	str	x2, [x1], #8
   85f6c:	f8008423 	str	x3, [x1], #8
   85f70:	a8c10fe2 	ldp	x2, x3, [sp], #16
   85f74:	f8008422 	str	x2, [x1], #8
   85f78:	f8008423 	str	x3, [x1], #8
   85f7c:	a8c10fe2 	ldp	x2, x3, [sp], #16
   85f80:	f8008422 	str	x2, [x1], #8
   85f84:	f8008423 	str	x3, [x1], #8
   85f88:	a8c10fe2 	ldp	x2, x3, [sp], #16
   85f8c:	f8008422 	str	x2, [x1], #8
   85f90:	f8008423 	str	x3, [x1], #8
   85f94:	a8c10fe2 	ldp	x2, x3, [sp], #16
   85f98:	f8008422 	str	x2, [x1], #8
   85f9c:	f8008423 	str	x3, [x1], #8
   85fa0:	a8c10fe2 	ldp	x2, x3, [sp], #16
   85fa4:	f8008422 	str	x2, [x1], #8
   85fa8:	f8008423 	str	x3, [x1], #8
   85fac:	a8c10fe2 	ldp	x2, x3, [sp], #16
   85fb0:	f8008422 	str	x2, [x1], #8
   85fb4:	f8008423 	str	x3, [x1], #8
   85fb8:	f84087e2 	ldr	x2, [sp], #8
   85fbc:	f8008422 	str	x2, [x1], #8
   85fc0:	d5385200 	mrs	x0, esr_el1
   85fc4:	97fff911 	bl	84408 <Exception>

0000000000085fc8 <push_trap_frame>:
   85fc8:	d50040bf 	msr	spsel, #0x0
   85fcc:	a9bf07e0 	stp	x0, x1, [sp, #-16]!
   85fd0:	a9bf0fe2 	stp	x2, x3, [sp, #-16]!
   85fd4:	a9bf17e4 	stp	x4, x5, [sp, #-16]!
   85fd8:	a9bf1fe6 	stp	x6, x7, [sp, #-16]!
   85fdc:	a9bf27e8 	stp	x8, x9, [sp, #-16]!
   85fe0:	a9bf2fea 	stp	x10, x11, [sp, #-16]!
   85fe4:	a9bf37ec 	stp	x12, x13, [sp, #-16]!
   85fe8:	a9bf3fee 	stp	x14, x15, [sp, #-16]!
   85fec:	a9bf47f0 	stp	x16, x17, [sp, #-16]!
   85ff0:	a9bf4ff2 	stp	x18, x19, [sp, #-16]!
   85ff4:	a9bf57f4 	stp	x20, x21, [sp, #-16]!
   85ff8:	a9bf5ff6 	stp	x22, x23, [sp, #-16]!
   85ffc:	a9bf67f8 	stp	x24, x25, [sp, #-16]!
   86000:	a9bf6ffa 	stp	x26, x27, [sp, #-16]!
   86004:	a9bf77fc 	stp	x28, x29, [sp, #-16]!
   86008:	f81f8ffe 	str	x30, [sp, #-8]!
   8600c:	d5384020 	mrs	x0, elr_el1
   86010:	f81f8fe0 	str	x0, [sp, #-8]!
   86014:	d5384000 	mrs	x0, spsr_el1
   86018:	f81f8fe0 	str	x0, [sp, #-8]!
   8601c:	d65f03c0 	ret

0000000000086020 <pop_trap_frame>:
   86020:	d50040bf 	msr	spsel, #0x0
   86024:	f84087e1 	ldr	x1, [sp], #8
   86028:	d5184001 	msr	spsr_el1, x1
   8602c:	f84087e1 	ldr	x1, [sp], #8
   86030:	d5184021 	msr	elr_el1, x1
   86034:	a8c17bfd 	ldp	x29, x30, [sp], #16
   86038:	a8c173fb 	ldp	x27, x28, [sp], #16
   8603c:	a8c16bf9 	ldp	x25, x26, [sp], #16
   86040:	a8c163f7 	ldp	x23, x24, [sp], #16
   86044:	a8c15bf5 	ldp	x21, x22, [sp], #16
   86048:	a8c153f3 	ldp	x19, x20, [sp], #16
   8604c:	a8c14bf1 	ldp	x17, x18, [sp], #16
   86050:	a8c143ef 	ldp	x15, x16, [sp], #16
   86054:	a8c13bed 	ldp	x13, x14, [sp], #16
   86058:	a8c133eb 	ldp	x11, x12, [sp], #16
   8605c:	a8c12be9 	ldp	x9, x10, [sp], #16
   86060:	a8c123e7 	ldp	x7, x8, [sp], #16
   86064:	a8c11be5 	ldp	x5, x6, [sp], #16
   86068:	a8c113e3 	ldp	x3, x4, [sp], #16
   8606c:	a8c10be1 	ldp	x1, x2, [sp], #16
   86070:	f84087e0 	ldr	x0, [sp], #8
   86074:	d65f03c0 	ret
   86078:	000a2fc0 	.inst	0x000a2fc0 ; undefined
	...

0000000000086800 <vector_table_el1>:
   86800:	a9bf7bfd 	stp	x29, x30, [sp, #-16]!
   86804:	a9bf73fb 	stp	x27, x28, [sp, #-16]!
   86808:	a9bf6bf9 	stp	x25, x26, [sp, #-16]!
   8680c:	a9bf63f7 	stp	x23, x24, [sp, #-16]!
   86810:	a9bf5bf5 	stp	x21, x22, [sp, #-16]!
   86814:	a9bf53f3 	stp	x19, x20, [sp, #-16]!
   86818:	a9bf4bf1 	stp	x17, x18, [sp, #-16]!
   8681c:	a9bf43ef 	stp	x15, x16, [sp, #-16]!
   86820:	a9bf3bed 	stp	x13, x14, [sp, #-16]!
   86824:	a9bf33eb 	stp	x11, x12, [sp, #-16]!
   86828:	a9bf2be9 	stp	x9, x10, [sp, #-16]!
   8682c:	a9bf23e7 	stp	x7, x8, [sp, #-16]!
   86830:	a9bf1be5 	stp	x5, x6, [sp, #-16]!
   86834:	a9bf13e3 	stp	x3, x4, [sp, #-16]!
   86838:	a9bf0be1 	stp	x1, x2, [sp, #-16]!
   8683c:	f81f8fe0 	str	x0, [sp, #-8]!
   86840:	910003e0 	mov	x0, sp
   86844:	97fff489 	bl	83a68 <Handle>
   86848:	d503201f 	nop
   8684c:	d503201f 	nop
   86850:	d503201f 	nop
   86854:	d503201f 	nop
   86858:	d503201f 	nop
   8685c:	d503201f 	nop
   86860:	d503201f 	nop
   86864:	d503201f 	nop
   86868:	d503201f 	nop
   8686c:	d503201f 	nop
   86870:	d503201f 	nop
   86874:	d503201f 	nop
   86878:	d503201f 	nop
   8687c:	d503201f 	nop

0000000000086880 <el1_sp0_irq>:
   86880:	8b000000 	add	x0, x0, x0
   86884:	d503201f 	nop
   86888:	d503201f 	nop
   8688c:	d503201f 	nop
   86890:	d503201f 	nop
   86894:	d503201f 	nop
   86898:	d503201f 	nop
   8689c:	d503201f 	nop
   868a0:	d503201f 	nop
   868a4:	d503201f 	nop
   868a8:	d503201f 	nop
   868ac:	d503201f 	nop
   868b0:	d503201f 	nop
   868b4:	d503201f 	nop
   868b8:	d503201f 	nop
   868bc:	d503201f 	nop
   868c0:	d503201f 	nop
   868c4:	d503201f 	nop
   868c8:	d503201f 	nop
   868cc:	d503201f 	nop
   868d0:	d503201f 	nop
   868d4:	d503201f 	nop
   868d8:	d503201f 	nop
   868dc:	d503201f 	nop
   868e0:	d503201f 	nop
   868e4:	d503201f 	nop
   868e8:	d503201f 	nop
   868ec:	d503201f 	nop
   868f0:	d503201f 	nop
   868f4:	d503201f 	nop
   868f8:	d503201f 	nop
   868fc:	d503201f 	nop

0000000000086900 <el1_sp0_fiq>:
   86900:	8b000000 	add	x0, x0, x0
   86904:	d503201f 	nop
   86908:	d503201f 	nop
   8690c:	d503201f 	nop
   86910:	d503201f 	nop
   86914:	d503201f 	nop
   86918:	d503201f 	nop
   8691c:	d503201f 	nop
   86920:	d503201f 	nop
   86924:	d503201f 	nop
   86928:	d503201f 	nop
   8692c:	d503201f 	nop
   86930:	d503201f 	nop
   86934:	d503201f 	nop
   86938:	d503201f 	nop
   8693c:	d503201f 	nop
   86940:	d503201f 	nop
   86944:	d503201f 	nop
   86948:	d503201f 	nop
   8694c:	d503201f 	nop
   86950:	d503201f 	nop
   86954:	d503201f 	nop
   86958:	d503201f 	nop
   8695c:	d503201f 	nop
   86960:	d503201f 	nop
   86964:	d503201f 	nop
   86968:	d503201f 	nop
   8696c:	d503201f 	nop
   86970:	d503201f 	nop
   86974:	d503201f 	nop
   86978:	d503201f 	nop
   8697c:	d503201f 	nop

0000000000086980 <el1_sp0_serror>:
   86980:	8b000000 	add	x0, x0, x0
   86984:	d503201f 	nop
   86988:	d503201f 	nop
   8698c:	d503201f 	nop
   86990:	d503201f 	nop
   86994:	d503201f 	nop
   86998:	d503201f 	nop
   8699c:	d503201f 	nop
   869a0:	d503201f 	nop
   869a4:	d503201f 	nop
   869a8:	d503201f 	nop
   869ac:	d503201f 	nop
   869b0:	d503201f 	nop
   869b4:	d503201f 	nop
   869b8:	d503201f 	nop
   869bc:	d503201f 	nop
   869c0:	d503201f 	nop
   869c4:	d503201f 	nop
   869c8:	d503201f 	nop
   869cc:	d503201f 	nop
   869d0:	d503201f 	nop
   869d4:	d503201f 	nop
   869d8:	d503201f 	nop
   869dc:	d503201f 	nop
   869e0:	d503201f 	nop
   869e4:	d503201f 	nop
   869e8:	d503201f 	nop
   869ec:	d503201f 	nop
   869f0:	d503201f 	nop
   869f4:	d503201f 	nop
   869f8:	d503201f 	nop
   869fc:	d503201f 	nop

0000000000086a00 <el1_spx_s>:
   86a00:	a9bf7bfd 	stp	x29, x30, [sp, #-16]!
   86a04:	a9bf73fb 	stp	x27, x28, [sp, #-16]!
   86a08:	a9bf6bf9 	stp	x25, x26, [sp, #-16]!
   86a0c:	a9bf63f7 	stp	x23, x24, [sp, #-16]!
   86a10:	a9bf5bf5 	stp	x21, x22, [sp, #-16]!
   86a14:	a9bf53f3 	stp	x19, x20, [sp, #-16]!
   86a18:	a9bf4bf1 	stp	x17, x18, [sp, #-16]!
   86a1c:	a9bf43ef 	stp	x15, x16, [sp, #-16]!
   86a20:	a9bf3bed 	stp	x13, x14, [sp, #-16]!
   86a24:	a9bf33eb 	stp	x11, x12, [sp, #-16]!
   86a28:	a9bf2be9 	stp	x9, x10, [sp, #-16]!
   86a2c:	a9bf23e7 	stp	x7, x8, [sp, #-16]!
   86a30:	a9bf1be5 	stp	x5, x6, [sp, #-16]!
   86a34:	a9bf13e3 	stp	x3, x4, [sp, #-16]!
   86a38:	a9bf0be1 	stp	x1, x2, [sp, #-16]!
   86a3c:	f81f8fe0 	str	x0, [sp, #-8]!
   86a40:	910003e0 	mov	x0, sp
   86a44:	97fff409 	bl	83a68 <Handle>
   86a48:	d503201f 	nop
   86a4c:	d503201f 	nop
   86a50:	d503201f 	nop
   86a54:	d503201f 	nop
   86a58:	d503201f 	nop
   86a5c:	d503201f 	nop
   86a60:	d503201f 	nop
   86a64:	d503201f 	nop
   86a68:	d503201f 	nop
   86a6c:	d503201f 	nop
   86a70:	d503201f 	nop
   86a74:	d503201f 	nop
   86a78:	d503201f 	nop
   86a7c:	d503201f 	nop

0000000000086a80 <el1_spx_irq>:
   86a80:	8b000000 	add	x0, x0, x0
   86a84:	d503201f 	nop
   86a88:	d503201f 	nop
   86a8c:	d503201f 	nop
   86a90:	d503201f 	nop
   86a94:	d503201f 	nop
   86a98:	d503201f 	nop
   86a9c:	d503201f 	nop
   86aa0:	d503201f 	nop
   86aa4:	d503201f 	nop
   86aa8:	d503201f 	nop
   86aac:	d503201f 	nop
   86ab0:	d503201f 	nop
   86ab4:	d503201f 	nop
   86ab8:	d503201f 	nop
   86abc:	d503201f 	nop
   86ac0:	d503201f 	nop
   86ac4:	d503201f 	nop
   86ac8:	d503201f 	nop
   86acc:	d503201f 	nop
   86ad0:	d503201f 	nop
   86ad4:	d503201f 	nop
   86ad8:	d503201f 	nop
   86adc:	d503201f 	nop
   86ae0:	d503201f 	nop
   86ae4:	d503201f 	nop
   86ae8:	d503201f 	nop
   86aec:	d503201f 	nop
   86af0:	d503201f 	nop
   86af4:	d503201f 	nop
   86af8:	d503201f 	nop
   86afc:	d503201f 	nop

0000000000086b00 <el1_spx_fiq>:
   86b00:	8b000000 	add	x0, x0, x0
   86b04:	d503201f 	nop
   86b08:	d503201f 	nop
   86b0c:	d503201f 	nop
   86b10:	d503201f 	nop
   86b14:	d503201f 	nop
   86b18:	d503201f 	nop
   86b1c:	d503201f 	nop
   86b20:	d503201f 	nop
   86b24:	d503201f 	nop
   86b28:	d503201f 	nop
   86b2c:	d503201f 	nop
   86b30:	d503201f 	nop
   86b34:	d503201f 	nop
   86b38:	d503201f 	nop
   86b3c:	d503201f 	nop
   86b40:	d503201f 	nop
   86b44:	d503201f 	nop
   86b48:	d503201f 	nop
   86b4c:	d503201f 	nop
   86b50:	d503201f 	nop
   86b54:	d503201f 	nop
   86b58:	d503201f 	nop
   86b5c:	d503201f 	nop
   86b60:	d503201f 	nop
   86b64:	d503201f 	nop
   86b68:	d503201f 	nop
   86b6c:	d503201f 	nop
   86b70:	d503201f 	nop
   86b74:	d503201f 	nop
   86b78:	d503201f 	nop
   86b7c:	d503201f 	nop

0000000000086b80 <el1_spx_serror>:
   86b80:	8b000000 	add	x0, x0, x0
   86b84:	d503201f 	nop
   86b88:	d503201f 	nop
   86b8c:	d503201f 	nop
   86b90:	d503201f 	nop
   86b94:	d503201f 	nop
   86b98:	d503201f 	nop
   86b9c:	d503201f 	nop
   86ba0:	d503201f 	nop
   86ba4:	d503201f 	nop
   86ba8:	d503201f 	nop
   86bac:	d503201f 	nop
   86bb0:	d503201f 	nop
   86bb4:	d503201f 	nop
   86bb8:	d503201f 	nop
   86bbc:	d503201f 	nop
   86bc0:	d503201f 	nop
   86bc4:	d503201f 	nop
   86bc8:	d503201f 	nop
   86bcc:	d503201f 	nop
   86bd0:	d503201f 	nop
   86bd4:	d503201f 	nop
   86bd8:	d503201f 	nop
   86bdc:	d503201f 	nop
   86be0:	d503201f 	nop
   86be4:	d503201f 	nop
   86be8:	d503201f 	nop
   86bec:	d503201f 	nop
   86bf0:	d503201f 	nop
   86bf4:	d503201f 	nop
   86bf8:	d503201f 	nop
   86bfc:	d503201f 	nop

0000000000086c00 <el1_a64_s>:
   86c00:	a9bf7bfd 	stp	x29, x30, [sp, #-16]!
   86c04:	a9bf73fb 	stp	x27, x28, [sp, #-16]!
   86c08:	a9bf6bf9 	stp	x25, x26, [sp, #-16]!
   86c0c:	a9bf63f7 	stp	x23, x24, [sp, #-16]!
   86c10:	a9bf5bf5 	stp	x21, x22, [sp, #-16]!
   86c14:	a9bf53f3 	stp	x19, x20, [sp, #-16]!
   86c18:	a9bf4bf1 	stp	x17, x18, [sp, #-16]!
   86c1c:	a9bf43ef 	stp	x15, x16, [sp, #-16]!
   86c20:	a9bf3bed 	stp	x13, x14, [sp, #-16]!
   86c24:	a9bf33eb 	stp	x11, x12, [sp, #-16]!
   86c28:	a9bf2be9 	stp	x9, x10, [sp, #-16]!
   86c2c:	a9bf23e7 	stp	x7, x8, [sp, #-16]!
   86c30:	a9bf1be5 	stp	x5, x6, [sp, #-16]!
   86c34:	a9bf13e3 	stp	x3, x4, [sp, #-16]!
   86c38:	a9bf0be1 	stp	x1, x2, [sp, #-16]!
   86c3c:	f81f8fe0 	str	x0, [sp, #-8]!
   86c40:	910003e0 	mov	x0, sp
   86c44:	97fff389 	bl	83a68 <Handle>
   86c48:	d503201f 	nop
   86c4c:	d503201f 	nop
   86c50:	d503201f 	nop
   86c54:	d503201f 	nop
   86c58:	d503201f 	nop
   86c5c:	d503201f 	nop
   86c60:	d503201f 	nop
   86c64:	d503201f 	nop
   86c68:	d503201f 	nop
   86c6c:	d503201f 	nop
   86c70:	d503201f 	nop
   86c74:	d503201f 	nop
   86c78:	d503201f 	nop
   86c7c:	d503201f 	nop

0000000000086c80 <el1_a64_irq>:
   86c80:	8b000000 	add	x0, x0, x0
   86c84:	d503201f 	nop
   86c88:	d503201f 	nop
   86c8c:	d503201f 	nop
   86c90:	d503201f 	nop
   86c94:	d503201f 	nop
   86c98:	d503201f 	nop
   86c9c:	d503201f 	nop
   86ca0:	d503201f 	nop
   86ca4:	d503201f 	nop
   86ca8:	d503201f 	nop
   86cac:	d503201f 	nop
   86cb0:	d503201f 	nop
   86cb4:	d503201f 	nop
   86cb8:	d503201f 	nop
   86cbc:	d503201f 	nop
   86cc0:	d503201f 	nop
   86cc4:	d503201f 	nop
   86cc8:	d503201f 	nop
   86ccc:	d503201f 	nop
   86cd0:	d503201f 	nop
   86cd4:	d503201f 	nop
   86cd8:	d503201f 	nop
   86cdc:	d503201f 	nop
   86ce0:	d503201f 	nop
   86ce4:	d503201f 	nop
   86ce8:	d503201f 	nop
   86cec:	d503201f 	nop
   86cf0:	d503201f 	nop
   86cf4:	d503201f 	nop
   86cf8:	d503201f 	nop
   86cfc:	d503201f 	nop

0000000000086d00 <el1_a64_fiq>:
   86d00:	8b000000 	add	x0, x0, x0
   86d04:	d503201f 	nop
   86d08:	d503201f 	nop
   86d0c:	d503201f 	nop
   86d10:	d503201f 	nop
   86d14:	d503201f 	nop
   86d18:	d503201f 	nop
   86d1c:	d503201f 	nop
   86d20:	d503201f 	nop
   86d24:	d503201f 	nop
   86d28:	d503201f 	nop
   86d2c:	d503201f 	nop
   86d30:	d503201f 	nop
   86d34:	d503201f 	nop
   86d38:	d503201f 	nop
   86d3c:	d503201f 	nop
   86d40:	d503201f 	nop
   86d44:	d503201f 	nop
   86d48:	d503201f 	nop
   86d4c:	d503201f 	nop
   86d50:	d503201f 	nop
   86d54:	d503201f 	nop
   86d58:	d503201f 	nop
   86d5c:	d503201f 	nop
   86d60:	d503201f 	nop
   86d64:	d503201f 	nop
   86d68:	d503201f 	nop
   86d6c:	d503201f 	nop
   86d70:	d503201f 	nop
   86d74:	d503201f 	nop
   86d78:	d503201f 	nop
   86d7c:	d503201f 	nop

0000000000086d80 <el1_a64_serror>:
   86d80:	8b000000 	add	x0, x0, x0
   86d84:	d503201f 	nop
   86d88:	d503201f 	nop
   86d8c:	d503201f 	nop
   86d90:	d503201f 	nop
   86d94:	d503201f 	nop
   86d98:	d503201f 	nop
   86d9c:	d503201f 	nop
   86da0:	d503201f 	nop
   86da4:	d503201f 	nop
   86da8:	d503201f 	nop
   86dac:	d503201f 	nop
   86db0:	d503201f 	nop
   86db4:	d503201f 	nop
   86db8:	d503201f 	nop
   86dbc:	d503201f 	nop
   86dc0:	d503201f 	nop
   86dc4:	d503201f 	nop
   86dc8:	d503201f 	nop
   86dcc:	d503201f 	nop
   86dd0:	d503201f 	nop
   86dd4:	d503201f 	nop
   86dd8:	d503201f 	nop
   86ddc:	d503201f 	nop
   86de0:	d503201f 	nop
   86de4:	d503201f 	nop
   86de8:	d503201f 	nop
   86dec:	d503201f 	nop
   86df0:	d503201f 	nop
   86df4:	d503201f 	nop
   86df8:	d503201f 	nop
   86dfc:	d503201f 	nop

0000000000086e00 <el1_a32_s>:
   86e00:	a9bf7bfd 	stp	x29, x30, [sp, #-16]!
   86e04:	a9bf73fb 	stp	x27, x28, [sp, #-16]!
   86e08:	a9bf6bf9 	stp	x25, x26, [sp, #-16]!
   86e0c:	a9bf63f7 	stp	x23, x24, [sp, #-16]!
   86e10:	a9bf5bf5 	stp	x21, x22, [sp, #-16]!
   86e14:	a9bf53f3 	stp	x19, x20, [sp, #-16]!
   86e18:	a9bf4bf1 	stp	x17, x18, [sp, #-16]!
   86e1c:	a9bf43ef 	stp	x15, x16, [sp, #-16]!
   86e20:	a9bf3bed 	stp	x13, x14, [sp, #-16]!
   86e24:	a9bf33eb 	stp	x11, x12, [sp, #-16]!
   86e28:	a9bf2be9 	stp	x9, x10, [sp, #-16]!
   86e2c:	a9bf23e7 	stp	x7, x8, [sp, #-16]!
   86e30:	a9bf1be5 	stp	x5, x6, [sp, #-16]!
   86e34:	a9bf13e3 	stp	x3, x4, [sp, #-16]!
   86e38:	a9bf0be1 	stp	x1, x2, [sp, #-16]!
   86e3c:	f81f8fe0 	str	x0, [sp, #-8]!
   86e40:	910003e0 	mov	x0, sp
   86e44:	97fff309 	bl	83a68 <Handle>
   86e48:	d503201f 	nop
   86e4c:	d503201f 	nop
   86e50:	d503201f 	nop
   86e54:	d503201f 	nop
   86e58:	d503201f 	nop
   86e5c:	d503201f 	nop
   86e60:	d503201f 	nop
   86e64:	d503201f 	nop
   86e68:	d503201f 	nop
   86e6c:	d503201f 	nop
   86e70:	d503201f 	nop
   86e74:	d503201f 	nop
   86e78:	d503201f 	nop
   86e7c:	d503201f 	nop

0000000000086e80 <el1_a32_irq>:
   86e80:	8b000000 	add	x0, x0, x0
   86e84:	d503201f 	nop
   86e88:	d503201f 	nop
   86e8c:	d503201f 	nop
   86e90:	d503201f 	nop
   86e94:	d503201f 	nop
   86e98:	d503201f 	nop
   86e9c:	d503201f 	nop
   86ea0:	d503201f 	nop
   86ea4:	d503201f 	nop
   86ea8:	d503201f 	nop
   86eac:	d503201f 	nop
   86eb0:	d503201f 	nop
   86eb4:	d503201f 	nop
   86eb8:	d503201f 	nop
   86ebc:	d503201f 	nop
   86ec0:	d503201f 	nop
   86ec4:	d503201f 	nop
   86ec8:	d503201f 	nop
   86ecc:	d503201f 	nop
   86ed0:	d503201f 	nop
   86ed4:	d503201f 	nop
   86ed8:	d503201f 	nop
   86edc:	d503201f 	nop
   86ee0:	d503201f 	nop
   86ee4:	d503201f 	nop
   86ee8:	d503201f 	nop
   86eec:	d503201f 	nop
   86ef0:	d503201f 	nop
   86ef4:	d503201f 	nop
   86ef8:	d503201f 	nop
   86efc:	d503201f 	nop

0000000000086f00 <el1_a32_fiq>:
   86f00:	8b000000 	add	x0, x0, x0
   86f04:	d503201f 	nop
   86f08:	d503201f 	nop
   86f0c:	d503201f 	nop
   86f10:	d503201f 	nop
   86f14:	d503201f 	nop
   86f18:	d503201f 	nop
   86f1c:	d503201f 	nop
   86f20:	d503201f 	nop
   86f24:	d503201f 	nop
   86f28:	d503201f 	nop
   86f2c:	d503201f 	nop
   86f30:	d503201f 	nop
   86f34:	d503201f 	nop
   86f38:	d503201f 	nop
   86f3c:	d503201f 	nop
   86f40:	d503201f 	nop
   86f44:	d503201f 	nop
   86f48:	d503201f 	nop
   86f4c:	d503201f 	nop
   86f50:	d503201f 	nop
   86f54:	d503201f 	nop
   86f58:	d503201f 	nop
   86f5c:	d503201f 	nop
   86f60:	d503201f 	nop
   86f64:	d503201f 	nop
   86f68:	d503201f 	nop
   86f6c:	d503201f 	nop
   86f70:	d503201f 	nop
   86f74:	d503201f 	nop
   86f78:	d503201f 	nop
   86f7c:	d503201f 	nop

0000000000086f80 <el1_a32_serror>:
   86f80:	8b000000 	add	x0, x0, x0
   86f84:	d503201f 	nop
   86f88:	d503201f 	nop
   86f8c:	d503201f 	nop
   86f90:	d503201f 	nop
   86f94:	d503201f 	nop
   86f98:	d503201f 	nop
   86f9c:	d503201f 	nop
   86fa0:	d503201f 	nop
   86fa4:	d503201f 	nop
   86fa8:	d503201f 	nop
   86fac:	d503201f 	nop
   86fb0:	d503201f 	nop
   86fb4:	d503201f 	nop
   86fb8:	d503201f 	nop
   86fbc:	d503201f 	nop
   86fc0:	d503201f 	nop
   86fc4:	d503201f 	nop
   86fc8:	d503201f 	nop
   86fcc:	d503201f 	nop
   86fd0:	d503201f 	nop
   86fd4:	d503201f 	nop
   86fd8:	d503201f 	nop
   86fdc:	d503201f 	nop
   86fe0:	d503201f 	nop
   86fe4:	d503201f 	nop
   86fe8:	d503201f 	nop
   86fec:	d503201f 	nop
   86ff0:	d503201f 	nop
   86ff4:	d503201f 	nop
   86ff8:	d503201f 	nop
   86ffc:	d503201f 	nop

Disassembly of section .rodata:

0000000000087000 <MMIO_BASE-0x548>:
	...
   87008:	66727473 	.inst	0x66727473 ; undefined
   8700c:	6873756c 	.inst	0x6873756c ; undefined
   87010:	736d203a 	.inst	0x736d203a ; undefined
   87014:	78255b67 	strh	w7, [x27, w5, uxtw #1]
   87018:	203d205d 	.inst	0x203d205d ; undefined
   8701c:	00000000 	udf	#0
   87020:	00000a0d 	udf	#2573
   87024:	00000000 	udf	#0
   87028:	6b636f72 	.inst	0x6b636f72 ; undefined
   8702c:	00000000 	udf	#0
   87030:	73696373 	.inst	0x73696373 ; undefined
   87034:	73726f73 	.inst	0x73726f73 ; undefined
	...
   87040:	65706170 	fnmls	z16.h, p0/m, z11.h, z16.h
   87044:	00000072 	udf	#114
   87048:	656d6167 	fnmls	z7.h, p0/m, z11.h, z13.h
   8704c:	76726573 	.inst	0x76726573 ; undefined
   87050:	00007265 	udf	#29285
   87054:	00000000 	udf	#0
   87058:	6e676973 	.inst	0x6e676973 ; undefined
   8705c:	00007075 	udf	#28789
   87060:	69636572 	ldpsw	x18, x25, [x11, #-232]
   87064:	64657665 	.inst	0x64657665 ; undefined
	...
   87070:	74697571 	.inst	0x74697571 ; undefined
   87074:	00000000 	udf	#0
   87078:	00000057 	udf	#87
   8707c:	00000000 	udf	#0
   87080:	0000004c 	udf	#76
   87084:	00000000 	udf	#0
   87088:	00000044 	udf	#68
   8708c:	00000000 	udf	#0
   87090:	444e4553 	smlalt	z19.h, z10.b, z14.b
   87094:	00005245 	udf	#21061
   87098:	735f326b 	.inst	0x735f326b ; undefined
   8709c:	65646e65 	fnmls	z5.h, p3/m, z19.h, z4.h
   870a0:	4d203a72 	st4	{v18.b-v21.b}[14], [x19]
   870a4:	69742079 	ldpsw	x25, x8, [x3, #-96]
   870a8:	73692064 	.inst	0x73692064 ; undefined
   870ac:	0d752520 	.inst	0x0d752520 ; undefined
   870b0:	0000000a 	udf	#10
   870b4:	00000000 	udf	#0
   870b8:	45434552 	saddwt	z18.h, z10.h, z3.b
   870bc:	52455649 	.inst	0x52455649 ; undefined
	...
   870c8:	735f326b 	.inst	0x735f326b ; undefined
   870cc:	65646e65 	fnmls	z5.h, p3/m, z19.h, z4.h
   870d0:	4d203a72 	st4	{v18.b-v21.b}[14], [x19]
   870d4:	61737365 	.inst	0x61737365 ; undefined
   870d8:	73206567 	.inst	0x73206567 ; undefined
   870dc:	20746e65 	.inst	0x20746e65 ; undefined
   870e0:	65776f68 	fnmls	z8.h, p3/m, z27.h, z23.h
   870e4:	20726576 	.inst	0x20726576 ; undefined
   870e8:	7220796d 	ands	w13, w11, #0x7fffffff
   870ec:	796c7065 	ldrh	w5, [x3, #5688]
   870f0:	6f687320 	fcmla	v0.8h, v25.8h, v8.h[1], #270
   870f4:	20646c75 	.inst	0x20646c75 ; undefined
   870f8:	5b206562 	.inst	0x5b206562 ; undefined
   870fc:	2e5d7325 	.inst	0x2e5d7325 ; undefined
   87100:	2e2e2e2e 	uqsub	v14.8b, v17.8b, v14.8b
   87104:	74657220 	.inst	0x74657220 ; undefined
   87108:	646f635f 	.inst	0x646f635f ; undefined
   8710c:	203d2065 	.inst	0x203d2065 ; undefined
   87110:	0d206425 	.inst	0x0d206425 ; undefined
   87114:	0000000a 	udf	#10
   87118:	725f326b 	.inst	0x725f326b ; undefined
   8711c:	69656365 	ldpsw	x5, x24, [x27, #-216]
   87120:	3a726576 	.inst	0x3a726576 ; undefined
   87124:	20794d20 	.inst	0x20794d20 ; undefined
   87128:	20646974 	.inst	0x20646974 ; undefined
   8712c:	25207369 	.inst	0x25207369 ; undefined
   87130:	000a0d75 	.inst	0x000a0d75 ; undefined
   87134:	00000000 	udf	#0
   87138:	725f326b 	.inst	0x725f326b ; undefined
   8713c:	69656365 	ldpsw	x5, x24, [x27, #-216]
   87140:	3a726576 	.inst	0x3a726576 ; undefined
   87144:	73654d20 	.inst	0x73654d20 ; undefined
   87148:	65676173 	fnmls	z19.h, p0/m, z11.h, z7.h
   8714c:	63657220 	.inst	0x63657220 ; undefined
   87150:	65766569 	fnmls	z9.h, p1/m, z11.h, z22.h
   87154:	5b203a64 	.inst	0x5b203a64 ; undefined
   87158:	2c5d7325 	ldnp	s5, s28, [x25, #232]
   8715c:	63657220 	.inst	0x63657220 ; undefined
   87160:	20746572 	.inst	0x20746572 ; undefined
   87164:	6425203d 	fmul	z29.h, z1.h, z5.h[0]
   87168:	00000a0d 	udf	#2573
   8716c:	00000000 	udf	#0
   87170:	725f326b 	.inst	0x725f326b ; undefined
   87174:	69656365 	ldpsw	x5, x24, [x27, #-216]
   87178:	3a726576 	.inst	0x3a726576 ; undefined
   8717c:	70655220 	adr	x0, 151bc3 <stackend+0xaec03>
   87180:	7320796c 	.inst	0x7320796c ; undefined
   87184:	20746e65 	.inst	0x20746e65 ; undefined
   87188:	72706552 	.inst	0x72706552 ; undefined
   8718c:	3d207465 	str	b5, [x3, #2077]
   87190:	0d642520 	.inst	0x0d642520 ; undefined
   87194:	0000000a 	udf	#10
   87198:	61657243 	.inst	0x61657243 ; undefined
   8719c:	3a646574 	.inst	0x3a646574 ; undefined
   871a0:	0d752520 	.inst	0x0d752520 ; undefined
   871a4:	0000000a 	udf	#10
   871a8:	61657243 	.inst	0x61657243 ; undefined
   871ac:	72416574 	.inst	0x72416574 ; undefined
   871b0:	65547367 	fcmeq	p7.h, p4/z, z27.h, z20.h
   871b4:	00007473 	udf	#29811
   871b8:	61657243 	.inst	0x61657243 ; undefined
   871bc:	72416574 	.inst	0x72416574 ; undefined
   871c0:	65547367 	fcmeq	p7.h, p4/z, z27.h, z20.h
   871c4:	203a7473 	.inst	0x203a7473 ; undefined
   871c8:	202c7525 	.inst	0x202c7525 ; undefined
   871cc:	0a0d7525 	and	w5, w9, w13, lsl #29
	...
   871d8:	5b6d756e 	.inst	0x5b6d756e ; undefined
   871dc:	205d6425 	.inst	0x205d6425 ; undefined
   871e0:	7325203d 	.inst	0x7325203d ; undefined
   871e4:	00000a0d 	udf	#2573
   871e8:	61657243 	.inst	0x61657243 ; undefined
   871ec:	72416574 	.inst	0x72416574 ; undefined
   871f0:	00007367 	udf	#29543
   871f4:	00000000 	udf	#0
   871f8:	73677261 	.inst	0x73677261 ; undefined
   871fc:	203a6f6e 	.inst	0x203a6f6e ; undefined
   87200:	0a0d7825 	and	w5, w1, w13, lsl #30
   87204:	00000000 	udf	#0
   87208:	73677261 	.inst	0x73677261 ; undefined
   8720c:	7825203a 	ldeorh	w5, w26, [x1]
   87210:	00000a0d 	udf	#2573
   87214:	00000000 	udf	#0
   87218:	0000002e 	udf	#46
   8721c:	00000000 	udf	#0
   87220:	0000324b 	udf	#12875
   87224:	00000000 	udf	#0
   87228:	255b4950 	.inst	0x255b4950 ; undefined
   8722c:	203e5d75 	.inst	0x203e5d75 ; undefined
	...
   87238:	00000a0d 	udf	#2573
   8723c:	00000000 	udf	#0
   87240:	49500a0d 	.inst	0x49500a0d ; undefined
   87244:	5d75255b 	.inst	0x5d75255b ; undefined
   87248:	0000203e 	udf	#8254
   8724c:	00000000 	udf	#0
   87250:	00082008 	.inst	0x00082008 ; undefined
   87254:	00000000 	udf	#0
   87258:	55424544 	.inst	0x55424544 ; undefined
   8725c:	2f203a47 	.inst	0x2f203a47 ; undefined
   87260:	6469702f 	.inst	0x6469702f ; undefined
   87264:	6d616e5f 	ldp	d31, d27, [x18, #-496]
   87268:	745b7365 	.inst	0x745b7365 ; undefined
   8726c:	205d6469 	.inst	0x205d6469 ; undefined
   87270:	616e203d 	.inst	0x616e203d ; undefined
   87274:	203b656d 	.inst	0x203b656d ; undefined
   87278:	4e4f202c 	.inst	0x4e4f202c ; undefined
   8727c:	45532045 	.inst	0x45532045 ; undefined
   87280:	4120444e 	.inst	0x4120444e ; undefined
   87284:	4d20444e 	.inst	0x4d20444e ; undefined
   87288:	20594e41 	.inst	0x20594e41 ; undefined
   8728c:	49434552 	.inst	0x49434552 ; undefined
   87290:	53455645 	.inst	0x53455645 ; undefined
   87294:	65480a0d 	fmul	z13.h, z16.h, z8.h
   87298:	206f6c6c 	.inst	0x206f6c6c ; undefined
   8729c:	6c726f57 	ldnp	d23, d27, [x26, #-224]
   872a0:	20492064 	.inst	0x20492064 ; undefined
   872a4:	64206d61 	.inst	0x64206d61 ; undefined
   872a8:	6c333732 	stnp	d18, d13, [x25, #-208]
   872ac:	0a0d7569 	and	w9, w11, w13, lsl #29
	...
   872b8:	65646461 	fnmls	z1.h, p1/m, z3.h, z4.h
   872bc:	2c312872 	stnp	s18, s10, [x3, #-120]
   872c0:	2c332c32 	stnp	s18, s11, [x1, #-104]
   872c4:	2c352c34 	stnp	s20, s11, [x1, #-88]
   872c8:	2c372c36 	stnp	s22, s11, [x1, #-72]
   872cc:	2c392c38 	stnp	s24, s11, [x1, #-56]
   872d0:	20293031 	.inst	0x20293031 ; undefined
   872d4:	6425203d 	fmul	z29.h, z1.h, z5.h[0]
   872d8:	00000a0d 	udf	#2573
   872dc:	00000000 	udf	#0
   872e0:	656d616e 	fnmls	z14.h, p0/m, z11.h, z13.h
   872e4:	76726573 	.inst	0x76726573 ; undefined
   872e8:	43207265 	.inst	0x43207265 ; undefined
   872ec:	74616572 	.inst	0x74616572 ; undefined
   872f0:	203a6465 	.inst	0x203a6465 ; undefined
   872f4:	0a0d7525 	and	w5, w9, w13, lsl #29
	...
   87300:	656d6167 	fnmls	z7.h, p0/m, z11.h, z13.h
   87304:	76726573 	.inst	0x76726573 ; undefined
   87308:	43207265 	.inst	0x43207265 ; undefined
   8730c:	74616572 	.inst	0x74616572 ; undefined
   87310:	203a6465 	.inst	0x203a6465 ; undefined
   87314:	0a0d7525 	and	w5, w9, w13, lsl #29
	...
   87320:	656d616e 	fnmls	z14.h, p0/m, z11.h, z13.h
   87324:	76726573 	.inst	0x76726573 ; undefined
   87328:	00007265 	udf	#29285
   8732c:	00000000 	udf	#0
   87330:	49474552 	.inst	0x49474552 ; undefined
   87334:	52455453 	.inst	0x52455453 ; undefined
	...
   87340:	20444950 	.inst	0x20444950 ; undefined
   87344:	69676552 	ldpsw	x18, x25, [x10, #-200]
   87348:	72657473 	.inst	0x72657473 ; undefined
   8734c:	00006465 	udf	#25701
   87350:	494f4857 	.inst	0x494f4857 ; undefined
   87354:	00000053 	udf	#83
   87358:	45524544 	saddwt	z4.h, z10.h, z18.b
   8735c:	54534947 	b.vc	12dc84 <stackend+0x8acc4>
   87360:	00005245 	udf	#21061
   87364:	00000000 	udf	#0
   87368:	31335b1b 	adds	w27, w24, #0xcd6
   8736c:	0000006d 	udf	#109
   87370:	45524544 	saddwt	z4.h, z10.h, z18.b
   87374:	54534947 	b.vc	12dc9c <stackend+0x8acdc>
   87378:	20445245 	.inst	0x20445245 ; undefined
   8737c:	3a444950 	.inst	0x3a444950 ; undefined
   87380:	2c752520 	ldnp	s0, s9, [x9, #-88]
   87384:	6d614e20 	ldp	d0, d19, [x17, #-496]
   87388:	25203a65 	.inst	0x25203a65 ; undefined
   8738c:	000a0d73 	.inst	0x000a0d73 ; undefined
   87390:	37335b1b 	tbnz	w27, #6, 8def0 <PROCS+0x66f8>
   87394:	0000006d 	udf	#109
   87398:	20444950 	.inst	0x20444950 ; undefined
   8739c:	65726544 	fnmls	z4.h, p1/m, z10.h, z18.h
   873a0:	74736967 	.inst	0x74736967 ; undefined
   873a4:	64657265 	.inst	0x64657265 ; undefined
	...
   873b0:	32335b1b 	orr	w27, w24, #0xffffe00f
   873b4:	0000006d 	udf	#109
   873b8:	69676552 	ldpsw	x18, x25, [x10, #-200]
   873bc:	72657473 	.inst	0x72657473 ; undefined
   873c0:	54206465 	b.pl	c804c <stackend+0x2508c>  // b.nfrst
   873c4:	656c6261 	fnmls	z1.h, p0/m, z19.h, z12.h
   873c8:	000a0d3a 	.inst	0x000a0d3a ; undefined
   873cc:	00000000 	udf	#0
   873d0:	3a444950 	.inst	0x3a444950 ; undefined
   873d4:	2c752520 	ldnp	s0, s9, [x9, #-88]
   873d8:	6d614e20 	ldp	d0, d19, [x17, #-496]
   873dc:	25203a65 	.inst	0x25203a65 ; undefined
   873e0:	000a0d73 	.inst	0x000a0d73 ; undefined
   873e4:	00000000 	udf	#0
   873e8:	49474552 	.inst	0x49474552 ; undefined
   873ec:	52455453 	.inst	0x52455453 ; undefined
   873f0:	00000020 	udf	#32
   873f4:	00000000 	udf	#0
   873f8:	656d6954 	fnmls	z20.h, p2/m, z10.h, z13.h
   873fc:	6b617420 	.inst	0x6b617420 ; undefined
   87400:	66206e65 	.inst	0x66206e65 ; undefined
   87404:	6920726f 	stgp	x15, x28, [x19, #-1024]
   87408:	61726574 	.inst	0x61726574 ; undefined
   8740c:	6e6f6974 	.inst	0x6e6f6974 ; undefined
   87410:	20642520 	.inst	0x20642520 ; undefined
   87414:	25207369 	.inst	0x25207369 ; undefined
   87418:	000a0d75 	.inst	0x000a0d75 ; undefined
   8741c:	00000000 	udf	#0
   87420:	74736574 	.inst	0x74736574 ; undefined
   87424:	6d616e5f 	ldp	d31, d27, [x18, #-496]
   87428:	72657365 	.inst	0x72657365 ; undefined
   8742c:	00726576 	.inst	0x00726576 ; undefined
   87430:	32335b1b 	orr	w27, w24, #0xffffe00f
   87434:	0000006d 	udf	#109
   87438:	74736574 	.inst	0x74736574 ; undefined
   8743c:	6d616e5f 	ldp	d31, d27, [x18, #-496]
   87440:	72657365 	.inst	0x72657365 ; undefined
   87444:	3a726576 	.inst	0x3a726576 ; undefined
   87448:	20794d20 	.inst	0x20794d20 ; undefined
   8744c:	656d616e 	fnmls	z14.h, p0/m, z11.h, z13.h
   87450:	20736920 	.inst	0x20736920 ; undefined
   87454:	0a0d7325 	and	w5, w25, w13, lsl #28
	...
   87460:	74736574 	.inst	0x74736574 ; undefined
   87464:	6d616e5f 	ldp	d31, d27, [x18, #-496]
   87468:	72657365 	.inst	0x72657365 ; undefined
   8746c:	3a726576 	.inst	0x3a726576 ; undefined
   87470:	67655220 	.inst	0x67655220 ; undefined
   87474:	65747369 	fnmls	z9.h, p4/m, z27.h, z20.h
   87478:	676e6972 	.inst	0x676e6972 ; undefined
   8747c:	20796d20 	.inst	0x20796d20 ; undefined
   87480:	656d616e 	fnmls	z14.h, p0/m, z11.h, z13.h
   87484:	00000a0d 	udf	#2573
   87488:	37335b1b 	tbnz	w27, #6, 8dfe8 <PROCS+0x67f0>
   8748c:	0000006d 	udf	#109
   87490:	74736574 	.inst	0x74736574 ; undefined
   87494:	6d616e5f 	ldp	d31, d27, [x18, #-496]
   87498:	72657365 	.inst	0x72657365 ; undefined
   8749c:	3a726576 	.inst	0x3a726576 ; undefined
   874a0:	6c614320 	ldnp	d0, d16, [x25, #-496]
   874a4:	676e696c 	.inst	0x676e696c ; undefined
   874a8:	6f687720 	uqshl	v0.2d, v25.2d, #40
   874ac:	6f207369 	.inst	0x6f207369 ; undefined
   874b0:	796d206e 	ldrh	w14, [x3, #5776]
   874b4:	666c6573 	.inst	0x666c6573 ; undefined
   874b8:	00000a0d 	udf	#2573
   874bc:	00000000 	udf	#0
   874c0:	74736574 	.inst	0x74736574 ; undefined
   874c4:	6d616e5f 	ldp	d31, d27, [x18, #-496]
   874c8:	72657365 	.inst	0x72657365 ; undefined
   874cc:	3a726576 	.inst	0x3a726576 ; undefined
   874d0:	64697420 	.inst	0x64697420 ; undefined
   874d4:	25203d20 	.inst	0x25203d20 ; undefined
   874d8:	000a0d75 	.inst	0x000a0d75 ; undefined
   874dc:	00000000 	udf	#0
   874e0:	79616c70 	ldrh	w16, [x3, #4278]
   874e4:	00317265 	.inst	0x00317265 ; NYI
   874e8:	6b636f72 	.inst	0x6b636f72 ; undefined
   874ec:	00000000 	udf	#0
   874f0:	79616c50 	ldrh	w16, [x2, #4278]
   874f4:	7525203a 	.inst	0x7525203a ; undefined
   874f8:	6c70202c 	ldnp	d12, d8, [x1, #-256]
   874fc:	72657961 	.inst	0x72657961 ; undefined
   87500:	6425203a 	fmul	z26.h, z1.h, z5.h[0]
   87504:	76616820 	.inst	0x76616820 ; undefined
   87508:	00203a65 	.inst	0x00203a65 ; NYI
   8750c:	00000000 	udf	#0
   87510:	00000a0d 	udf	#2573
   87514:	00000000 	udf	#0
   87518:	79616c70 	ldrh	w16, [x3, #4278]
   8751c:	00327265 	.inst	0x00327265 ; NYI
   87520:	65706170 	fnmls	z16.h, p0/m, z11.h, z16.h
   87524:	00000072 	udf	#114
   87528:	79616c50 	ldrh	w16, [x2, #4278]
   8752c:	2c752520 	ldnp	s0, s9, [x9, #-88]
   87530:	616c7020 	.inst	0x616c7020 ; undefined
   87534:	3a726579 	.inst	0x3a726579 ; undefined
   87538:	68206425 	.inst	0x68206425 ; undefined
   8753c:	3a657661 	.inst	0x3a657661 ; undefined
   87540:	00000020 	udf	#32
   87544:	00000000 	udf	#0

0000000000087548 <MMIO_BASE>:
   87548:	fe000000 	.inst	0xfe000000 ; undefined
   8754c:	00000000 	udf	#0

0000000000087550 <GPIO_BASE>:
   87550:	fe200000 	.inst	0xfe200000 ; undefined
   87554:	00000000 	udf	#0

0000000000087558 <GPFSEL_OFFSETS>:
   87558:	00000000 	udf	#0
   8755c:	00000004 	udf	#4
   87560:	00000008 	udf	#8
   87564:	0000000c 	udf	#12
   87568:	00000010 	udf	#16
   8756c:	00000014 	udf	#20

0000000000087570 <GPIO_PUP_PDN_CNTRL_OFFSETS>:
   87570:	000000e4 	udf	#228
   87574:	000000e8 	udf	#232
   87578:	000000ec 	udf	#236
   8757c:	000000f0 	udf	#240

0000000000087580 <GPIO_INPUT>:
   87580:	00000000 	udf	#0

0000000000087584 <GPIO_OUTPUT>:
   87584:	00000001 	udf	#1

0000000000087588 <GPIO_ALTFN0>:
   87588:	00000004 	udf	#4

000000000008758c <GPIO_ALTFN1>:
   8758c:	00000005 	udf	#5

0000000000087590 <GPIO_ALTFN2>:
   87590:	00000006 	udf	#6

0000000000087594 <GPIO_ALTFN3>:
   87594:	00000007 	udf	#7

0000000000087598 <GPIO_ALTFN4>:
   87598:	00000003 	udf	#3

000000000008759c <GPIO_ALTFN5>:
   8759c:	00000002 	udf	#2

00000000000875a0 <GPIO_NONE>:
   875a0:	00000000 	udf	#0

00000000000875a4 <GPIO_PUP>:
   875a4:	00000001 	udf	#1

00000000000875a8 <GPIO_PDP>:
   875a8:	00000002 	udf	#2
   875ac:	00000000 	udf	#0

00000000000875b0 <UART0_BASE>:
   875b0:	fe201000 	.inst	0xfe201000 ; undefined
   875b4:	00000000 	udf	#0

00000000000875b8 <UART3_BASE>:
   875b8:	fe201600 	.inst	0xfe201600 ; undefined
   875bc:	00000000 	udf	#0

00000000000875c0 <line_uarts>:
	...
   875c8:	fe201000 	.inst	0xfe201000 ; undefined
   875cc:	00000000 	udf	#0
   875d0:	fe201600 	.inst	0xfe201600 ; undefined
   875d4:	00000000 	udf	#0

00000000000875d8 <UART_DR>:
   875d8:	00000000 	udf	#0

00000000000875dc <UART_FR>:
   875dc:	00000018 	udf	#24

00000000000875e0 <UART_IBRD>:
   875e0:	00000024 	udf	#36

00000000000875e4 <UART_FBRD>:
   875e4:	00000028 	udf	#40

00000000000875e8 <UART_LCRH>:
   875e8:	0000002c 	udf	#44

00000000000875ec <UART_CR>:
   875ec:	00000030 	udf	#48

00000000000875f0 <UART_FR_CTS>:
   875f0:	00000001 	udf	#1

00000000000875f4 <UART_FR_RXFE>:
   875f4:	00000010 	udf	#16

00000000000875f8 <UART_FR_TXFF>:
   875f8:	00000020 	udf	#32

00000000000875fc <UART_FR_RXFF>:
   875fc:	00000040 	udf	#64

0000000000087600 <UART_FR_TXFE>:
   87600:	00000080 	udf	#128

0000000000087604 <UART_CR_UARTEN>:
   87604:	00000001 	udf	#1

0000000000087608 <UART_CR_LBE>:
   87608:	00000080 	udf	#128

000000000008760c <UART_CR_TXE>:
   8760c:	00000100 	udf	#256

0000000000087610 <UART_CR_RXE>:
   87610:	00000200 	udf	#512

0000000000087614 <UART_CR_RTS>:
   87614:	00000800 	udf	#2048

0000000000087618 <UART_CR_RTSEN>:
   87618:	00004000 	udf	#16384

000000000008761c <UART_CR_CTSEN>:
   8761c:	00008000 	udf	#32768

0000000000087620 <UART_LCRH_PEN>:
   87620:	00000002 	udf	#2

0000000000087624 <UART_LCRH_EPS>:
   87624:	00000004 	udf	#4

0000000000087628 <UART_LCRH_STP2>:
   87628:	00000008 	udf	#8

000000000008762c <UART_LCRH_FEN>:
   8762c:	00000010 	udf	#16

0000000000087630 <UART_LCRH_WLEN_LOW>:
   87630:	00000020 	udf	#32

0000000000087634 <UART_LCRH_WLEN_HIGH>:
   87634:	00000040 	udf	#64

0000000000087638 <UARTCLK>:
   87638:	02dc6c00 	.inst	0x02dc6c00 ; undefined
   8763c:	00000000 	udf	#0

0000000000087640 <STIMER_BASE>:
   87640:	fe003000 	.inst	0xfe003000 ; undefined
   87644:	00000000 	udf	#0

0000000000087648 <STIMER_CS>:
   87648:	00000000 	udf	#0

000000000008764c <STIMER_CLO>:
   8764c:	00000004 	udf	#4

0000000000087650 <STIMER_CHI>:
   87650:	00000008 	udf	#8

0000000000087654 <STIMER_C0>:
   87654:	0000000c 	udf	#12

0000000000087658 <STIMER_C1>:
   87658:	00000010 	udf	#16

000000000008765c <STIMER_C2>:
   8765c:	00000014 	udf	#20

0000000000087660 <STIMER_C3>:
   87660:	00000018 	udf	#24

0000000000087664 <CS_M0>:
   87664:	00000000 	udf	#0

0000000000087668 <CS_M1>:
   87668:	00000010 	udf	#16

000000000008766c <CS_M2>:
   8766c:	00000020 	udf	#32

0000000000087670 <CS_M3>:
   87670:	00000040 	udf	#64
   87674:	00000000 	udf	#0

0000000000087678 <compare_stimer>:
   87678:	40201000 	.inst	0x40201000 ; undefined

000000000008767c <STIMER_INT>:
   8767c:	00001388 	udf	#5000
   87680:	20676552 	.inst	0x20676552 ; undefined
   87684:	203a7525 	.inst	0x203a7525 ; undefined
   87688:	0d0a7825 	.inst	0x0d0a7825 ; undefined
   8768c:	00000000 	udf	#0
   87690:	206c6c41 	.inst	0x206c6c41 ; undefined
   87694:	6b736154 	.inst	0x6b736154 ; undefined
   87698:	6f432073 	umlal2	v19.4s, v3.8h, v3.h[0]
   8769c:	656c706d 	fnmls	z13.h, p4/m, z3.h, z12.h
   876a0:	202c6574 	.inst	0x202c6574 ; undefined
   876a4:	73657250 	.inst	0x73657250 ; undefined
   876a8:	6e412073 	.inst	0x6e412073 ; undefined
   876ac:	654b2079 	.inst	0x654b2079 ; undefined
   876b0:	6f742079 	umlal2	v25.4s, v3.8h, v4.h[3]
   876b4:	69784520 	ldpsw	x0, x17, [x9, #-64]
   876b8:	000d0a74 	.inst	0x000d0a74 ; undefined
   876bc:	00000000 	udf	#0
   876c0:	3a444950 	.inst	0x3a444950 ; undefined
   876c4:	2c752520 	ldnp	s0, s9, [x9, #-88]
   876c8:	61745320 	.inst	0x61745320 ; undefined
   876cc:	203a6574 	.inst	0x203a6574 ; undefined
   876d0:	0a0d7525 	and	w5, w9, w13, lsl #29
   876d4:	00000000 	udf	#0

00000000000876d8 <MMIO_BASE>:
   876d8:	fe000000 	.inst	0xfe000000 ; undefined
   876dc:	00000000 	udf	#0

00000000000876e0 <SYSTIMER_BASE>:
   876e0:	fe003000 	.inst	0xfe003000 ; undefined
   876e4:	00000000 	udf	#0

00000000000876e8 <SYSTIME_CS>:
   876e8:	00000000 	udf	#0

00000000000876ec <SYSTIME_CLO>:
   876ec:	00000004 	udf	#4

00000000000876f0 <SYSTIME_CHI>:
   876f0:	00000008 	udf	#8

00000000000876f4 <SYSTIME_C0>:
   876f4:	0000000c 	udf	#12

00000000000876f8 <SYSTIME_C1>:
   876f8:	00000010 	udf	#16

00000000000876fc <SYSTIME_C2>:
   876fc:	00000014 	udf	#20

0000000000087700 <SYSTIME_C3>:
   87700:	00000018 	udf	#24
   87704:	00000000 	udf	#0
   87708:	75255b1b 	.inst	0x75255b1b ; undefined
   8770c:	4875253b 	.inst	0x4875253b ; undefined
	...
   87718:	656d6974 	fnmls	z20.h, p2/m, z11.h, z13.h
   8771c:	25752520 	.inst	0x25752520 ; undefined
   87720:	3a752575 	.inst	0x3a752575 ; undefined
   87724:	75257525 	.inst	0x75257525 ; undefined
   87728:	2575253a 	.inst	0x2575253a ; undefined
   8772c:	75252e75 	.inst	0x75252e75 ; undefined
	...
   87738:	00002d20 	udf	#11552
   8773c:	00000000 	udf	#0
   87740:	00005c20 	udf	#23584
   87744:	00000000 	udf	#0
   87748:	00007c20 	udf	#31776
   8774c:	00000000 	udf	#0
   87750:	00002f20 	udf	#12064
   87754:	00000000 	udf	#0
   87758:	33335b1b 	.inst	0x33335b1b ; undefined
   8775c:	0000006d 	udf	#109
   87760:	39393939 	strb	w25, [x9, #3662]
   87764:	0000392e 	udf	#14638
   87768:	75257525 	.inst	0x75257525 ; undefined
   8776c:	75257525 	.inst	0x75257525 ; undefined
   87770:	0075252e 	.inst	0x0075252e ; undefined
   87774:	00000000 	udf	#0
   87778:	6d305b1b 	stp	d27, d22, [x24, #-256]
   8777c:	00000000 	udf	#0
   87780:	31335b1b 	adds	w27, w24, #0xcd6
   87784:	2575256d 	.inst	0x2575256d ; undefined
   87788:	5b1b2075 	.inst	0x5b1b2075 ; undefined
   8778c:	206d3333 	.inst	0x206d3333 ; undefined
   87790:	00000052 	udf	#82
   87794:	00000000 	udf	#0
   87798:	31335b1b 	adds	w27, w24, #0xcd6
   8779c:	2575256d 	.inst	0x2575256d ; undefined
   877a0:	5b1b2075 	.inst	0x5b1b2075 ; undefined
   877a4:	256d3333 	whilerw	p3.h, x25, x13
   877a8:	00752575 	.inst	0x00752575 ; undefined
   877ac:	00000000 	udf	#0
   877b0:	20202020 	.inst	0x20202020 ; undefined
   877b4:	00000020 	udf	#32
   877b8:	00006425 	udf	#25637
   877bc:	00000000 	udf	#0
   877c0:	36335b1b 	tbz	w27, #6, 8e320 <PROCS+0x6b28>
   877c4:	0000006d 	udf	#109
   877c8:	32335b1b 	orr	w27, w24, #0xffffe00f
   877cc:	Address 0x877cc is out of bounds.


Disassembly of section .bss:

00000000000877d0 <STACK_EL0_START>:
	...

00000000000877d8 <STIMER_SNOOZE>:
	...

00000000000877e0 <heap_size>:
	...

00000000000877e8 <STACKSTART>:
	...

00000000000877f0 <PID>:
	...

00000000000877f8 <PROCS>:
	...

0000000000092dd8 <READY_QUEUE>:
	...

0000000000092ec8 <BLOCKED_QUEUE>:
	...

0000000000092fc0 <stack>:
	...

00000000000a2fc0 <stackend>:
	...

Disassembly of section .debug_info:

0000000000000000 <.debug_info>:
       0:	000003f4 	udf	#1012
       4:	08010005 	stxrb	w1, w5, [x0]
       8:	00000000 	udf	#0
       c:	0001140d 	.inst	0x0001140d ; undefined
      10:	00001d00 	udf	#7424
      14:	000a0000 	.inst	0x000a0000 ; undefined
      18:	08000000 	stxrb	w0, w0, [x0]
      1c:	00000008 	udf	#8
      20:	05e80000 	.inst	0x05e80000 ; undefined
	...
      2c:	08020000 	stxrb	w2, w0, [x0]
      30:	00004705 	udf	#18181
      34:	000a0700 	.inst	0x000a0700 ; undefined
      38:	d6020000 	.inst	0xd6020000 ; undefined
      3c:	00004117 	udf	#16663
      40:	07080200 	.inst	0x07080200 ; undefined
      44:	000000b8 	udf	#184
      48:	bd070402 	str	s2, [x0, #1796]
      4c:	02000000 	.inst	0x02000000 ; undefined
      50:	00420508 	.inst	0x00420508 ; undefined
      54:	10020000 	adr	x0, 4054 <_start-0x7bfac>
      58:	00005c04 	udf	#23556
      5c:	002d0700 	.inst	0x002d0700 ; NYI
      60:	22030000 	.inst	0x22030000 ; undefined
      64:	00006917 	udf	#26903
      68:	06010200 	.inst	0x06010200 ; undefined
      6c:	00000079 	udf	#121
      70:	00050202 	.inst	0x00050202 ; undefined
      74:	0e000000 	tbl	v0.8b, {v0.16b}, v0.8b
      78:	6e690504 	uhadd	v4.8h, v8.8h, v9.8h
      7c:	2c070074 	stnp	s20, s0, [x3, #56]
      80:	03000000 	.inst	0x03000000 ; undefined
      84:	008a182e 	.inst	0x008a182e ; undefined
      88:	01020000 	.inst	0x01020000 ; undefined
      8c:	00007708 	udf	#30472
      90:	07020200 	.inst	0x07020200 ; undefined
      94:	0000008c 	udf	#140
      98:	00009d08 	udf	#40200
      9c:	08010200 	stxrb	w1, w0, [x16]
      a0:	00000080 	udf	#128
      a4:	00009d0f 	udf	#40207
      a8:	00fd0900 	.inst	0x00fd0900 ; undefined
      ac:	be0b0000 	.inst	0xbe0b0000 ; undefined
      b0:	05000000 	orr	z0.s, z0.s, #0x1
      b4:	00000035 	udf	#53
      b8:	00008a05 	udf	#35333
      bc:	9a090000 	adc	x0, x0, x9
      c0:	0f000001 	.inst	0x0f000001 ; undefined
      c4:	000000d4 	udf	#212
      c8:	00003505 	udf	#13573
      cc:	00980500 	.inst	0x00980500 ; undefined
      d0:	00100000 	.inst	0x00100000 ; undefined
      d4:	64326111 	.inst	0x64326111 ; undefined
      d8:	05080500 	.inst	0x05080500 ; undefined
      dc:	00000077 	udf	#119
      e0:	000000ea 	udf	#234
      e4:	00009d05 	udf	#40197
      e8:	af120000 	.inst	0xaf120000 ; undefined
      ec:	01000000 	.inst	0x01000000 ; undefined
      f0:	0d34067d 	.inst	0x0d34067d ; undefined
      f4:	00000008 	udf	#8
      f8:	00b40000 	.inst	0x00b40000 ; undefined
      fc:	00000000 	udf	#0
     100:	9c010000 	ldr	q0, 2100 <_start-0x7df00>
     104:	00000137 	udf	#311
     108:	67736d01 	.inst	0x67736d01 ; undefined
     10c:	98157d00 	ldrsw	x0, 2b0ac <_start-0x54f54>
     110:	02000000 	.inst	0x02000000 ; undefined
     114:	85036891 	ldff1w	{z17.s}, p2/z, [x4, z3.s, uxtw]
     118:	7d000000 	str	h0, [x0]
     11c:	00007e22 	udf	#32290
     120:	67910200 	.inst	0x67910200 ; undefined
     124:	00000c13 	udf	#3091
     128:	00690400 	.inst	0x00690400 ; undefined
     12c:	00770e7e 	.inst	0x00770e7e ; undefined
     130:	91020000 	add	x0, x0, #0x80
     134:	0600007c 	.inst	0x0600007c ; undefined
     138:	000000a8 	udf	#168
     13c:	0077056f 	.inst	0x0077056f ; undefined
     140:	0c900000 	st4	{v0.8b-v3.8b}, [x0], x16
     144:	00000008 	udf	#8
     148:	00a40000 	.inst	0x00a40000 ; undefined
     14c:	00000000 	udf	#0
     150:	9c010000 	ldr	q0, 2150 <_start-0x7deb0>
     154:	0000019d 	udf	#413
     158:	00085c03 	.inst	0x00085c03 ; undefined
     15c:	98126f00 	ldrsw	x0, 24f3c <_start-0x5b0c4>
     160:	02000000 	.inst	0x02000000 ; undefined
     164:	55036891 	.inst	0x55036891 ; undefined
     168:	6f000000 	.inst	0x6f000000 ; undefined
     16c:	0000771c 	udf	#30492
     170:	64910200 	fcmla	z0.s, p0/m, z16.s, z17.s, #0
     174:	63727301 	.inst	0x63727301 ; undefined
     178:	982a6f00 	ldrsw	x0, 54f58 <_start-0x2b0a8>
     17c:	02000000 	.inst	0x02000000 ; undefined
     180:	25035891 	bic	p1.b, p6/z, p4.b, p3.b
     184:	6f000000 	.inst	0x6f000000 ; undefined
     188:	00007733 	udf	#30515
     18c:	60910200 	.inst	0x60910200 ; undefined
     190:	70006904 	adr	x4, eb3 <_start-0x7f14d>
     194:	00007706 	udf	#30470
     198:	7c910200 	.inst	0x7c910200 ; undefined
     19c:	00d80a00 	.inst	0x00d80a00 ; undefined
     1a0:	bc5d0000 	ldur	s0, [x0, #-48]
     1a4:	0000080b 	udf	#2059
     1a8:	d4000000 	.inst	0xd4000000 ; undefined
     1ac:	00000000 	udf	#0
     1b0:	01000000 	.inst	0x01000000 ; undefined
     1b4:	00020a9c 	.inst	0x00020a9c ; undefined
     1b8:	00180300 	.inst	0x00180300 ; undefined
     1bc:	195d0000 	ldapurb	w0, [x0, #-48]
     1c0:	00000098 	udf	#152
     1c4:	03689102 	.inst	0x03689102 ; undefined
     1c8:	00000924 	udf	#2340
     1cc:	0077255d 	.inst	0x0077255d ; undefined
     1d0:	91020000 	add	x0, x0, #0x80
     1d4:	74730164 	.inst	0x74730164 ; undefined
     1d8:	325d0072 	.inst	0x325d0072 ; undefined
     1dc:	00000098 	udf	#152
     1e0:	03589102 	.inst	0x03589102 ; undefined
     1e4:	00000050 	udf	#80
     1e8:	00773b5d 	.inst	0x00773b5d ; undefined
     1ec:	91020000 	add	x0, x0, #0x80
     1f0:	00690460 	.inst	0x00690460 ; undefined
     1f4:	0077075e 	.inst	0x0077075e ; undefined
     1f8:	91020000 	add	x0, x0, #0x80
     1fc:	006a047c 	.inst	0x006a047c ; undefined
     200:	00770e5e 	.inst	0x00770e5e ; undefined
     204:	91020000 	add	x0, x0, #0x80
     208:	68140078 	.inst	0x68140078 ; undefined
     20c:	01000000 	.inst	0x01000000 ; undefined
     210:	00980756 	.inst	0x00980756 ; undefined
     214:	0ba00000 	.inst	0x0ba00000 ; undefined
     218:	00000008 	udf	#8
     21c:	001c0000 	.inst	0x001c0000 ; undefined
     220:	00000000 	udf	#0
     224:	9c010000 	ldr	q0, 2224 <_start-0x7dddc>
     228:	0000023b 	udf	#571
     22c:	74657204 	.inst	0x74657204 ; undefined
     230:	98085700 	ldrsw	x0, 10d10 <_start-0x6f2f0>
     234:	02000000 	.inst	0x02000000 ; undefined
     238:	06007891 	.inst	0x06007891 ; undefined
     23c:	00000107 	udf	#263
     240:	00770543 	.inst	0x00770543 ; undefined
     244:	0b080000 	add	w0, w0, w8
     248:	00000008 	udf	#8
     24c:	00980000 	.inst	0x00980000 ; undefined
     250:	00000000 	udf	#0
     254:	9c010000 	ldr	q0, 2254 <_start-0x7ddac>
     258:	00000287 	udf	#647
     25c:	00085c03 	.inst	0x00085c03 ; undefined
     260:	98184300 	ldrsw	x0, 30ac0 <_start-0x4f540>
     264:	02000000 	.inst	0x02000000 ; undefined
     268:	73016891 	.inst	0x73016891 ; undefined
     26c:	43006372 	.inst	0x43006372 ; undefined
     270:	0002872a 	.inst	0x0002872a ; undefined
     274:	60910200 	.inst	0x60910200 ; undefined
     278:	00001f0b 	udf	#7947
     27c:	77064400 	.inst	0x77064400 ; undefined
     280:	02000000 	.inst	0x02000000 ; undefined
     284:	08007c91 	stxrb	w0, w17, [x4]
     288:	000000a4 	udf	#164
     28c:	0000eb06 	udf	#60166
     290:	77053900 	.inst	0x77053900 ; undefined
     294:	7c000000 	stur	h0, [x0]
     298:	0000080a 	udf	#2058
     29c:	8c000000 	.inst	0x8c000000 ; undefined
     2a0:	00000000 	udf	#0
     2a4:	01000000 	.inst	0x01000000 ; undefined
     2a8:	0002c89c 	.inst	0x0002c89c ; undefined
     2ac:	31730100 	adds	w0, w8, #0xcc0, lsl #12
     2b0:	98163900 	ldrsw	x0, 2c9d0 <_start-0x53630>
     2b4:	02000000 	.inst	0x02000000 ; undefined
     2b8:	73017891 	.inst	0x73017891 ; undefined
     2bc:	20390032 	.inst	0x20390032 ; undefined
     2c0:	00000098 	udf	#152
     2c4:	00709102 	.inst	0x00709102 ; undefined
     2c8:	0000e40a 	udf	#58378
     2cc:	09b42900 	.inst	0x09b42900 ; undefined
     2d0:	00000008 	udf	#8
     2d4:	00c80000 	.inst	0x00c80000 ; undefined
     2d8:	00000000 	udf	#0
     2dc:	9c010000 	ldr	q0, 22dc <_start-0x7dd24>
     2e0:	0000030d 	udf	#781
     2e4:	74657201 	.inst	0x74657201 ; undefined
     2e8:	0d122900 	.inst	0x0d122900 ; undefined
     2ec:	02000003 	.inst	0x02000003 ; undefined
     2f0:	73017891 	.inst	0x73017891 ; undefined
     2f4:	1d290031 	.inst	0x1d290031 ; undefined
     2f8:	00000098 	udf	#152
     2fc:	01709102 	.inst	0x01709102 ; undefined
     300:	29003273 	stp	w19, w12, [x19]
     304:	00009827 	udf	#38951
     308:	68910200 	stgp	x0, x0, [x16], #544
     30c:	00770800 	.inst	0x00770800 ; undefined
     310:	ca0c0000 	eor	x0, x0, x12
     314:	1d000000 	.inst	0x1d000000 ; undefined
     318:	0000009d 	udf	#157
     31c:	00080938 	.inst	0x00080938 ; undefined
     320:	00000000 	udf	#0
     324:	0000007c 	udf	#124
     328:	00000000 	udf	#0
     32c:	034f9c01 	.inst	0x034f9c01 ; undefined
     330:	73010000 	.inst	0x73010000 ; undefined
     334:	1d007274 	.inst	0x1d007274 ; undefined
     338:	0000981a 	udf	#38938
     33c:	68910200 	stgp	x0, x0, [x16], #544
     340:	74657204 	.inst	0x74657204 ; undefined
     344:	9d0a1e00 	.inst	0x9d0a1e00 ; undefined
     348:	02000000 	.inst	0x02000000 ; undefined
     34c:	0c007f91 	st1	{v17.1d}, [x28]
     350:	000000cd 	udf	#205
     354:	00009d0e 	udf	#40206
     358:	0808a000 	stlxrb	w8, w0, [x0]
     35c:	00000000 	udf	#0
     360:	00009800 	udf	#38912
     364:	00000000 	udf	#0
     368:	9a9c0100 	csel	x0, x8, x28, eq	// eq = none
     36c:	01000003 	.inst	0x01000003 ; undefined
     370:	00727473 	.inst	0x00727473 ; undefined
     374:	0098170e 	.inst	0x0098170e ; undefined
     378:	91020000 	add	x0, x0, #0x80
     37c:	00f60b68 	.inst	0x00f60b68 ; undefined
     380:	0d0f0000 	.inst	0x0d0f0000 ; undefined
     384:	0000007e 	udf	#126
     388:	047e9102 	asr	z2.s, z8.s, #2
     38c:	00746572 	.inst	0x00746572 ; undefined
     390:	009d0a14 	.inst	0x009d0a14 ; undefined
     394:	91020000 	add	x0, x0, #0x80
     398:	1106007f 	add	wsp, w3, #0x180
     39c:	08000000 	stxrb	w0, w0, [x0]
     3a0:	00005d08 	udf	#23816
     3a4:	08082800 	stxrb	w8, w0, [x0]
     3a8:	00000000 	udf	#0
     3ac:	00007800 	udf	#30720
     3b0:	00000000 	udf	#0
     3b4:	ca9c0100 	eor	x0, x8, x28, asr #0
     3b8:	03000003 	.inst	0x03000003 ; undefined
     3bc:	00000034 	udf	#52
     3c0:	00981508 	.inst	0x00981508 ; undefined
     3c4:	91020000 	add	x0, x0, #0x80
     3c8:	9f150078 	.inst	0x9f150078 ; undefined
     3cc:	01000000 	.inst	0x01000000 ; undefined
     3d0:	005d0805 	.inst	0x005d0805 ; undefined
     3d4:	08000000 	stxrb	w0, w0, [x0]
     3d8:	00000008 	udf	#8
     3dc:	00280000 	.inst	0x00280000 ; NYI
     3e0:	00000000 	udf	#0
     3e4:	9c010000 	ldr	q0, 23e4 <_start-0x7dc1c>
     3e8:	72747301 	.inst	0x72747301 ; undefined
     3ec:	98170500 	ldrsw	x0, 2e48c <_start-0x51b74>
     3f0:	02000000 	.inst	0x02000000 ; undefined
     3f4:	00007891 	udf	#30865
     3f8:	00000068 	udf	#104
     3fc:	08010005 	stxrb	w1, w5, [x0]
     400:	0000017e 	udf	#382
     404:	00011402 	.inst	0x00011402 ; undefined
     408:	00d71d00 	.inst	0x00d71d00 ; undefined
     40c:	000a0000 	.inst	0x000a0000 ; undefined
     410:	025f0000 	.inst	0x025f0000 ; undefined
     414:	01010000 	.inst	0x01010000 ; undefined
     418:	00007906 	udf	#30982
     41c:	05020100 	orr	z0.d, z0.d, #0x1ff
     420:	00000000 	udf	#0
     424:	69050403 	stgp	x3, x1, [x0, #160]
     428:	0100746e 	.inst	0x0100746e ; undefined
     42c:	00470508 	.inst	0x00470508 ; undefined
     430:	01010000 	.inst	0x01010000 ; undefined
     434:	00007708 	udf	#30472
     438:	07020100 	.inst	0x07020100 ; undefined
     43c:	0000008c 	udf	#140
     440:	bd070401 	str	s1, [x0, #1796]
     444:	01000000 	.inst	0x01000000 ; undefined
     448:	00b80708 	.inst	0x00b80708 ; undefined
     44c:	08010000 	stxrb	w1, w0, [x0]
     450:	00004205 	udf	#16901
     454:	04100100 	mul	z0.b, p0/m, z0.b, z8.b
     458:	0000005c 	udf	#92
     45c:	80080101 	.inst	0x80080101 ; undefined
     460:	00000000 	udf	#0
     464:	000005c2 	udf	#1474
     468:	08010005 	stxrb	w1, w5, [x0]
     46c:	000001a4 	udf	#420
     470:	00011411 	.inst	0x00011411 ; undefined
     474:	00e41d00 	.inst	0x00e41d00 ; undefined
     478:	000a0000 	.inst	0x000a0000 ; undefined
     47c:	0de80000 	ld2	{v0.b, v1.b}[0], [x0], x8
     480:	00000008 	udf	#8
     484:	0a700000 	bic	w0, w0, w16, lsr #0
     488:	00000000 	udf	#0
     48c:	02900000 	.inst	0x02900000 ; undefined
     490:	01040000 	.inst	0x01040000 ; undefined
     494:	00007906 	udf	#30982
     498:	05020400 	orr	z0.d, z0.d, #0x1ffffffff
     49c:	00000000 	udf	#0
     4a0:	69050412 	stgp	x18, x1, [x0, #160]
     4a4:	0400746e 	mls	z14.b, p5/m, z3.b, z0.b
     4a8:	00470508 	.inst	0x00470508 ; undefined
     4ac:	2c0f0000 	stnp	s0, s0, [x0, #120]
     4b0:	2e000000 	ext	v0.8b, v0.8b, v0.8b, #0
     4b4:	00005518 	udf	#21784
     4b8:	08010400 	stxrb	w1, w0, [x0]
     4bc:	00000077 	udf	#119
     4c0:	8c070204 	.inst	0x8c070204 ; undefined
     4c4:	0f000000 	.inst	0x0f000000 ; undefined
     4c8:	00000204 	udf	#516
     4cc:	006e1934 	.inst	0x006e1934 ; undefined
     4d0:	04040000 	.inst	0x04040000 ; undefined
     4d4:	0000bd07 	udf	#48391
     4d8:	07080400 	.inst	0x07080400 ; undefined
     4dc:	000000b8 	udf	#184
     4e0:	42050804 	.inst	0x42050804 ; undefined
     4e4:	04000000 	add	z0.b, p0/m, z0.b, z0.b
     4e8:	005c0410 	.inst	0x005c0410 ; undefined
     4ec:	8f090000 	.inst	0x8f090000 ; undefined
     4f0:	04000000 	add	z0.b, p0/m, z0.b, z0.b
     4f4:	00800801 	.inst	0x00800801 ; undefined
     4f8:	8f130000 	.inst	0x8f130000 ; undefined
     4fc:	14000000 	b	4fc <_start-0x7fb04>
     500:	01b21508 	.inst	0x01b21508 ; undefined
     504:	01240000 	.inst	0x01240000 ; undefined
     508:	00f30820 	.inst	0x00f30820 ; undefined
     50c:	84070000 	ld1sb	{z0.s}, p0/z, [x0, z7.s, uxtw]
     510:	22000002 	.inst	0x22000002 ; undefined
     514:	0000630b 	udf	#25355
     518:	89070000 	.inst	0x89070000 ; undefined
     51c:	23000002 	.inst	0x23000002 ; undefined
     520:	0000630b 	udf	#25355
     524:	66070400 	.inst	0x66070400 ; undefined
     528:	24000002 	cmphs	p2.b, p0/z, z0.b, z0.b
     52c:	0000f307 	udf	#62215
     530:	d4070800 	.inst	0xd4070800 ; undefined
     534:	25000001 	cmpge	p1.b, p0/z, z0.b, #0
     538:	0000f307 	udf	#62215
     53c:	c9071200 	.inst	0xc9071200 ; undefined
     540:	26000001 	.inst	0x26000001 ; undefined
     544:	0000630b 	udf	#25355
     548:	70071c00 	adr	x0, e8cb <_start-0x71735>
     54c:	27000002 	.inst	0x27000002 ; undefined
     550:	0000630b 	udf	#25355
     554:	0a002000 	and	w0, w0, w0, lsl #8
     558:	0000008f 	udf	#143
     55c:	00000103 	udf	#259
     560:	0000750b 	udf	#29963
     564:	05000900 	orr	z0.s, z0.s, #0x800000ff
     568:	000001b7 	udf	#439
     56c:	003c1903 	.inst	0x003c1903 ; NYI
     570:	012c0000 	.inst	0x012c0000 ; undefined
     574:	3c010000 	stur	b0, [x0, #16]
     578:	01000000 	.inst	0x01000000 ; undefined
     57c:	0000012c 	udf	#300
     580:	00003c01 	udf	#15361
     584:	008a0100 	.inst	0x008a0100 ; undefined
     588:	3c010000 	stur	b0, [x0, #16]
     58c:	00000000 	udf	#0
     590:	00009609 	udf	#38409
     594:	02170500 	.inst	0x02170500 ; undefined
     598:	14040000 	b	100598 <stackend+0x5d5d8>
     59c:	0000003c 	udf	#60
     5a0:	00000146 	udf	#326
     5a4:	00012c01 	.inst	0x00012c01 ; undefined
     5a8:	bc050000 	stur	s0, [x0, #80]
     5ac:	03000001 	.inst	0x03000001 ; undefined
     5b0:	00003c1b 	udf	#15387
     5b4:	00016500 	.inst	0x00016500 ; undefined
     5b8:	003c0100 	.inst	0x003c0100 ; NYI
     5bc:	9b010000 	madd	x0, x0, x1, x0
     5c0:	01000000 	.inst	0x01000000 ; undefined
     5c4:	0000003c 	udf	#60
     5c8:	01f40500 	.inst	0x01f40500 ; undefined
     5cc:	1a030000 	adc	w0, w0, w3
     5d0:	0000003c 	udf	#60
     5d4:	00000184 	udf	#388
     5d8:	00018401 	.inst	0x00018401 ; undefined
     5dc:	008a0100 	.inst	0x008a0100 ; undefined
     5e0:	3c010000 	stur	b0, [x0, #16]
     5e4:	00000000 	udf	#0
     5e8:	00003c09 	udf	#15369
     5ec:	02480500 	.inst	0x02480500 ; undefined
     5f0:	0c040000 	.inst	0x0c040000 ; undefined
     5f4:	0000003c 	udf	#60
     5f8:	0000019e 	udf	#414
     5fc:	00012c01 	.inst	0x00012c01 ; undefined
     600:	eb050000 	subs	x0, x0, x5
     604:	05000000 	orr	z0.s, z0.s, #0x1
     608:	00003c0a 	udf	#15370
     60c:	0001b800 	.inst	0x0001b800 ; undefined
     610:	008a0100 	.inst	0x008a0100 ; undefined
     614:	8a010000 	and	x0, x0, x1
     618:	00000000 	udf	#0
     61c:	0000a805 	udf	#43013
     620:	3c120500 	str	b0, [x8], #-224
     624:	dc000000 	.inst	0xdc000000 ; undefined
     628:	01000001 	.inst	0x01000001 ; undefined
     62c:	0000008a 	udf	#138
     630:	00003c01 	udf	#15361
     634:	008a0100 	.inst	0x008a0100 ; undefined
     638:	3c010000 	stur	b0, [x0, #16]
     63c:	00000000 	udf	#0
     640:	00009f16 	udf	#40726
     644:	0b310100 	add	w0, w8, w17, uxtb
     648:	0000003c 	udf	#60
     64c:	000001ee 	udf	#494
     650:	120c0010 	and	w16, w0, #0x100000
     654:	d8000002 	prfm	pldl2keep, 654 <_start-0x7f9ac>
     658:	00008f06 	udf	#36614
     65c:	08180c00 	stxrb	w24, w0, [x0]
     660:	00000000 	udf	#0
     664:	00004c00 	udf	#19456
     668:	00000000 	udf	#0
     66c:	489c0100 	stllrh	w0, [x8]
     670:	06000002 	.inst	0x06000002 ; undefined
     674:	0000026b 	udf	#619
     678:	008a11d8 	.inst	0x008a11d8 ; undefined
     67c:	91020000 	add	x0, x0, #0x80
     680:	69700358 	ldpsw	x24, x0, [x26, #-128]
     684:	06d90064 	.inst	0x06d90064 ; undefined
     688:	0000003c 	udf	#60
     68c:	037c9102 	.inst	0x037c9102 ; undefined
     690:	0067736d 	.inst	0x0067736d ; undefined
     694:	024807da 	.inst	0x024807da ; undefined
     698:	91020000 	add	x0, x0, #0x80
     69c:	02400260 	.inst	0x02400260 ; undefined
     6a0:	07dd0000 	.inst	0x07dd0000 ; undefined
     6a4:	0000008f 	udf	#143
     6a8:	007b9102 	.inst	0x007b9102 ; undefined
     6ac:	00008f0a 	udf	#36618
     6b0:	00025800 	.inst	0x00025800 ; undefined
     6b4:	00750b00 	.inst	0x00750b00 ; undefined
     6b8:	00180000 	.inst	0x00180000 ; undefined
     6bc:	0001de0d 	.inst	0x0001de0d ; undefined
     6c0:	17c8d300 	b	ffffffffff2352c0 <e0stackend+0xffffffffff052300>
     6c4:	00000008 	udf	#8
     6c8:	00440000 	.inst	0x00440000 ; undefined
     6cc:	00000000 	udf	#0
     6d0:	9c010000 	ldr	q0, 26d0 <_start-0x7d930>
     6d4:	00000291 	udf	#657
     6d8:	64697003 	.inst	0x64697003 ; undefined
     6dc:	3c06d400 	str	b0, [x0], #109
     6e0:	02000000 	.inst	0x02000000 ; undefined
     6e4:	6d037c91 	stp	d17, d31, [x4, #48]
     6e8:	d5006773 	msr	s0_0_c6_c7_3, x19
     6ec:	00024807 	.inst	0x00024807 ; undefined
     6f0:	60910200 	.inst	0x60910200 ; undefined
     6f4:	028e0d00 	.inst	0x028e0d00 ; undefined
     6f8:	84ce0000 	ld1sh	{z0.s}, p0/z, [x0, z14.s, sxtw]
     6fc:	00000817 	udf	#2071
     700:	44000000 	.inst	0x44000000 ; undefined
     704:	00000000 	udf	#0
     708:	01000000 	.inst	0x01000000 ; undefined
     70c:	0002ca9c 	.inst	0x0002ca9c ; undefined
     710:	69700300 	.inst	0x69700300 ; undefined
     714:	06cf0064 	.inst	0x06cf0064 ; undefined
     718:	0000003c 	udf	#60
     71c:	037c9102 	.inst	0x037c9102 ; undefined
     720:	0067736d 	.inst	0x0067736d ; undefined
     724:	024807d0 	.inst	0x024807d0 ; undefined
     728:	91020000 	add	x0, x0, #0x80
     72c:	350d0060 	cbnz	w0, 1a738 <_start-0x658c8>
     730:	6b000002 	subs	w2, w0, w0
     734:	0008127c 	.inst	0x0008127c ; undefined
     738:	00000000 	udf	#0
     73c:	00000508 	udf	#1288
     740:	00000000 	udf	#0
     744:	045f9c01 	.inst	0x045f9c01 ; undefined
     748:	74030000 	.inst	0x74030000 ; undefined
     74c:	6d006469 	stp	d9, d25, [x3]
     750:	00003c06 	udf	#15366
     754:	48910200 	stllrh	w0, [x16]
     758:	67736d03 	.inst	0x67736d03 ; undefined
     75c:	5f076e00 	.inst	0x5f076e00 ; undefined
     760:	03000004 	.inst	0x03000004 ; undefined
     764:	027f9091 	.inst	0x027f9091 ; undefined
     768:	000001a6 	udf	#422
     76c:	046f0e6f 	.inst	0x046f0e6f ; undefined
     770:	91030000 	add	x0, x0, #0xc0
     774:	85027ca8 	ldff1w	{z8.s}, p7/z, [x5, z2.s, uxtw]
     778:	70000000 	adr	x0, 77b <_start-0x7f885>
     77c:	00003c06 	udf	#15366
     780:	70910200 	adr	x0, fffffffffff227c3 <e0stackend+0xffffffffffd3f803>
     784:	0812980e 	stlxrb	w18, w14, [x0]
     788:	00000000 	udf	#0
     78c:	00009000 	udf	#36864
     790:	00000000 	udf	#0
     794:	00034200 	.inst	0x00034200 ; undefined
     798:	00690300 	.inst	0x00690300 ; undefined
     79c:	003c0b71 	.inst	0x003c0b71 ; NYI
     7a0:	91020000 	add	x0, x0, #0x80
     7a4:	2808007c 	stnp	w28, w0, [x3, #64]
     7a8:	00000813 	udf	#2067
     7ac:	58000000 	ldr	x0, 7ac <_start-0x7f854>
     7b0:	00000004 	udf	#4
     7b4:	02000000 	.inst	0x02000000 ; undefined
     7b8:	000001c2 	udf	#450
     7bc:	003c077a 	.inst	0x003c077a ; NYI
     7c0:	91020000 	add	x0, x0, #0x80
     7c4:	13580e6c 	.inst	0x13580e6c ; undefined
     7c8:	00000008 	udf	#8
     7cc:	01180000 	.inst	0x01180000 ; undefined
     7d0:	00000000 	udf	#0
     7d4:	03a30000 	.inst	0x03a30000 ; undefined
     7d8:	2e020000 	ext	v0.8b, v0.8b, v2.8b, #0
     7dc:	91000002 	add	x2, x0, #0x0
     7e0:	00003c08 	udf	#15368
     7e4:	4c910200 	st4	{v0.16b-v3.16b}, [x16], x17
     7e8:	08135808 	stxrb	w19, w8, [x0]
     7ec:	00000000 	udf	#0
     7f0:	0000f800 	udf	#63488
     7f4:	00000000 	udf	#0
     7f8:	00690300 	.inst	0x00690300 ; undefined
     7fc:	003c0d80 	.inst	0x003c0d80 ; NYI
     800:	91020000 	add	x0, x0, #0x80
     804:	0e000078 	tbl	v24.8b, {v3.16b}, v0.8b
     808:	0008148c 	.inst	0x0008148c ; undefined
     80c:	00000000 	udf	#0
     810:	00000100 	udf	#256
     814:	00000000 	udf	#0
     818:	000003e5 	udf	#997
     81c:	00022e02 	.inst	0x00022e02 ; undefined
     820:	3c08a100 	stur	b0, [x8, #138]
     824:	02000000 	.inst	0x02000000 ; undefined
     828:	8c085091 	.inst	0x8c085091 ; undefined
     82c:	00000814 	udf	#2068
     830:	e0000000 	ld1b	{za0h.b[w12, 0]}, p0/z, [x0, x0]
     834:	00000000 	udf	#0
     838:	03000000 	.inst	0x03000000 ; undefined
     83c:	0d960069 	st1	{v9.b}[0], [x3], x22
     840:	0000003c 	udf	#60
     844:	00749102 	.inst	0x00749102 ; undefined
     848:	15e00800 	b	7802848 <e0stackend+0x761f888>
     84c:	00000008 	udf	#8
     850:	01a00000 	.inst	0x01a00000 ; undefined
     854:	00000000 	udf	#0
     858:	ec020000 	.inst	0xec020000 ; undefined
     85c:	ac000001 	stnp	q1, q0, [x0]
     860:	00004a0c 	udf	#18956
     864:	6b910200 	subs	w0, w16, w17, asr #0
     868:	00028402 	.inst	0x00028402 ; undefined
     86c:	3c08af00 	str	b0, [x24, #138]!
     870:	02000000 	.inst	0x02000000 ; undefined
     874:	89026491 	.inst	0x89026491 ; undefined
     878:	b0000002 	adrp	x2, 1000 <_start-0x7f000>
     87c:	00003c08 	udf	#15368
     880:	60910200 	.inst	0x60910200 ; undefined
     884:	08167808 	stxrb	w22, w8, [x0]
     888:	00000000 	udf	#0
     88c:	00010800 	.inst	0x00010800 ; undefined
     890:	00000000 	udf	#0
     894:	02270200 	.inst	0x02270200 ; undefined
     898:	09b40000 	.inst	0x09b40000 ; undefined
     89c:	0000003c 	udf	#60
     8a0:	025c9102 	.inst	0x025c9102 ; undefined
     8a4:	000001fc 	udf	#508
     8a8:	003c09b8 	.inst	0x003c09b8 ; NYI
     8ac:	91020000 	add	x0, x0, #0x80
     8b0:	025e0258 	.inst	0x025e0258 ; undefined
     8b4:	12b80000 	mov	w0, #0x3fffffff            	// #1073741823
     8b8:	0000003c 	udf	#60
     8bc:	00549102 	.inst	0x00549102 ; undefined
     8c0:	0a000000 	and	w0, w0, w0
     8c4:	0000008f 	udf	#143
     8c8:	0000046f 	udf	#1135
     8cc:	0000750b 	udf	#29963
     8d0:	0a003100 	and	w0, w8, w0, lsl #12
     8d4:	0000009d 	udf	#157
     8d8:	0000047f 	udf	#1151
     8dc:	0000750b 	udf	#29963
     8e0:	0c000900 	st4	{v0.2s-v3.2s}, [x8]
     8e4:	000001ac 	udf	#428
     8e8:	003c054d 	.inst	0x003c054d ; NYI
     8ec:	0ff80000 	.inst	0x0ff80000 ; undefined
     8f0:	00000008 	udf	#8
     8f4:	02840000 	.inst	0x02840000 ; undefined
     8f8:	00000000 	udf	#0
     8fc:	9c010000 	ldr	q0, 28fc <_start-0x7d704>
     900:	000004af 	udf	#1199
     904:	00027b06 	.inst	0x00027b06 ; undefined
     908:	af1d4d00 	.inst	0xaf1d4d00 ; undefined
     90c:	02000004 	.inst	0x02000004 ; undefined
     910:	09007891 	.inst	0x09007891 ; undefined
     914:	0000009d 	udf	#157
     918:	00025317 	.inst	0x00025317 ; undefined
     91c:	06450100 	.inst	0x06450100 ; undefined
     920:	00080fd4 	.inst	0x00080fd4 ; undefined
     924:	00000000 	udf	#0
     928:	00000024 	udf	#36
     92c:	00000000 	udf	#0
     930:	04e19c01 	lsl	z1.d, z0.d, #33
     934:	7b060000 	.inst	0x7b060000 ; undefined
     938:	45000002 	.inst	0x45000002 ; undefined
     93c:	0004af1e 	.inst	0x0004af1e ; undefined
     940:	78910200 	ldursh	x0, [x16, #-240]
     944:	01e30c00 	.inst	0x01e30c00 ; undefined
     948:	05340000 	ext	z0.b, z0.b, z0.b, #160
     94c:	0000003c 	udf	#60
     950:	00080e74 	.inst	0x00080e74 ; undefined
     954:	00000000 	udf	#0
     958:	00000160 	udf	#352
     95c:	00000000 	udf	#0
     960:	055a9c01 	.inst	0x055a9c01 ; undefined
     964:	6b060000 	subs	w0, w0, w6
     968:	34000002 	cbz	w2, 968 <_start-0x7f698>
     96c:	00008a14 	udf	#35348
     970:	68910200 	stgp	x0, x0, [x16], #544
     974:	64697418 	.inst	0x64697418 ; undefined
     978:	23340100 	.inst	0x23340100 ; undefined
     97c:	00000063 	udf	#CLOCKINTID
     980:	06649102 	.inst	0x06649102 ; undefined
     984:	000001a6 	udf	#422
     988:	04af3534 	xar	z20.d, z20.d, z9.d, #49
     98c:	91020000 	add	x0, x0, #0x80
     990:	01ec0258 	.inst	0x01ec0258 ; undefined
     994:	06350000 	.inst	0x06350000 ; undefined
     998:	0000003c 	udf	#60
     99c:	08789102 	.inst	0x08789102 ; undefined
     9a0:	00080e8c 	.inst	0x00080e8c ; undefined
     9a4:	00000000 	udf	#0
     9a8:	00000140 	udf	#320
     9ac:	00000000 	udf	#0
     9b0:	37006903 	tbnz	w3, #0, 16d0 <_start-0x7e930>
     9b4:	00003c0b 	udf	#15371
     9b8:	7c910200 	.inst	0x7c910200 ; undefined
     9bc:	0d0c0000 	.inst	0x0d0c0000 ; undefined
     9c0:	2e000002 	ext	v2.8b, v0.8b, v0.8b, #0
     9c4:	00004a09 	udf	#18953
     9c8:	080e2800 	stxrb	w14, w0, [x0]
     9cc:	00000000 	udf	#0
     9d0:	00004c00 	udf	#19456
     9d4:	00000000 	udf	#0
     9d8:	989c0100 	ldrsw	x0, fffffffffff389f8 <e0stackend+0xffffffffffd55a38>
     9dc:	06000005 	.inst	0x06000005 ; undefined
     9e0:	0000027b 	udf	#635
     9e4:	04af202e 	.inst	0x04af202e ; undefined
     9e8:	91020000 	add	x0, x0, #0x80
     9ec:	009f1978 	.inst	0x009f1978 ; undefined
     9f0:	31010000 	adds	w0, w0, #0x40
     9f4:	00003c0b 	udf	#15371
     9f8:	00001000 	udf	#4096
     9fc:	00021d1a 	.inst	0x00021d1a ; undefined
     a00:	09290100 	.inst	0x09290100 ; undefined
     a04:	0000004a 	udf	#74
     a08:	00080de8 	.inst	0x00080de8 ; undefined
     a0c:	00000000 	udf	#0
     a10:	00000040 	udf	#64
     a14:	00000000 	udf	#0
     a18:	7b069c01 	.inst	0x7b069c01 ; undefined
     a1c:	29000002 	stp	w2, w0, [x0]
     a20:	0004af20 	.inst	0x0004af20 ; undefined
     a24:	78910200 	ldursh	x0, [x16, #-240]
     a28:	05ed0000 	.inst	0x05ed0000 ; undefined
     a2c:	00050000 	.inst	0x00050000 ; undefined
     a30:	03410801 	.inst	0x03410801 ; undefined
     a34:	14120000 	b	480a34 <e0stackend+0x29da74>
     a38:	1d000001 	.inst	0x1d000001 ; undefined
     a3c:	00000112 	udf	#274
     a40:	0000000a 	udf	#10
     a44:	00081858 	.inst	0x00081858 ; undefined
     a48:	00000000 	udf	#0
     a4c:	00000894 	udf	#2196
     a50:	00000000 	udf	#0
     a54:	0000060e 	udf	#1550
     a58:	00002d0e 	udf	#11534
     a5c:	17220200 	b	fffffffffc88125c <e0stackend+0xfffffffffc69e29c>
     a60:	0000003a 	udf	#58
     a64:	79060104 	strh	w4, [x8, #768]
     a68:	04000000 	add	z0.b, p0/m, z0.b, z0.b
     a6c:	00000502 	udf	#1282
     a70:	04130000 	umulh	z0.b, p0/m, z0.b, z0.b
     a74:	746e6905 	.inst	0x746e6905 ; undefined
     a78:	04f20e00 	.inst	0x04f20e00 ; undefined
     a7c:	2b020000 	adds	w0, w0, w2
     a80:	00005b18 	udf	#23320
     a84:	05080400 	.inst	0x05080400 ; undefined
     a88:	00000047 	udf	#71
     a8c:	77080104 	.inst	0x77080104 ; undefined
     a90:	04000000 	add	z0.b, p0/m, z0.b, z0.b
     a94:	008c0702 	.inst	0x008c0702 ; undefined
     a98:	04040000 	.inst	0x04040000 ; undefined
     a9c:	0000bd07 	udf	#48391
     aa0:	07080400 	.inst	0x07080400 ; undefined
     aa4:	000000b8 	udf	#184
     aa8:	00000a0e 	udf	#2574
     aac:	17d60300 	b	ffffffffff5816ac <e0stackend+0xffffffffff39e6ec>
     ab0:	00000077 	udf	#119
     ab4:	42050804 	.inst	0x42050804 ; undefined
     ab8:	04000000 	add	z0.b, p0/m, z0.b, z0.b
     abc:	005c0410 	.inst	0x005c0410 ; undefined
     ac0:	9d080000 	.inst	0x9d080000 ; undefined
     ac4:	04000000 	add	z0.b, p0/m, z0.b, z0.b
     ac8:	00800801 	.inst	0x00800801 ; undefined
     acc:	9d140000 	.inst	0x9d140000 ; undefined
     ad0:	15000000 	b	4000ad0 <e0stackend+0x3e1db10>
     ad4:	00b21608 	.inst	0x00b21608 ; undefined
     ad8:	00090000 	.inst	0x00090000 ; undefined
     adc:	0000ab08 	udf	#43784
     ae0:	03860a00 	.inst	0x03860a00 ; undefined
     ae4:	0e040000 	tbl	v0.8b, {v0.16b}, v4.8b
     ae8:	000000cd 	udf	#205
     aec:	00007e01 	udf	#32257
     af0:	00cd0100 	.inst	0x00cd0100 ; undefined
     af4:	08000000 	stxrb	w0, w0, [x0]
     af8:	000000a4 	udf	#164
     afc:	0000fd0a 	udf	#64778
     b00:	e80b0400 	.inst	0xe80b0400 ; undefined
     b04:	01000000 	.inst	0x01000000 ; undefined
     b08:	0000007e 	udf	#126
     b0c:	00006201 	udf	#25089
     b10:	95110000 	bl	4440b10 <e0stackend+0x425db50>
     b14:	15000002 	b	4000b1c <e0stackend+0x3e1db5c>
     b18:	000000f4 	udf	#244
     b1c:	14050009 	b	140b40 <stackend+0x9db80>
     b20:	04000003 	add	z3.b, p0/m, z3.b, z0.b
     b24:	00620f0c 	.inst	0x00620f0c ; undefined
     b28:	010a0000 	.inst	0x010a0000 ; undefined
     b2c:	7e010000 	.inst	0x7e010000 ; undefined
     b30:	00000000 	udf	#0
     b34:	0000cd05 	udf	#52485
     b38:	06050500 	.inst	0x06050500 ; undefined
     b3c:	0000009d 	udf	#157
     b40:	00000120 	udf	#288
     b44:	00009801 	udf	#38913
     b48:	e40a0000 	.inst	0xe40a0000 ; undefined
     b4c:	05000000 	orr	z0.s, z0.s, #0x1
     b50:	00013b09 	.inst	0x00013b09 ; undefined
     b54:	013b0100 	.inst	0x013b0100 ; undefined
     b58:	98010000 	ldrsw	x0, 2b58 <_start-0x7d4a8>
     b5c:	01000000 	.inst	0x01000000 ; undefined
     b60:	00000098 	udf	#152
     b64:	00480800 	.inst	0x00480800 ; undefined
     b68:	63050000 	.inst	0x63050000 ; undefined
     b6c:	06000003 	.inst	0x06000003 ; undefined
     b70:	0048050f 	.inst	0x0048050f ; undefined
     b74:	01650000 	.inst	0x01650000 ; undefined
     b78:	48010000 	stxrh	w1, w0, [x0]
     b7c:	01000000 	.inst	0x01000000 ; undefined
     b80:	000000b2 	udf	#178
     b84:	00002e01 	udf	#11777
     b88:	01650100 	.inst	0x01650100 ; undefined
     b8c:	08000000 	stxrb	w0, w0, [x0]
     b90:	0000004f 	udf	#79
     b94:	0001bc05 	.inst	0x0001bc05 ; undefined
     b98:	051b0600 	mov	z0.b, p11/z, #48
     b9c:	00000048 	udf	#72
     ba0:	0000018a 	udf	#394
     ba4:	00004801 	udf	#18433
     ba8:	00a90100 	.inst	0x00a90100 ; undefined
     bac:	48010000 	stxrh	w1, w0, [x0]
     bb0:	00000000 	udf	#0
     bb4:	0001f405 	.inst	0x0001f405 ; undefined
     bb8:	051a0600 	mov	z0.b, p10/z, #48
     bbc:	00000048 	udf	#72
     bc0:	000001aa 	udf	#426
     bc4:	00013b01 	.inst	0x00013b01 ; undefined
     bc8:	00980100 	.inst	0x00980100 ; undefined
     bcc:	48010000 	stxrh	w1, w0, [x0]
     bd0:	00000000 	udf	#0
     bd4:	0002e211 	.inst	0x0002e211 ; undefined
     bd8:	01b61600 	.inst	0x01b61600 ; undefined
     bdc:	00090000 	.inst	0x00090000 ; undefined
     be0:	0001b705 	.inst	0x0001b705 ; undefined
     be4:	05190600 	mov	z0.b, p9/z, #48
     be8:	00000048 	udf	#72
     bec:	000001e0 	udf	#480
     bf0:	00004801 	udf	#18433
     bf4:	00cd0100 	.inst	0x00cd0100 ; undefined
     bf8:	48010000 	stxrh	w1, w0, [x0]
     bfc:	01000000 	.inst	0x01000000 ; undefined
     c00:	00000098 	udf	#152
     c04:	00004801 	udf	#18433
     c08:	17050000 	b	fffffffffc140c08 <e0stackend+0xfffffffffbf5dc48>
     c0c:	07000002 	.inst	0x07000002 ; undefined
     c10:	00480514 	.inst	0x00480514 ; undefined
     c14:	01f60000 	.inst	0x01f60000 ; undefined
     c18:	cd010000 	.inst	0xcd010000 ; undefined
     c1c:	00000000 	udf	#0
     c20:	00019a0a 	.inst	0x00019a0a ; undefined
     c24:	0d0f0400 	.inst	0x0d0f0400 ; undefined
     c28:	01000002 	.inst	0x01000002 ; undefined
     c2c:	0000007e 	udf	#126
     c30:	00009801 	udf	#38913
     c34:	05000900 	orr	z0.s, z0.s, #0x800000ff
     c38:	00000248 	udf	#584
     c3c:	48050c07 	stxrh	w5, w7, [x0]
     c40:	23000000 	.inst	0x23000000 ; undefined
     c44:	01000002 	.inst	0x01000002 ; undefined
     c48:	000000cd 	udf	#205
     c4c:	02b51700 	.inst	0x02b51700 ; undefined
     c50:	12060000 	and	w0, w0, #0x4000000
     c54:	00004805 	udf	#18437
     c58:	00023500 	.inst	0x00023500 ; undefined
     c5c:	18000900 	ldr	w0, d7c <_start-0x7f284>
     c60:	0100326b 	.inst	0x0100326b ; undefined
     c64:	1f980688 	.inst	0x1f980688 ; undefined
     c68:	00000008 	udf	#8
     c6c:	01540000 	.inst	0x01540000 ; undefined
     c70:	00000000 	udf	#0
     c74:	9c010000 	ldr	q0, 2c74 <_start-0x7d38c>
     c78:	00000289 	udf	#649
     c7c:	00033d02 	.inst	0x00033d02 ; undefined
     c80:	700f8b00 	adr	x0, 1fde3 <_start-0x6021d>
     c84:	02000000 	.inst	0x02000000 ; undefined
     c88:	90027c91 	adrp	x17, 4f90000 <e0stackend+0x4dad040>
     c8c:	8c000003 	.inst	0x8c000003 ; undefined
     c90:	00028907 	.inst	0x00028907 ; undefined
     c94:	40910200 	.inst	0x40910200 ; undefined
     c98:	00032402 	.inst	0x00032402 ; undefined
     c9c:	48068d00 	stlxrh	w6, w0, [x8]
     ca0:	02000000 	.inst	0x02000000 ; undefined
     ca4:	63037891 	.inst	0x63037891 ; undefined
     ca8:	9d079000 	.inst	0x9d079000 ; undefined
     cac:	02000000 	.inst	0x02000000 ; undefined
     cb0:	06007791 	.inst	0x06007791 ; undefined
     cb4:	0000009d 	udf	#157
     cb8:	00000299 	udf	#665
     cbc:	0000770b 	udf	#30475
     cc0:	19003100 	stlurb	w0, [x8, #3]
     cc4:	00000356 	udf	#854
     cc8:	78068101 	sturh	w1, [x8, #104]
     ccc:	0000081f 	udf	#2079
     cd0:	20000000 	.inst	0x20000000 ; undefined
     cd4:	00000000 	udf	#0
     cd8:	01000000 	.inst	0x01000000 ; undefined
     cdc:	029b079c 	.inst	0x029b079c ; undefined
     ce0:	cc560000 	.inst	0xcc560000 ; undefined
     ce4:	0000081d 	udf	#2077
     ce8:	ac000000 	stnp	q0, q0, [x0]
     cec:	00000001 	udf	#1
     cf0:	01000000 	.inst	0x01000000 ; undefined
     cf4:	0003929c 	.inst	0x0003929c ; undefined
     cf8:	72610f00 	.inst	0x72610f00 ; undefined
     cfc:	1d560072 	.inst	0x1d560072 ; undefined
     d00:	00000098 	udf	#152
     d04:	73889103 	.inst	0x73889103 ; undefined
     d08:	72747003 	.inst	0x72747003 ; undefined
     d0c:	98095800 	ldrsw	x0, 1380c <_start-0x6c7f4>
     d10:	02000000 	.inst	0x02000000 ; undefined
     d14:	6e037891 	ext	v17.16b, v4.16b, v3.16b, #15
     d18:	59006d75 	.inst	0x59006d75 ; undefined
     d1c:	00039209 	.inst	0x00039209 ; undefined
     d20:	b8910300 	ldursw	x0, [x24, #-240]
     d24:	00690379 	.inst	0x00690379 ; undefined
     d28:	0048075a 	.inst	0x0048075a ; undefined
     d2c:	91020000 	add	x0, x0, #0x80
     d30:	02e70274 	.inst	0x02e70274 ; undefined
     d34:	075b0000 	.inst	0x075b0000 ; undefined
     d38:	00000048 	udf	#72
     d3c:	02709102 	.inst	0x02709102 ; undefined
     d40:	000002d5 	udf	#725
     d44:	0098096c 	.inst	0x0098096c ; undefined
     d48:	91020000 	add	x0, x0, #0x80
     d4c:	6d630360 	ldp	d0, d0, [x27, #-464]
     d50:	076d0070 	.inst	0x076d0070 ; undefined
     d54:	00000048 	udf	#72
     d58:	79b49103 	ldrsh	x3, [x8, #6728]
     d5c:	081e601a 	stxrb	w30, w26, [x0]
     d60:	00000000 	udf	#0
     d64:	00004c00 	udf	#19456
     d68:	00000000 	udf	#0
     d6c:	00035400 	.inst	0x00035400 ; undefined
     d70:	006a0300 	.inst	0x006a0300 ; undefined
     d74:	00480c67 	.inst	0x00480c67 ; undefined
     d78:	91020000 	add	x0, x0, #0x80
     d7c:	dc10006c 	.inst	0xdc10006c ; undefined
     d80:	0000081e 	udf	#2078
     d84:	90000000 	adrp	x0, 0 <_start-0x80000>
     d88:	00000000 	udf	#0
     d8c:	02000000 	.inst	0x02000000 ; undefined
     d90:	000002f3 	udf	#755
     d94:	00480875 	.inst	0x00480875 ; undefined
     d98:	91020000 	add	x0, x0, #0x80
     d9c:	0351025c 	.inst	0x0351025c ; undefined
     da0:	0c760000 	.inst	0x0c760000 ; undefined
     da4:	000003a2 	udf	#930
     da8:	73909103 	.inst	0x73909103 ; undefined
     dac:	64697403 	.inst	0x64697403 ; undefined
     db0:	48087b00 	stxrh	w8, w0, [x24]
     db4:	02000000 	.inst	0x02000000 ; undefined
     db8:	00005891 	udf	#22673
     dbc:	00009806 	udf	#38918
     dc0:	0003a200 	.inst	0x0003a200 ; undefined
     dc4:	00770b00 	.inst	0x00770b00 ; undefined
     dc8:	00630000 	.inst	0x00630000 ; undefined
     dcc:	00004f06 	udf	#20230
     dd0:	0003b200 	.inst	0x0003b200 ; undefined
     dd4:	00770b00 	.inst	0x00770b00 ; undefined
     dd8:	00630000 	.inst	0x00630000 ; undefined
     ddc:	00037707 	.inst	0x00037707 ; undefined
     de0:	1d885000 	.inst	0x1d885000 ; undefined
     de4:	00000008 	udf	#8
     de8:	00440000 	.inst	0x00440000 ; undefined
     dec:	00000000 	udf	#0
     df0:	9c010000 	ldr	q0, 2df0 <_start-0x7d210>
     df4:	000003e7 	udf	#999
     df8:	5000690f 	adr	x15, 1b1a <_start-0x7e4e6>
     dfc:	00004819 	udf	#18457
     e00:	7c910200 	.inst	0x7c910200 ; undefined
     e04:	50006a0f 	adr	x15, 1b46 <_start-0x7e4ba>
     e08:	00004820 	udf	#18464
     e0c:	78910200 	ldursh	x0, [x16, #-240]
     e10:	02bb0700 	.inst	0x02bb0700 ; undefined
     e14:	fc460000 	ldur	d0, [x0, #96]
     e18:	0000081c 	udf	#2076
     e1c:	8c000000 	.inst	0x8c000000 ; undefined
     e20:	00000000 	udf	#0
     e24:	01000000 	.inst	0x01000000 ; undefined
     e28:	00042e9c 	.inst	0x00042e9c ; undefined
     e2c:	00850c00 	.inst	0x00850c00 ; undefined
     e30:	24460000 	cmphs	p0.h, p0/z, z0.h, z6.h
     e34:	00000048 	udf	#72
     e38:	026c9102 	.inst	0x026c9102 ; undefined
     e3c:	00000351 	udf	#849
     e40:	042e0a47 	.inst	0x042e0a47 ; undefined
     e44:	91020000 	add	x0, x0, #0x80
     e48:	69740370 	ldpsw	x16, x0, [x27, #-96]
     e4c:	09490064 	.inst	0x09490064 ; undefined
     e50:	00000048 	udf	#72
     e54:	007c9102 	.inst	0x007c9102 ; undefined
     e58:	00004f06 	udf	#20230
     e5c:	00043e00 	.inst	0x00043e00 ; undefined
     e60:	00770b00 	.inst	0x00770b00 ; undefined
     e64:	00000000 	udf	#0
     e68:	0002fa07 	.inst	0x0002fa07 ; undefined
     e6c:	1c703d00 	ldr	s0, e160c <stackend+0x3e64c>
     e70:	00000008 	udf	#8
     e74:	008c0000 	.inst	0x008c0000 ; undefined
     e78:	00000000 	udf	#0
     e7c:	9c010000 	ldr	q0, 2e7c <_start-0x7d184>
     e80:	00000485 	udf	#1157
     e84:	0000850c 	udf	#34060
     e88:	48243d00 	.inst	0x48243d00 ; undefined
     e8c:	02000000 	.inst	0x02000000 ; undefined
     e90:	51026c91 	sub	w17, w4, #0x9b
     e94:	3e000003 	.inst	0x3e000003 ; undefined
     e98:	00042e0a 	.inst	0x00042e0a ; undefined
     e9c:	70910200 	adr	x0, fffffffffff22edf <e0stackend+0xffffffffffd3ff1f>
     ea0:	64697403 	.inst	0x64697403 ; undefined
     ea4:	48094000 	stxrh	w9, w0, [x0]
     ea8:	02000000 	.inst	0x02000000 ; undefined
     eac:	07007c91 	.inst	0x07007c91 ; undefined
     eb0:	00000345 	udf	#837
     eb4:	081a5c28 	stxrb	w26, w8, [x1]
     eb8:	00000000 	udf	#0
     ebc:	00021400 	.inst	0x00021400 ; undefined
     ec0:	00000000 	udf	#0
     ec4:	259c0100 	cmpge	p0.s, p0/z, z8.s, #-4
     ec8:	0c000005 	st4	{v5.8b-v8.8b}, [x0]
     ecc:	00000085 	udf	#133
     ed0:	00481628 	.inst	0x00481628 ; undefined
     ed4:	91030000 	add	x0, x0, #0xc0
     ed8:	1e027fbc 	.inst	0x1e027fbc ; undefined
     edc:	2b000003 	adds	w3, w0, w0
     ee0:	00004806 	udf	#18438
     ee4:	78910200 	ldursh	x0, [x16, #-240]
     ee8:	64697403 	.inst	0x64697403 ; undefined
     eec:	48062d00 	stxrh	w6, w0, [x8]
     ef0:	02000000 	.inst	0x02000000 ; undefined
     ef4:	6d034891 	stp	d17, d18, [x4, #48]
     ef8:	2e006773 	.inst	0x2e006773 ; undefined
     efc:	00052507 	.inst	0x00052507 ; undefined
     f00:	68910300 	stgp	x0, x0, [x24], #544
     f04:	01c20206 	.inst	0x01c20206 ; undefined
     f08:	06340000 	.inst	0x06340000 ; undefined
     f0c:	00000048 	udf	#72
     f10:	02649102 	.inst	0x02649102 ; undefined
     f14:	00000967 	udf	#2407
     f18:	05380736 	ext	z22.b, z22.b, z25.b, #193
     f1c:	91030000 	add	x0, x0, #0xc0
     f20:	2e020650 	.inst	0x2e020650 ; undefined
     f24:	38000002 	sturb	w2, [x0]
     f28:	00004806 	udf	#18438
     f2c:	4c910200 	st4	{v0.16b-v3.16b}, [x16], x17
     f30:	081b2010 	stxrb	w27, w16, [x0]
     f34:	00000000 	udf	#0
     f38:	00003400 	udf	#13312
     f3c:	00000000 	udf	#0
     f40:	00690300 	.inst	0x00690300 ; undefined
     f44:	00480b2f 	.inst	0x00480b2f ; undefined
     f48:	91020000 	add	x0, x0, #0x80
     f4c:	0600007c 	.inst	0x0600007c ; undefined
     f50:	0000009d 	udf	#157
     f54:	00000538 	udf	#1336
     f58:	0000770d 	udf	#30477
     f5c:	70910300 	adr	x0, fffffffffff22fbf <e0stackend+0xffffffffffd3ffff>
     f60:	9d060006 	.inst	0x9d060006 ; undefined
     f64:	4b000000 	sub	w0, w0, w0
     f68:	0d000005 	st1	{v5.b}[0], [x0]
     f6c:	00000077 	udf	#119
     f70:	06589103 	.inst	0x06589103 ; undefined
     f74:	03330700 	.inst	0x03330700 ; undefined
     f78:	58130000 	ldr	x0, 26f78 <_start-0x59088>
     f7c:	00000818 	udf	#2072
     f80:	04000000 	add	z0.b, p0/m, z0.b, z0.b
     f84:	00000002 	udf	#2
     f88:	01000000 	.inst	0x01000000 ; undefined
     f8c:	0005ce9c 	.inst	0x0005ce9c ; undefined
     f90:	00850c00 	.inst	0x00850c00 ; undefined
     f94:	14130000 	b	4c0f94 <e0stackend+0x2ddfd4>
     f98:	00000048 	udf	#72
     f9c:	034c9102 	.inst	0x034c9102 ; undefined
     fa0:	00646974 	.inst	0x00646974 ; undefined
     fa4:	00480614 	.inst	0x00480614 ; undefined
     fa8:	91020000 	add	x0, x0, #0x80
     fac:	736d0378 	.inst	0x736d0378 ; undefined
     fb0:	07190067 	.inst	0x07190067 ; undefined
     fb4:	000005ce 	udf	#1486
     fb8:	06689103 	.inst	0x06689103 ; undefined
     fbc:	00036e02 	.inst	0x00036e02 ; undefined
     fc0:	e1072000 	.inst	0xe1072000 ; undefined
     fc4:	03000005 	.inst	0x03000005 ; undefined
     fc8:	02065891 	.inst	0x02065891 ; undefined
     fcc:	000002ac 	udf	#684
     fd0:	00480623 	.inst	0x00480623 ; undefined
     fd4:	91020000 	add	x0, x0, #0x80
     fd8:	19301054 	.inst	0x19301054 ; undefined
     fdc:	00000008 	udf	#8
     fe0:	00340000 	.inst	0x00340000 ; NYI
     fe4:	00000000 	udf	#0
     fe8:	69030000 	stgp	x0, x0, [x0, #96]
     fec:	480b1a00 	stxrh	w11, w0, [x16]
     ff0:	02000000 	.inst	0x02000000 ; undefined
     ff4:	00007c91 	udf	#31889
     ff8:	00009d06 	udf	#40198
     ffc:	0005e100 	.inst	0x0005e100 ; undefined
    1000:	00770d00 	.inst	0x00770d00 ; undefined
    1004:	91030000 	add	x0, x0, #0xc0
    1008:	1b000670 	madd	w16, w19, w0, w1
    100c:	0000009d 	udf	#157
    1010:	0000770d 	udf	#30477
    1014:	60910300 	.inst	0x60910300 ; undefined
    1018:	38000006 	sturb	w6, [x0]
    101c:	05000002 	orr	z2.s, z2.s, #0x1
    1020:	c7080100 	.inst	0xc7080100 ; undefined
    1024:	0a000004 	and	w4, w0, w0
    1028:	00000114 	udf	#276
    102c:	0001221d 	.inst	0x0001221d ; undefined
    1030:	00000a00 	udf	#2560
    1034:	0820ec00 	.inst	0x0820ec00 ; undefined
    1038:	00000000 	udf	#0
    103c:	0001a400 	.inst	0x0001a400 ; undefined
    1040:	00000000 	udf	#0
    1044:	00080900 	.inst	0x00080900 ; undefined
    1048:	06010200 	.inst	0x06010200 ; undefined
    104c:	00000079 	udf	#121
    1050:	00050202 	.inst	0x00050202 ; undefined
    1054:	0b000000 	add	w0, w0, w0
    1058:	6e690504 	uhadd	v4.8h, v8.8h, v9.8h
    105c:	08020074 	stxrb	w2, w20, [x3]
    1060:	00004705 	udf	#18181
    1064:	08010200 	stxrb	w1, w0, [x16]
    1068:	00000077 	udf	#119
    106c:	8c070202 	.inst	0x8c070202 ; undefined
    1070:	07000000 	.inst	0x07000000 ; undefined
    1074:	00000204 	udf	#516
    1078:	64193402 	.inst	0x64193402 ; undefined
    107c:	02000000 	.inst	0x02000000 ; undefined
    1080:	00bd0704 	.inst	0x00bd0704 ; undefined
    1084:	08020000 	stxrb	w2, w0, [x0]
    1088:	0000b807 	udf	#47111
    108c:	000a0700 	.inst	0x000a0700 ; undefined
    1090:	d6030000 	.inst	0xd6030000 ; undefined
    1094:	00006b17 	udf	#27415
    1098:	05080200 	.inst	0x05080200 ; undefined
    109c:	00000042 	udf	#66
    10a0:	5c041002 	ldr	d2, 92a0 <_start-0x76d60>
    10a4:	08000000 	stxrb	w0, w0, [x0]
    10a8:	00000091 	udf	#145
    10ac:	80080102 	.inst	0x80080102 ; undefined
    10b0:	0c000000 	st4	{v0.8b-v3.8b}, [x0]
    10b4:	00a10d08 	.inst	0x00a10d08 ; undefined
    10b8:	00040000 	.inst	0x00040000 ; undefined
    10bc:	00009a08 	udf	#39432
    10c0:	03b00e00 	.inst	0x03b00e00 ; undefined
    10c4:	07010000 	.inst	0x07010000 ; undefined
    10c8:	00009807 	udf	#38919
    10cc:	d0030900 	adrp	x0, 6123000 <e0stackend+0x5f40040>
    10d0:	00000877 	udf	#2167
    10d4:	05000000 	orr	z0.s, z0.s, #0x1
    10d8:	0000093d 	udf	#2365
    10dc:	00c91004 	.inst	0x00c91004 ; undefined
    10e0:	00040000 	.inst	0x00040000 ; undefined
    10e4:	00326b0f 	.inst	0x00326b0f ; NYI
    10e8:	d6060307 	.inst	0xd6060307 ; undefined
    10ec:	04000000 	add	z0.b, p0/m, z0.b, z0.b
    10f0:	02350500 	.inst	0x02350500 ; undefined
    10f4:	02050000 	.inst	0x02050000 ; undefined
    10f8:	000000e3 	udf	#227
    10fc:	80100004 	.inst	0x80100004 ; undefined
    1100:	08000004 	stxrb	w0, w4, [x0]
    1104:	c0110616 	.inst	0xc0110616 ; undefined
    1108:	04000003 	add	z3.b, p0/m, z3.b, z0.b
    110c:	003c050d 	.inst	0x003c050d ; NYI
    1110:	010b0000 	.inst	0x010b0000 ; undefined
    1114:	3c030000 	stur	b0, [x0, #48]
    1118:	03000000 	.inst	0x03000000 ; undefined
    111c:	000000a1 	udf	#161
    1120:	00003c03 	udf	#15363
    1124:	9a060000 	adc	x0, x0, x6
    1128:	06000001 	.inst	0x06000001 ; undefined
    112c:	0001220f 	.inst	0x0001220f ; undefined
    1130:	00720300 	.inst	0x00720300 ; undefined
    1134:	8c030000 	.inst	0x8c030000 ; undefined
    1138:	04000000 	add	z0.b, p0/m, z0.b, z0.b
    113c:	03cd0600 	.inst	0x03cd0600 ; undefined
    1140:	10060000 	adr	x0, d140 <_start-0x72ec0>
    1144:	0000013d 	udf	#317
    1148:	00007203 	udf	#29187
    114c:	00580300 	.inst	0x00580300 ; undefined
    1150:	58030000 	ldr	x0, 7150 <_start-0x78eb0>
    1154:	00000000 	udf	#0
    1158:	0003a605 	.inst	0x0003a605 ; undefined
    115c:	4a110600 	eor	w0, w16, w17, lsl #1
    1160:	04000001 	add	z1.b, p0/m, z1.b, z0.b
    1164:	039e0600 	.inst	0x039e0600 ; undefined
    1168:	08040000 	stxrb	w4, w0, [x0]
    116c:	0000015b 	udf	#347
    1170:	00009803 	udf	#38915
    1174:	98120000 	ldrsw	x0, 25174 <_start-0x5ae8c>
    1178:	01000003 	.inst	0x01000003 ; undefined
    117c:	003c050b 	.inst	0x003c050b ; NYI
    1180:	21640000 	.inst	0x21640000 ; undefined
    1184:	00000008 	udf	#8
    1188:	012c0000 	.inst	0x012c0000 ; undefined
    118c:	00000000 	udf	#0
    1190:	9c010000 	ldr	q0, 3190 <_start-0x7ce70>
    1194:	000001a4 	udf	#420
    1198:	67657201 	.inst	0x67657201 ; undefined
    119c:	98110b00 	ldrsw	x0, 232fc <_start-0x5cd04>
    11a0:	02000000 	.inst	0x02000000 ; undefined
    11a4:	61096891 	.inst	0x61096891 ; undefined
    11a8:	003c1700 	.inst	0x003c1700 ; NYI
    11ac:	91020000 	add	x0, x0, #0x80
    11b0:	6974097c 	ldpsw	x28, x2, [x11, #-96]
    11b4:	3c1b0064 	stur	b4, [x3, #-80]
    11b8:	02000000 	.inst	0x02000000 ; undefined
    11bc:	13007891 	sbfx	w17, w4, #0, #31
    11c0:	000003e4 	udf	#996
    11c4:	3c050801 	.inst	0x3c050801 ; undefined
    11c8:	ec000000 	.inst	0xec000000 ; undefined
    11cc:	00000820 	udf	#2080
    11d0:	78000000 	sturh	w0, [x0]
    11d4:	00000000 	udf	#0
    11d8:	01000000 	.inst	0x01000000 ; undefined
    11dc:	0061019c 	.inst	0x0061019c ; undefined
    11e0:	003c0f08 	.inst	0x003c0f08 ; NYI
    11e4:	91020000 	add	x0, x0, #0x80
    11e8:	0062017c 	.inst	0x0062017c ; undefined
    11ec:	003c1608 	.inst	0x003c1608 ; NYI
    11f0:	91020000 	add	x0, x0, #0x80
    11f4:	00630178 	.inst	0x00630178 ; undefined
    11f8:	003c1d08 	.inst	0x003c1d08 ; NYI
    11fc:	91020000 	add	x0, x0, #0x80
    1200:	00640174 	.inst	0x00640174 ; undefined
    1204:	003c2408 	.inst	0x003c2408 ; NYI
    1208:	91020000 	add	x0, x0, #0x80
    120c:	00650170 	.inst	0x00650170 ; undefined
    1210:	003c2b08 	.inst	0x003c2b08 ; NYI
    1214:	91020000 	add	x0, x0, #0x80
    1218:	0066016c 	.inst	0x0066016c ; undefined
    121c:	003c3208 	.inst	0x003c3208 ; NYI
    1220:	91020000 	add	x0, x0, #0x80
    1224:	00670168 	.inst	0x00670168 ; undefined
    1228:	003c3908 	.inst	0x003c3908 ; NYI
    122c:	91020000 	add	x0, x0, #0x80
    1230:	00680164 	.inst	0x00680164 ; undefined
    1234:	003c4008 	.inst	0x003c4008 ; NYI
    1238:	91020000 	add	x0, x0, #0x80
    123c:	00690160 	.inst	0x00690160 ; undefined
    1240:	003c4708 	.inst	0x003c4708 ; NYI
    1244:	91020000 	add	x0, x0, #0x80
    1248:	006a0100 	.inst	0x006a0100 ; undefined
    124c:	003c4e08 	.inst	0x003c4e08 ; NYI
    1250:	91020000 	add	x0, x0, #0x80
    1254:	dc000008 	.inst	0xdc000008 ; undefined
    1258:	05000004 	orr	z4.s, z4.s, #0x1
    125c:	fb080100 	.inst	0xfb080100 ; undefined
    1260:	0f000005 	.inst	0x0f000005 ; undefined
    1264:	00000114 	udf	#276
    1268:	0001461d 	.inst	0x0001461d ; undefined
    126c:	00000a00 	udf	#2560
    1270:	08229000 	.inst	0x08229000 ; undefined
    1274:	00000000 	udf	#0
    1278:	0004e800 	.inst	0x0004e800 ; undefined
    127c:	00000000 	udf	#0
    1280:	0008c000 	.inst	0x0008c000 ; undefined
    1284:	06010400 	.inst	0x06010400 ; undefined
    1288:	00000079 	udf	#121
    128c:	00050204 	.inst	0x00050204 ; undefined
    1290:	10000000 	adr	x0, 1290 <_start-0x7ed70>
    1294:	6e690504 	uhadd	v4.8h, v8.8h, v9.8h
    1298:	08040074 	stxrb	w4, w20, [x3]
    129c:	00004705 	udf	#18181
    12a0:	08010400 	stxrb	w1, w0, [x0]
    12a4:	00000077 	udf	#119
    12a8:	8c070204 	.inst	0x8c070204 ; undefined
    12ac:	04000000 	add	z0.b, p0/m, z0.b, z0.b
    12b0:	00bd0704 	.inst	0x00bd0704 ; undefined
    12b4:	08040000 	stxrb	w4, w0, [x0]
    12b8:	0000b807 	udf	#47111
    12bc:	000a1100 	.inst	0x000a1100 ; undefined
    12c0:	d6060000 	.inst	0xd6060000 ; undefined
    12c4:	00005f17 	udf	#24343
    12c8:	05080400 	.inst	0x05080400 ; undefined
    12cc:	00000042 	udf	#66
    12d0:	5c041004 	ldr	d4, 94d0 <_start-0x76b30>
    12d4:	09000000 	.inst	0x09000000 ; undefined
    12d8:	00000085 	udf	#133
    12dc:	80080104 	.inst	0x80080104 ; undefined
    12e0:	12000000 	and	w0, w0, #0x1
    12e4:	00000085 	udf	#133
    12e8:	cd050813 	.inst	0xcd050813 ; undefined
    12ec:	02000000 	.inst	0x02000000 ; undefined
    12f0:	00850605 	.inst	0x00850605 ; undefined
    12f4:	00a90000 	.inst	0x00a90000 ; undefined
    12f8:	80010000 	.inst	0x80010000 ; undefined
    12fc:	00000000 	udf	#0
    1300:	61326914 	.inst	0x61326914 ; undefined
    1304:	060b0500 	.inst	0x060b0500 ; undefined
    1308:	000000c0 	udf	#192
    130c:	00003c01 	udf	#15361
    1310:	00800100 	.inst	0x00800100 ; undefined
    1314:	15000000 	b	4001314 <e0stackend+0x3e1e354>
    1318:	000002b5 	udf	#693
    131c:	3c051203 	stur	b3, [x16, #81]
    1320:	d2000000 	eor	x0, x0, #0x100000001
    1324:	0a000000 	and	w0, w0, w0
    1328:	01b70500 	.inst	0x01b70500 ; undefined
    132c:	19030000 	stlurb	w0, [x0, #48]
    1330:	00003c05 	udf	#15365
    1334:	0000fc00 	udf	#64512
    1338:	003c0100 	.inst	0x003c0100 ; NYI
    133c:	fc010000 	stur	d0, [x0, #16]
    1340:	01000000 	.inst	0x01000000 ; undefined
    1344:	0000003c 	udf	#60
    1348:	00008001 	udf	#32769
    134c:	003c0100 	.inst	0x003c0100 ; NYI
    1350:	09000000 	.inst	0x09000000 ; undefined
    1354:	0000008c 	udf	#140
    1358:	00010705 	.inst	0x00010705 ; undefined
    135c:	050b0200 	.inst	0x050b0200 ; undefined
    1360:	0000003c 	udf	#60
    1364:	0000011c 	udf	#284
    1368:	00008001 	udf	#32769
    136c:	00fc0100 	.inst	0x00fc0100 ; undefined
    1370:	06000000 	.inst	0x06000000 ; undefined
    1374:	0000019a 	udf	#410
    1378:	01330f04 	.inst	0x01330f04 ; undefined
    137c:	66010000 	.inst	0x66010000 ; undefined
    1380:	01000000 	.inst	0x01000000 ; undefined
    1384:	00000080 	udf	#128
    1388:	ea06000a 	ands	x10, x0, x6
    138c:	05000003 	orr	z3.s, z3.s, #0x1
    1390:	00014e0a 	.inst	0x00014e0a ; undefined
    1394:	00580100 	.inst	0x00580100 ; undefined
    1398:	58010000 	ldr	x0, 3398 <_start-0x7cc68>
    139c:	01000000 	.inst	0x01000000 ; undefined
    13a0:	00000080 	udf	#128
    13a4:	00e40600 	.inst	0x00e40600 ; undefined
    13a8:	09020000 	.inst	0x09020000 ; undefined
    13ac:	00000169 	udf	#361
    13b0:	00016901 	.inst	0x00016901 ; undefined
    13b4:	00800100 	.inst	0x00800100 ; undefined
    13b8:	80010000 	.inst	0x80010000 ; undefined
    13bc:	00000000 	udf	#0
    13c0:	00003c09 	udf	#15369
    13c4:	01bc0500 	.inst	0x01bc0500 ; undefined
    13c8:	1b030000 	madd	w0, w0, w3, w0
    13cc:	00003c05 	udf	#15365
    13d0:	00018e00 	.inst	0x00018e00 ; undefined
    13d4:	003c0100 	.inst	0x003c0100 ; NYI
    13d8:	91010000 	add	x0, x0, #0x40
    13dc:	01000000 	.inst	0x01000000 ; undefined
    13e0:	0000003c 	udf	#60
    13e4:	00eb0500 	.inst	0x00eb0500 ; undefined
    13e8:	0a020000 	and	w0, w0, w2
    13ec:	00003c05 	udf	#15365
    13f0:	0001a900 	.inst	0x0001a900 ; undefined
    13f4:	00800100 	.inst	0x00800100 ; undefined
    13f8:	80010000 	.inst	0x80010000 ; undefined
    13fc:	00000000 	udf	#0
    1400:	0000d806 	udf	#55302
    1404:	c9100200 	.inst	0xc9100200 ; undefined
    1408:	01000001 	.inst	0x01000001 ; undefined
    140c:	00000080 	udf	#128
    1410:	00003c01 	udf	#15361
    1414:	00800100 	.inst	0x00800100 ; undefined
    1418:	3c010000 	stur	b0, [x0, #16]
    141c:	00000000 	udf	#0
    1420:	0001f405 	.inst	0x0001f405 ; undefined
    1424:	051a0300 	mov	z0.b, p10/z, #24
    1428:	0000003c 	udf	#60
    142c:	000001e9 	udf	#489
    1430:	00016901 	.inst	0x00016901 ; undefined
    1434:	00800100 	.inst	0x00800100 ; undefined
    1438:	3c010000 	stur	b0, [x0, #16]
    143c:	00000000 	udf	#0
    1440:	0000a805 	udf	#43013
    1444:	05120200 	mov	z0.b, p2/z, #16
    1448:	0000003c 	udf	#60
    144c:	0000020e 	udf	#526
    1450:	00008001 	udf	#32769
    1454:	003c0100 	.inst	0x003c0100 ; NYI
    1458:	80010000 	.inst	0x80010000 ; undefined
    145c:	01000000 	.inst	0x01000000 ; undefined
    1460:	0000003c 	udf	#60
    1464:	02170b00 	.inst	0x02170b00 ; undefined
    1468:	3c8c0000 	stur	q0, [x0, #192]
    146c:	00000000 	udf	#0
    1470:	00000827 	udf	#2087
    1474:	78000000 	sturh	w0, [x0]
    1478:	00000000 	udf	#0
    147c:	01000000 	.inst	0x01000000 ; undefined
    1480:	0002699c 	.inst	0x0002699c ; undefined
    1484:	04950c00 	udiv	z0.s, p3/m, z0.s, z0.s
    1488:	178c0000 	b	fffffffffe301488 <e0stackend+0xfffffffffe11e4c8>
    148c:	000000fc 	udf	#252
    1490:	7f889103 	fmulx	s3, s8, v8.s[0]
    1494:	70657203 	adr	x3, cc2d7 <stackend+0x29317>
    1498:	69078d00 	stgp	x0, x3, [x8, #240]
    149c:	02000002 	.inst	0x02000002 ; undefined
    14a0:	12024891 	and	w17, w4, #0xc001ffff
    14a4:	8e000004 	.inst	0x8e000004 ; undefined
    14a8:	00026907 	.inst	0x00026907 ; undefined
    14ac:	90910300 	adrp	x0, ffffffff22061000 <e0stackend+0xffffffff21e7e040>
    14b0:	03ef027f 	.inst	0x03ef027f ; undefined
    14b4:	06910000 	.inst	0x06910000 ; undefined
    14b8:	0000003c 	udf	#60
    14bc:	007c9102 	.inst	0x007c9102 ; undefined
    14c0:	0000850d 	udf	#34061
    14c4:	00027900 	.inst	0x00027900 ; undefined
    14c8:	005f0700 	.inst	0x005f0700 ; undefined
    14cc:	00310000 	.inst	0x00310000 ; NYI
    14d0:	00040716 	.inst	0x00040716 ; undefined
    14d4:	05810100 	and	z0.s, z0.s, #0x1ff
    14d8:	0000003c 	udf	#60
    14dc:	00082664 	.inst	0x00082664 ; undefined
    14e0:	00000000 	udf	#0
    14e4:	0000009c 	udf	#156
    14e8:	00000000 	udf	#0
    14ec:	02e49c01 	.inst	0x02e49c01 ; undefined
    14f0:	74030000 	.inst	0x74030000 ; undefined
    14f4:	82006469 	.inst	0x82006469 ; undefined
    14f8:	00003c06 	udf	#15366
    14fc:	7c910200 	.inst	0x7c910200 ; undefined
    1500:	70657203 	adr	x3, cc343 <stackend+0x29383>
    1504:	69078300 	stgp	x0, x0, [x24, #240]
    1508:	02000002 	.inst	0x02000002 ; undefined
    150c:	12024091 	and	w17, w4, #0xc0007fff
    1510:	84000004 	ld1sb	{z4.s}, p0/z, [x0, z0.s, uxtw]
    1514:	00026907 	.inst	0x00026907 ; undefined
    1518:	88910300 	stllr	w0, [x24]
    151c:	03ff027f 	.inst	0x03ff027f ; undefined
    1520:	07850000 	.inst	0x07850000 ; undefined
    1524:	000002e4 	udf	#740
    1528:	7ef89103 	.inst	0x7ef89103 ; undefined
    152c:	0003ef02 	.inst	0x0003ef02 ; undefined
    1530:	3c068700 	str	b0, [x24], #104
    1534:	02000000 	.inst	0x02000000 ; undefined
    1538:	0d007891 	st3	{v17.h-v19.h}[3], [x4]
    153c:	00000085 	udf	#133
    1540:	000002f4 	udf	#756
    1544:	00005f07 	udf	#24327
    1548:	0b000900 	add	w0, w8, w0, lsl #2
    154c:	00000248 	udf	#584
    1550:	00003c75 	udf	#15477
    1554:	0825e000 	.inst	0x0825e000 ; undefined
    1558:	00000000 	udf	#0
    155c:	00008400 	udf	#33792
    1560:	00000000 	udf	#0
    1564:	4f9c0100 	fmlal	v0.4s, v8.4h, v12.h[1]
    1568:	0c000003 	st4	{v3.8b-v6.8b}, [x0]
    156c:	00000495 	udf	#1173
    1570:	00fc1c75 	.inst	0x00fc1c75 ; undefined
    1574:	91030000 	add	x0, x0, #0xc0
    1578:	72037f88 	.inst	0x72037f88 ; undefined
    157c:	76007065 	.inst	0x76007065 ; undefined
    1580:	00026907 	.inst	0x00026907 ; undefined
    1584:	48910200 	stllrh	w0, [x16]
    1588:	00041202 	.inst	0x00041202 ; undefined
    158c:	69077700 	stgp	x0, x29, [x24, #224]
    1590:	03000002 	.inst	0x03000002 ; undefined
    1594:	027f9091 	.inst	0x027f9091 ; undefined
    1598:	000003ef 	udf	#1007
    159c:	003c0679 	.inst	0x003c0679 ; NYI
    15a0:	91020000 	add	x0, x0, #0x80
    15a4:	8017007c 	.inst	0x8017007c ; undefined
    15a8:	01000004 	.inst	0x01000004 ; undefined
    15ac:	2290061f 	.inst	0x2290061f ; undefined
    15b0:	00000008 	udf	#8
    15b4:	03500000 	.inst	0x03500000 ; undefined
    15b8:	00000000 	udf	#0
    15bc:	9c010000 	ldr	q0, 35bc <_start-0x7ca44>
    15c0:	000004cd 	udf	#1229
    15c4:	0003f502 	.inst	0x0003f502 ; undefined
    15c8:	cd082000 	.inst	0xcd082000 ; undefined
    15cc:	03000004 	.inst	0x03000004 ; undefined
    15d0:	03419091 	.inst	0x03419091 ; undefined
    15d4:	00646974 	.inst	0x00646974 ; undefined
    15d8:	003c0621 	.inst	0x003c0621 ; NYI
    15dc:	91030000 	add	x0, x0, #0xc0
    15e0:	6d03418c 	stp	d12, d16, [x12, #48]
    15e4:	22006773 	.inst	0x22006773 ; undefined
    15e8:	00026907 	.inst	0x00026907 ; undefined
    15ec:	d8910300 	prfm	pldl1keep, fffffffffff2364c <e0stackend+0xffffffffffd4068c>
    15f0:	00850240 	.inst	0x00850240 ; undefined
    15f4:	06230000 	.inst	0x06230000 ; undefined
    15f8:	0000003c 	udf	#60
    15fc:	08709102 	.inst	0x08709102 ; undefined
    1600:	000822a8 	.inst	0x000822a8 ; undefined
    1604:	00000000 	udf	#0
    1608:	00000044 	udf	#68
    160c:	00000000 	udf	#0
    1610:	000003ca 	udf	#970
    1614:	24006903 	cmplt	p3.b, p2/z, z8.b, z0.d
    1618:	00003c0b 	udf	#15371
    161c:	7c910200 	.inst	0x7c910200 ; undefined
    1620:	23080e00 	.inst	0x23080e00 ; undefined
    1624:	00000008 	udf	#8
    1628:	02d40000 	.inst	0x02d40000 ; undefined
    162c:	00000000 	udf	#0
    1630:	c2020000 	.inst	0xc2020000 ; undefined
    1634:	2c000001 	stnp	s1, s0, [x0]
    1638:	00003c07 	udf	#15367
    163c:	6c910200 	stp	d0, d0, [x16], #272
    1640:	00039002 	.inst	0x00039002 ; undefined
    1644:	69082f00 	stgp	x0, x11, [x24, #256]
    1648:	04000002 	add	z2.b, p0/m, z2.b, z0.b
    164c:	7fbfd891 	sqrdmlah	s17, s4, v31.s[3]
    1650:	00049502 	.inst	0x00049502 ; undefined
    1654:	69083000 	stgp	x0, x12, [x0, #256]
    1658:	03000002 	.inst	0x03000002 ; undefined
    165c:	02409091 	.inst	0x02409091 ; undefined
    1660:	000002d5 	udf	#725
    1664:	00800938 	.inst	0x00800938 ; undefined
    1668:	91020000 	add	x0, x0, #0x80
    166c:	6d630360 	ldp	d0, d0, [x27, #-464]
    1670:	07390070 	.inst	0x07390070 ; undefined
    1674:	0000003c 	udf	#60
    1678:	40d49103 	.inst	0x40d49103 ; undefined
    167c:	08237408 	.inst	0x08237408 ; undefined
    1680:	00000000 	udf	#0
    1684:	00005800 	udf	#22528
    1688:	00000000 	udf	#0
    168c:	00044900 	.inst	0x00044900 ; undefined
    1690:	022e0200 	.inst	0x022e0200 ; undefined
    1694:	08450000 	ldxrb	w0, [x0]
    1698:	0000003c 	udf	#60
    169c:	005c9102 	.inst	0x005c9102 ; undefined
    16a0:	0823f408 	.inst	0x0823f408 ; undefined
    16a4:	00000000 	udf	#0
    16a8:	00008c00 	udf	#35840
    16ac:	00000000 	udf	#0
    16b0:	00048900 	.inst	0x00048900 ; undefined
    16b4:	65720300 	fmla	z0.h, p0/m, z24.h, z18.h
    16b8:	084d0074 	ldxrb	w20, [x3]
    16bc:	0000003c 	udf	#60
    16c0:	03789102 	.inst	0x03789102 ; undefined
    16c4:	58006662 	ldr	x2, 2390 <_start-0x7dc70>
    16c8:	0002e409 	.inst	0x0002e409 ; undefined
    16cc:	c8910300 	stllr	x0, [x24]
    16d0:	022e0240 	.inst	0x022e0240 ; undefined
    16d4:	085b0000 	ldxrb	w0, [x0]
    16d8:	0000003c 	udf	#60
    16dc:	00589102 	.inst	0x00589102 ; undefined
    16e0:	0824a808 	.inst	0x0824a808 ; undefined
    16e4:	00000000 	udf	#0
    16e8:	0000a800 	udf	#43008
    16ec:	00000000 	udf	#0
    16f0:	0004ad00 	.inst	0x0004ad00 ; undefined
    16f4:	022e0200 	.inst	0x022e0200 ; undefined
    16f8:	08660000 	.inst	0x08660000 ; undefined
    16fc:	0000003c 	udf	#60
    1700:	00549102 	.inst	0x00549102 ; undefined
    1704:	0825700e 	.inst	0x0825700e ; undefined
    1708:	00000000 	udf	#0
    170c:	00005c00 	udf	#23552
    1710:	00000000 	udf	#0
    1714:	00690300 	.inst	0x00690300 ; undefined
    1718:	003c0c6b 	.inst	0x003c0c6b ; NYI
    171c:	91020000 	add	x0, x0, #0x80
    1720:	00000074 	udf	#116
    1724:	00008018 	udf	#32792
    1728:	005f0700 	.inst	0x005f0700 ; undefined
    172c:	07130000 	.inst	0x07130000 ; undefined
    1730:	0000005f 	udf	#95
    1734:	b9000031 	str	w17, [x1]
    1738:	05000001 	orr	z1.s, z1.s, #0x1
    173c:	67080100 	.inst	0x67080100 ; undefined
    1740:	09000007 	.inst	0x09000007 ; undefined
    1744:	00000114 	udf	#276
    1748:	0001531d 	.inst	0x0001531d ; undefined
    174c:	00000a00 	udf	#2560
    1750:	08277800 	.inst	0x08277800 ; undefined
    1754:	00000000 	udf	#0
    1758:	00010800 	.inst	0x00010800 ; undefined
    175c:	00000000 	udf	#0
    1760:	000a3200 	.inst	0x000a3200 ; undefined
    1764:	06010100 	.inst	0x06010100 ; undefined
    1768:	00000079 	udf	#121
    176c:	00050201 	.inst	0x00050201 ; undefined
    1770:	0a000000 	and	w0, w0, w0
    1774:	6e690504 	uhadd	v4.8h, v8.8h, v9.8h
    1778:	08010074 	stxrb	w1, w20, [x3]
    177c:	00004705 	udf	#18181
    1780:	08010100 	stxrb	w1, w0, [x8]
    1784:	00000077 	udf	#119
    1788:	8c070201 	.inst	0x8c070201 ; undefined
    178c:	01000000 	.inst	0x01000000 ; undefined
    1790:	00bd0704 	.inst	0x00bd0704 ; undefined
    1794:	08010000 	stxrb	w1, w0, [x0]
    1798:	0000b807 	udf	#47111
    179c:	000a0b00 	.inst	0x000a0b00 ; undefined
    17a0:	d6040000 	.inst	0xd6040000 ; undefined
    17a4:	00005f17 	udf	#24343
    17a8:	05080100 	.inst	0x05080100 ; undefined
    17ac:	00000042 	udf	#66
    17b0:	5c041001 	ldr	d1, 99b0 <_start-0x76650>
    17b4:	05000000 	orr	z0.s, z0.s, #0x1
    17b8:	00000085 	udf	#133
    17bc:	80080101 	.inst	0x80080101 ; undefined
    17c0:	0c000000 	st4	{v0.8b-v3.8b}, [x0]
    17c4:	00000093 	udf	#147
    17c8:	8c050002 	.inst	0x8c050002 ; undefined
    17cc:	0d000000 	st1	{v0.b}[0], [x0]
    17d0:	000002e2 	udf	#738
    17d4:	a6061605 	.inst	0xa6061605 ; undefined
    17d8:	02000000 	.inst	0x02000000 ; undefined
    17dc:	019a0e00 	.inst	0x019a0e00 ; undefined
    17e0:	0f020000 	.inst	0x0f020000 ; undefined
    17e4:	0000be06 	udf	#48646
    17e8:	00660600 	.inst	0x00660600 ; undefined
    17ec:	80060000 	.inst	0x80060000 ; undefined
    17f0:	02000000 	.inst	0x02000000 ; undefined
    17f4:	04260f00 	.inst	0x04260f00 ; undefined
    17f8:	01030000 	.inst	0x01030000 ; undefined
    17fc:	0000580e 	udf	#22542
    1800:	0000d000 	udf	#53248
    1804:	10000200 	adr	x0, 1844 <_start-0x7e7bc>
    1808:	00000438 	udf	#1080
    180c:	fc064501 	str	d1, [x8], #100
    1810:	00000827 	udf	#2087
    1814:	84000000 	ld1sb	{z0.s}, p0/z, [x0, z0.s, uxtw]
    1818:	00000000 	udf	#0
    181c:	01000000 	.inst	0x01000000 ; undefined
    1820:	00013f9c 	.inst	0x00013f9c ; undefined
    1824:	004e0700 	.inst	0x004e0700 ; undefined
    1828:	003c2345 	.inst	0x003c2345 ; NYI
    182c:	91020000 	add	x0, x0, #0x80
    1830:	041a086c 	and	z12.b, p2/m, z12.b, z3.b
    1834:	2d450000 	ldp	s0, s0, [x0, #40]
    1838:	00000093 	udf	#147
    183c:	03609102 	.inst	0x03609102 ; undefined
    1840:	00000432 	udf	#1074
    1844:	00581246 	.inst	0x00581246 ; undefined
    1848:	91020000 	add	x0, x0, #0x80
    184c:	00690478 	.inst	0x00690478 ; undefined
    1850:	003c0947 	.inst	0x003c0947 ; NYI
    1854:	91020000 	add	x0, x0, #0x80
    1858:	6e65047c 	uhadd	v28.8h, v3.8h, v5.8h
    185c:	124b0064 	.inst	0x124b0064 ; undefined
    1860:	00000058 	udf	#88
    1864:	03749102 	.inst	0x03749102 ; undefined
    1868:	00000b1b 	udf	#2843
    186c:	0058124c 	.inst	0x0058124c ; undefined
    1870:	91020000 	add	x0, x0, #0x80
    1874:	51110070 	sub	w16, w3, #0x440
    1878:	01000004 	.inst	0x01000004 ; undefined
    187c:	2778062f 	.inst	0x2778062f ; undefined
    1880:	00000008 	udf	#8
    1884:	00840000 	.inst	0x00840000 ; undefined
    1888:	00000000 	udf	#0
    188c:	9c010000 	ldr	q0, 388c <_start-0x7c774>
    1890:	2f004e07 	.inst	0x2f004e07 ; undefined
    1894:	00003c21 	udf	#15393
    1898:	6c910200 	stp	d0, d0, [x16], #272
    189c:	00041a08 	.inst	0x00041a08 ; undefined
    18a0:	932b2f00 	.inst	0x932b2f00 ; undefined
    18a4:	02000000 	.inst	0x02000000 ; undefined
    18a8:	69046091 	stgp	x17, x24, [x4, #128]
    18ac:	3c093000 	stur	b0, [x0, #147]
    18b0:	02000000 	.inst	0x02000000 ; undefined
    18b4:	90127c91 	adrp	x17, 24f91000 <e0stackend+0x24dae040>
    18b8:	00000827 	udf	#2087
    18bc:	40000000 	.inst	0x40000000 ; undefined
    18c0:	00000000 	udf	#0
    18c4:	03000000 	.inst	0x03000000 ; undefined
    18c8:	00000432 	udf	#1074
    18cc:	00581632 	.inst	0x00581632 ; undefined
    18d0:	91020000 	add	x0, x0, #0x80
    18d4:	6e650478 	uhadd	v24.8h, v3.8h, v5.8h
    18d8:	16340064 	b	fffffffff8d01a68 <e0stackend+0xfffffffff8b1eaa8>
    18dc:	00000058 	udf	#88
    18e0:	03749102 	.inst	0x03749102 ; undefined
    18e4:	00000b1b 	udf	#2843
    18e8:	00581635 	.inst	0x00581635 ; undefined
    18ec:	91020000 	add	x0, x0, #0x80
    18f0:	00000070 	udf	#112
    18f4:	000002a1 	udf	#673
    18f8:	08010005 	stxrb	w1, w5, [x0]
    18fc:	0000087f 	udf	#2175
    1900:	0001140e 	.inst	0x0001140e ; undefined
    1904:	01731d00 	.inst	0x01731d00 ; undefined
    1908:	000a0000 	.inst	0x000a0000 ; undefined
    190c:	28800000 	stp	w0, w0, [x0], #0
    1910:	00000008 	udf	#8
    1914:	02280000 	.inst	0x02280000 ; undefined
    1918:	00000000 	udf	#0
    191c:	0b020000 	add	w0, w0, w2
    1920:	01010000 	.inst	0x01010000 ; undefined
    1924:	00007906 	udf	#30982
    1928:	05020100 	orr	z0.d, z0.d, #0x1ff
    192c:	00000000 	udf	#0
    1930:	6905040f 	stgp	x15, x1, [x0, #160]
    1934:	0100746e 	.inst	0x0100746e ; undefined
    1938:	00470508 	.inst	0x00470508 ; undefined
    193c:	01010000 	.inst	0x01010000 ; undefined
    1940:	00007708 	udf	#30472
    1944:	07020100 	.inst	0x07020100 ; undefined
    1948:	0000008c 	udf	#140
    194c:	bd070401 	str	s1, [x0, #1796]
    1950:	01000000 	.inst	0x01000000 ; undefined
    1954:	00b80708 	.inst	0x00b80708 ; undefined
    1958:	0a100000 	and	w0, w0, w16
    195c:	06000000 	.inst	0x06000000 ; undefined
    1960:	005f17d6 	.inst	0x005f17d6 ; undefined
    1964:	08010000 	stxrb	w1, w0, [x0]
    1968:	00004205 	udf	#16901
    196c:	04100100 	mul	z0.b, p0/m, z0.b, z8.b
    1970:	0000005c 	udf	#92
    1974:	00008509 	udf	#34057
    1978:	08010100 	stxrb	w1, w0, [x8]
    197c:	00000080 	udf	#128
    1980:	00008511 	udf	#34065
    1984:	01de0400 	.inst	0x01de0400 ; undefined
    1988:	4f010000 	.inst	0x4f010000 ; undefined
    198c:	00003c02 	udf	#15362
    1990:	0000a300 	udf	#41728
    1994:	0a000200 	and	w0, w16, w0
    1998:	000000fd 	udf	#253
    199c:	0000b80b 	udf	#47115
    19a0:	00660300 	.inst	0x00660300 ; undefined
    19a4:	4a030000 	eor	w0, w0, w3
    19a8:	00000000 	udf	#0
    19ac:	00021204 	.inst	0x00021204 ; undefined
    19b0:	13480100 	.inst	0x13480100 ; undefined
    19b4:	0000003c 	udf	#60
    19b8:	000000ca 	udf	#202
    19bc:	8e0b0002 	.inst	0x8e0b0002 ; undefined
    19c0:	04000002 	add	z2.b, p0/m, z2.b, z0.b
    19c4:	0000d701 	udf	#55041
    19c8:	04000200 	add	z0.b, p0/m, z0.b, z16.b
    19cc:	000002b5 	udf	#693
    19d0:	3c051203 	stur	b3, [x16, #81]
    19d4:	e9000000 	.inst	0xe9000000 ; undefined
    19d8:	02000000 	.inst	0x02000000 ; undefined
    19dc:	02e20b00 	.inst	0x02e20b00 ; undefined
    19e0:	16030000 	b	fffffffff80c19e0 <e0stackend+0xfffffffff7edea20>
    19e4:	000000f6 	udf	#246
    19e8:	170c0002 	b	fffffffffc3019f0 <e0stackend+0xfffffffffc11ea30>
    19ec:	14000002 	b	19f4 <_start-0x7e60c>
    19f0:	0000003c 	udf	#60
    19f4:	0000010a 	udf	#266
    19f8:	00010a03 	.inst	0x00010a03 ; undefined
    19fc:	8c090000 	.inst	0x8c090000 ; undefined
    1a00:	0c000000 	st4	{v0.8b-v3.8b}, [x0]
    1a04:	00000248 	udf	#584
    1a08:	00003c0c 	udf	#15372
    1a0c:	00012300 	.inst	0x00012300 ; undefined
    1a10:	010a0300 	.inst	0x010a0300 ; undefined
    1a14:	0a000000 	and	w0, w0, w0
    1a18:	0000019a 	udf	#410
    1a1c:	0001390f 	.inst	0x0001390f ; undefined
    1a20:	00660300 	.inst	0x00660300 ; undefined
    1a24:	80030000 	.inst	0x80030000 ; undefined
    1a28:	02000000 	.inst	0x02000000 ; undefined
    1a2c:	04700700 	sub	z0.h, z24.h, z16.h
    1a30:	90650000 	adrp	x0, ca001000 <e0stackend+0xc9e1e040>
    1a34:	0000082a 	udf	#2090
    1a38:	18000000 	ldr	w0, 1a38 <_start-0x7e5c8>
    1a3c:	00000000 	udf	#0
    1a40:	01000000 	.inst	0x01000000 ; undefined
    1a44:	0001629c 	.inst	0x0001629c ; undefined
    1a48:	69741200 	ldpsw	x0, x4, [x16, #-96]
    1a4c:	68010064 	.inst	0x68010064 ; undefined
    1a50:	00003c06 	udf	#15366
    1a54:	8b070000 	add	x0, x0, x7
    1a58:	52000004 	eor	w4, w0, #0x1
    1a5c:	000829f8 	.inst	0x000829f8 ; undefined
    1a60:	00000000 	udf	#0
    1a64:	00000098 	udf	#152
    1a68:	00000000 	udf	#0
    1a6c:	01e89c01 	.inst	0x01e89c01 ; undefined
    1a70:	74050000 	.inst	0x74050000 ; undefined
    1a74:	53006469 	ubfx	w9, w3, #0, #26
    1a78:	00003c06 	udf	#15366
    1a7c:	78910200 	ldursh	x0, [x16, #-240]
    1a80:	0001de04 	.inst	0x0001de04 ; undefined
    1a84:	024f0100 	.inst	0x024f0100 ; undefined
    1a88:	0000003c 	udf	#60
    1a8c:	0000019e 	udf	#414
    1a90:	18060002 	ldr	w2, da90 <_start-0x72570>
    1a94:	0000082a 	udf	#2090
    1a98:	64000000 	.inst	0x64000000 ; undefined
    1a9c:	00000000 	udf	#0
    1aa0:	05000000 	orr	z0.s, z0.s, #0x1
    1aa4:	0b580069 	add	w9, w3, w24, lsr #0
    1aa8:	0000003c 	udf	#60
    1aac:	067c9102 	.inst	0x067c9102 ; undefined
    1ab0:	00082a20 	.inst	0x00082a20 ; undefined
    1ab4:	00000000 	udf	#0
    1ab8:	00000044 	udf	#68
    1abc:	00000000 	udf	#0
    1ac0:	00049a08 	.inst	0x00049a08 ; undefined
    1ac4:	00855b00 	.inst	0x00855b00 ; undefined
    1ac8:	91020000 	add	x0, x0, #0x80
    1acc:	02120d77 	.inst	0x02120d77 ; undefined
    1ad0:	3c480000 	ldur	b0, [x0, #128]
    1ad4:	02000000 	.inst	0x02000000 ; undefined
    1ad8:	00000000 	udf	#0
    1adc:	00046807 	.inst	0x00046807 ; undefined
    1ae0:	29604000 	ldp	w0, w16, [x0, #-256]
    1ae4:	00000008 	udf	#8
    1ae8:	00980000 	.inst	0x00980000 ; undefined
    1aec:	00000000 	udf	#0
    1af0:	9c010000 	ldr	q0, 3af0 <_start-0x7c510>
    1af4:	0000026e 	udf	#622
    1af8:	64697405 	.inst	0x64697405 ; undefined
    1afc:	3c064100 	stur	b0, [x8, #100]
    1b00:	02000000 	.inst	0x02000000 ; undefined
    1b04:	de047891 	.inst	0xde047891 ; undefined
    1b08:	01000001 	.inst	0x01000001 ; undefined
    1b0c:	003c024f 	.inst	0x003c024f ; NYI
    1b10:	02240000 	.inst	0x02240000 ; undefined
    1b14:	00020000 	.inst	0x00020000 ; undefined
    1b18:	08298006 	.inst	0x08298006 ; undefined
    1b1c:	00000000 	udf	#0
    1b20:	00006400 	udf	#25600
    1b24:	00000000 	udf	#0
    1b28:	00690500 	.inst	0x00690500 ; undefined
    1b2c:	003c0b45 	.inst	0x003c0b45 ; NYI
    1b30:	91020000 	add	x0, x0, #0x80
    1b34:	2988067c 	stp	w28, w1, [x19, #64]!
    1b38:	00000008 	udf	#8
    1b3c:	00440000 	.inst	0x00440000 ; undefined
    1b40:	00000000 	udf	#0
    1b44:	9a080000 	adc	x0, x0, x8
    1b48:	48000004 	stxrh	w0, w4, [x0]
    1b4c:	00000085 	udf	#133
    1b50:	0d779102 	.inst	0x0d779102 ; undefined
    1b54:	00000212 	udf	#530
    1b58:	00003c48 	udf	#15432
    1b5c:	00000200 	udf	#512
    1b60:	7b130000 	.inst	0x7b130000 ; undefined
    1b64:	01000004 	.inst	0x01000004 ; undefined
    1b68:	28800626 	stp	w6, w1, [x17], #0
    1b6c:	00000008 	udf	#8
    1b70:	00e00000 	.inst	0x00e00000 ; undefined
    1b74:	00000000 	udf	#0
    1b78:	9c010000 	ldr	q0, 3b78 <_start-0x7c488>
    1b7c:	00049308 	.inst	0x00049308 ; undefined
    1b80:	00802700 	.inst	0x00802700 ; undefined
    1b84:	91020000 	add	x0, x0, #0x80
    1b88:	69740578 	ldpsw	x24, x1, [x11, #-96]
    1b8c:	06370064 	.inst	0x06370064 ; undefined
    1b90:	0000003c 	udf	#60
    1b94:	00749102 	.inst	0x00749102 ; undefined
    1b98:	000a0700 	.inst	0x000a0700 ; undefined
    1b9c:	01000500 	.inst	0x01000500 ; undefined
    1ba0:	0009b208 	.inst	0x0009b208 ; undefined
    1ba4:	01141400 	.inst	0x01141400 ; undefined
    1ba8:	7f1d0000 	.inst	0x7f1d0000 ; undefined
    1bac:	0a000001 	and	w1, w0, w0
    1bb0:	a8000000 	stnp	x0, x0, [x0]
    1bb4:	0000082a 	udf	#2090
    1bb8:	24000000 	cmphs	p0.b, p0/z, z0.b, z0.b
    1bbc:	0000000a 	udf	#10
    1bc0:	1a000000 	adc	w0, w0, w0
    1bc4:	0300000c 	.inst	0x0300000c ; undefined
    1bc8:	00790601 	.inst	0x00790601 ; undefined
    1bcc:	02030000 	.inst	0x02030000 ; undefined
    1bd0:	00000005 	udf	#5
    1bd4:	05041500 	.inst	0x05041500 ; undefined
    1bd8:	00746e69 	.inst	0x00746e69 ; undefined
    1bdc:	47050803 	.inst	0x47050803 ; undefined
    1be0:	03000000 	.inst	0x03000000 ; undefined
    1be4:	00770801 	.inst	0x00770801 ; undefined
    1be8:	02030000 	.inst	0x02030000 ; undefined
    1bec:	00008c07 	udf	#35847
    1bf0:	02040700 	.inst	0x02040700 ; undefined
    1bf4:	34020000 	cbz	w0, 5bf4 <_start-0x7a40c>
    1bf8:	00006919 	udf	#26905
    1bfc:	00580500 	.inst	0x00580500 ; undefined
    1c00:	04030000 	subr	z0.b, p0/m, z0.b, z0.b
    1c04:	0000bd07 	udf	#48391
    1c08:	04f10700 	sub	z0.d, z24.d, z17.d
    1c0c:	37020000 	tbnz	w0, #0, 5c0c <_start-0x7a3f4>
    1c10:	00007c19 	udf	#31769
    1c14:	07080300 	.inst	0x07080300 ; undefined
    1c18:	000000b8 	udf	#184
    1c1c:	00000a07 	udf	#2567
    1c20:	17d60300 	b	ffffffffff582820 <e0stackend+0xffffffffff39f860>
    1c24:	0000007c 	udf	#124
    1c28:	42050803 	.inst	0x42050803 ; undefined
    1c2c:	03000000 	.inst	0x03000000 ; undefined
    1c30:	005c0410 	.inst	0x005c0410 ; undefined
    1c34:	d7070000 	.inst	0xd7070000 ; undefined
    1c38:	04000007 	add	z7.b, p0/m, z7.b, z0.b
    1c3c:	00a91b28 	.inst	0x00a91b28 ; undefined
    1c40:	ed160000 	.inst	0xed160000 ; undefined
    1c44:	20000005 	.inst	0x20000005 ; undefined
    1c48:	00e80005 	.inst	0x00e80005 ; undefined
    1c4c:	39080000 	strb	w0, [x0, #512]
    1c50:	e8000006 	.inst	0xe8000006 ; undefined
    1c54:	00000000 	udf	#0
    1c58:	00062b08 	.inst	0x00062b08 ; undefined
    1c5c:	0000e800 	udf	#59392
    1c60:	c7080800 	.inst	0xc7080800 ; undefined
    1c64:	e8000005 	.inst	0xe8000005 ; undefined
    1c68:	10000000 	adr	x0, 1c68 <_start-0x7e398>
    1c6c:	00056b08 	.inst	0x00056b08 ; undefined
    1c70:	00003c00 	udf	#15360
    1c74:	e6081800 	.inst	0xe6081800 ; undefined
    1c78:	3c000007 	stur	b7, [x0]
    1c7c:	1c000000 	ldr	s0, 1c7c <_start-0x7e384>
    1c80:	07081700 	.inst	0x07081700 ; undefined
    1c84:	000005ef 	udf	#1519
    1c88:	9d186304 	.inst	0x9d186304 ; undefined
    1c8c:	01000000 	.inst	0x01000000 ; undefined
    1c90:	00000756 	udf	#1878
    1c94:	01101505 	.inst	0x01101505 ; undefined
    1c98:	03090000 	.inst	0x03090000 ; undefined
    1c9c:	00087548 	.inst	0x00087548 ; undefined
    1ca0:	00000000 	udf	#0
    1ca4:	0001150e 	.inst	0x0001150e ; undefined
    1ca8:	010b0500 	.inst	0x010b0500 ; undefined
    1cac:	01030000 	.inst	0x01030000 ; undefined
    1cb0:	00008008 	udf	#32776
    1cb4:	01150500 	.inst	0x01150500 ; undefined
    1cb8:	7b010000 	.inst	0x7b010000 ; undefined
    1cbc:	09000006 	.inst	0x09000006 ; undefined
    1cc0:	00011014 	.inst	0x00011014 ; undefined
    1cc4:	50030900 	adr	x0, 7de6 <_start-0x7821a>
    1cc8:	00000875 	udf	#2165
    1ccc:	09000000 	.inst	0x09000000 ; undefined
    1cd0:	00000064 	udf	#100
    1cd4:	00000146 	udf	#326
    1cd8:	00007c0a 	udf	#31754
    1cdc:	05000500 	orr	z0.h, z0.h, #0x1ff
    1ce0:	00000136 	udf	#310
    1ce4:	0005a901 	.inst	0x0005a901 ; undefined
    1ce8:	46170a00 	.inst	0x46170a00 ; undefined
    1cec:	09000001 	.inst	0x09000001 ; undefined
    1cf0:	08755803 	.inst	0x08755803 ; undefined
    1cf4:	00000000 	udf	#0
    1cf8:	00640900 	.inst	0x00640900 ; undefined
    1cfc:	01700000 	.inst	0x01700000 ; undefined
    1d00:	7c0a0000 	stur	h0, [x0, #160]
    1d04:	03000000 	.inst	0x03000000 ; undefined
    1d08:	01600500 	.inst	0x01600500 ; undefined
    1d0c:	06010000 	.inst	0x06010000 ; undefined
    1d10:	0b000006 	add	w6, w0, w0
    1d14:	00017017 	.inst	0x00017017 ; undefined
    1d18:	70030900 	adr	x0, 7e3b <_start-0x781c5>
    1d1c:	00000875 	udf	#2165
    1d20:	01000000 	.inst	0x01000000 ; undefined
    1d24:	000004a3 	udf	#1187
    1d28:	00641714 	.inst	0x00641714 ; undefined
    1d2c:	03090000 	.inst	0x03090000 ; undefined
    1d30:	00087580 	.inst	0x00087580 ; undefined
    1d34:	00000000 	udf	#0
    1d38:	00066101 	.inst	0x00066101 ; undefined
    1d3c:	64171500 	.inst	0x64171500 ; undefined
    1d40:	09000000 	.inst	0x09000000 ; undefined
    1d44:	08758403 	.inst	0x08758403 ; undefined
    1d48:	00000000 	udf	#0
    1d4c:	06df0100 	.inst	0x06df0100 ; undefined
    1d50:	17160000 	b	fffffffffc581d50 <e0stackend+0xfffffffffc39ed90>
    1d54:	00000064 	udf	#100
    1d58:	75880309 	.inst	0x75880309 ; undefined
    1d5c:	00000008 	udf	#8
    1d60:	9b010000 	madd	x0, x0, x1, x0
    1d64:	17000007 	b	fffffffffc001d80 <e0stackend+0xfffffffffbe1edc0>
    1d68:	00006417 	udf	#25623
    1d6c:	8c030900 	.inst	0x8c030900 ; undefined
    1d70:	00000875 	udf	#2165
    1d74:	01000000 	.inst	0x01000000 ; undefined
    1d78:	000006eb 	udf	#1771
    1d7c:	00641718 	.inst	0x00641718 ; undefined
    1d80:	03090000 	.inst	0x03090000 ; undefined
    1d84:	00087590 	.inst	0x00087590 ; undefined
    1d88:	00000000 	udf	#0
    1d8c:	0006f701 	.inst	0x0006f701 ; undefined
    1d90:	64171900 	.inst	0x64171900 ; undefined
    1d94:	09000000 	.inst	0x09000000 ; undefined
    1d98:	08759403 	.inst	0x08759403 ; undefined
    1d9c:	00000000 	udf	#0
    1da0:	07a70100 	.inst	0x07a70100 ; undefined
    1da4:	171a0000 	b	fffffffffc681da4 <e0stackend+0xfffffffffc49ede4>
    1da8:	00000064 	udf	#100
    1dac:	75980309 	.inst	0x75980309 ; undefined
    1db0:	00000008 	udf	#8
    1db4:	03010000 	.inst	0x03010000 ; undefined
    1db8:	1b000007 	madd	w7, w0, w0, w0
    1dbc:	00006417 	udf	#25623
    1dc0:	9c030900 	ldr	q0, 7ee0 <_start-0x78120>
    1dc4:	00000875 	udf	#2165
    1dc8:	01000000 	.inst	0x01000000 ; undefined
    1dcc:	0000072f 	udf	#1839
    1dd0:	0064171e 	.inst	0x0064171e ; undefined
    1dd4:	03090000 	.inst	0x03090000 ; undefined
    1dd8:	000875a0 	.inst	0x000875a0 ; undefined
    1ddc:	00000000 	udf	#0
    1de0:	0005f701 	.inst	0x0005f701 ; undefined
    1de4:	64171f00 	.inst	0x64171f00 ; undefined
    1de8:	09000000 	.inst	0x09000000 ; undefined
    1dec:	0875a403 	.inst	0x0875a403 ; undefined
    1df0:	00000000 	udf	#0
    1df4:	04ae0100 	add	z0.s, z8.s, z14.s
    1df8:	17200000 	b	fffffffffc801df8 <e0stackend+0xfffffffffc61ee38>
    1dfc:	00000064 	udf	#100
    1e00:	75a80309 	.inst	0x75a80309 ; undefined
    1e04:	00000008 	udf	#8
    1e08:	3c010000 	stur	b0, [x0, #16]
    1e0c:	34000008 	cbz	w8, 1e0c <_start-0x7e1f4>
    1e10:	00011014 	.inst	0x00011014 ; undefined
    1e14:	b0030900 	adrp	x0, 6122000 <e0stackend+0x5f3f040>
    1e18:	00000875 	udf	#2165
    1e1c:	01000000 	.inst	0x01000000 ; undefined
    1e20:	00000647 	udf	#1607
    1e24:	01101435 	.inst	0x01101435 ; undefined
    1e28:	03090000 	.inst	0x03090000 ; undefined
    1e2c:	000875b8 	.inst	0x000875b8 ; undefined
    1e30:	00000000 	udf	#0
    1e34:	00011009 	.inst	0x00011009 ; undefined
    1e38:	0002ab00 	.inst	0x0002ab00 ; undefined
    1e3c:	007c0a00 	.inst	0x007c0a00 ; undefined
    1e40:	00020000 	.inst	0x00020000 ; undefined
    1e44:	00029b05 	.inst	0x00029b05 ; undefined
    1e48:	07430100 	.inst	0x07430100 ; undefined
    1e4c:	143c0000 	b	f01e4c <e0stackend+0xd1ee8c>
    1e50:	000002ab 	udf	#683
    1e54:	75c00309 	.inst	0x75c00309 ; undefined
    1e58:	00000008 	udf	#8
    1e5c:	63010000 	.inst	0x63010000 ; undefined
    1e60:	3f000005 	.inst	0x3f000005 ; undefined
    1e64:	00006417 	udf	#25623
    1e68:	d8030900 	prfm	pldl1keep, 7f88 <_start-0x78078>
    1e6c:	00000875 	udf	#2165
    1e70:	01000000 	.inst	0x01000000 ; undefined
    1e74:	0000074e 	udf	#1870
    1e78:	00641740 	.inst	0x00641740 ; undefined
    1e7c:	03090000 	.inst	0x03090000 ; undefined
    1e80:	000875dc 	.inst	0x000875dc ; undefined
    1e84:	00000000 	udf	#0
    1e88:	00054001 	.inst	0x00054001 ; undefined
    1e8c:	64174100 	.inst	0x64174100 ; undefined
    1e90:	09000000 	.inst	0x09000000 ; undefined
    1e94:	0875e003 	.inst	0x0875e003 ; undefined
    1e98:	00000000 	udf	#0
    1e9c:	06210100 	.inst	0x06210100 ; undefined
    1ea0:	17420000 	b	fffffffffd081ea0 <e0stackend+0xfffffffffce9eee0>
    1ea4:	00000064 	udf	#100
    1ea8:	75e40309 	.inst	0x75e40309 ; undefined
    1eac:	00000008 	udf	#8
    1eb0:	b3010000 	.inst	0xb3010000 ; undefined
    1eb4:	43000007 	.inst	0x43000007 ; undefined
    1eb8:	00006417 	udf	#25623
    1ebc:	e8030900 	.inst	0xe8030900 ; undefined
    1ec0:	00000875 	udf	#2165
    1ec4:	01000000 	.inst	0x01000000 ; undefined
    1ec8:	0000081c 	udf	#2076
    1ecc:	00641744 	.inst	0x00641744 ; undefined
    1ed0:	03090000 	.inst	0x03090000 ; undefined
    1ed4:	000875ec 	.inst	0x000875ec ; undefined
    1ed8:	00000000 	udf	#0
    1edc:	00076901 	.inst	0x00076901 ; undefined
    1ee0:	64174900 	.inst	0x64174900 ; undefined
    1ee4:	09000000 	.inst	0x09000000 ; undefined
    1ee8:	0875f003 	.inst	0x0875f003 ; undefined
    1eec:	00000000 	udf	#0
    1ef0:	058f0100 	.inst	0x058f0100 ; undefined
    1ef4:	174a0000 	b	fffffffffd281ef4 <e0stackend+0xfffffffffd09ef34>
    1ef8:	00000064 	udf	#100
    1efc:	75f40309 	.inst	0x75f40309 ; undefined
    1f00:	00000008 	udf	#8
    1f04:	82010000 	.inst	0x82010000 ; undefined
    1f08:	4b000007 	sub	w7, w0, w0
    1f0c:	00006417 	udf	#25623
    1f10:	f8030900 	sttr	x0, [x8, #48]
    1f14:	00000875 	udf	#2165
    1f18:	01000000 	.inst	0x01000000 ; undefined
    1f1c:	0000059c 	udf	#1436
    1f20:	0064174c 	.inst	0x0064174c ; undefined
    1f24:	03090000 	.inst	0x03090000 ; undefined
    1f28:	000875fc 	.inst	0x000875fc ; undefined
    1f2c:	00000000 	udf	#0
    1f30:	00077501 	.inst	0x00077501 ; undefined
    1f34:	64174d00 	.inst	0x64174d00 ; undefined
    1f38:	09000000 	.inst	0x09000000 ; undefined
    1f3c:	08760003 	.inst	0x08760003 ; undefined
    1f40:	00000000 	udf	#0
    1f44:	04b70100 	add	z0.s, z8.s, z23.s
    1f48:	174f0000 	b	fffffffffd3c1f48 <e0stackend+0xfffffffffd1def88>
    1f4c:	00000064 	udf	#100
    1f50:	76040309 	.inst	0x76040309 ; undefined
    1f54:	00000008 	udf	#8
    1f58:	07010000 	.inst	0x07010000 ; undefined
    1f5c:	50000008 	adr	x8, 1f5e <_start-0x7e0a2>
    1f60:	00006417 	udf	#25623
    1f64:	08030900 	stxrb	w3, w0, [x8]
    1f68:	00000876 	udf	#2166
    1f6c:	01000000 	.inst	0x01000000 ; undefined
    1f70:	000007cb 	udf	#1995
    1f74:	00641751 	.inst	0x00641751 ; undefined
    1f78:	03090000 	.inst	0x03090000 ; undefined
    1f7c:	0008760c 	.inst	0x0008760c ; undefined
    1f80:	00000000 	udf	#0
    1f84:	00052001 	.inst	0x00052001 ; undefined
    1f88:	64175200 	.inst	0x64175200 ; undefined
    1f8c:	09000000 	.inst	0x09000000 ; undefined
    1f90:	08761003 	.inst	0x08761003 ; undefined
    1f94:	00000000 	udf	#0
    1f98:	04fa0100 	add	z0.d, z8.d, z26.d
    1f9c:	17530000 	b	fffffffffd4c1f9c <e0stackend+0xfffffffffd2defdc>
    1fa0:	00000064 	udf	#100
    1fa4:	76140309 	.inst	0x76140309 ; undefined
    1fa8:	00000008 	udf	#8
    1fac:	bd010000 	str	s0, [x0, #256]
    1fb0:	54000007 	b.vc	1fb0 <_start-0x7e050>
    1fb4:	00006417 	udf	#25623
    1fb8:	18030900 	ldr	w0, 80d8 <_start-0x77f28>
    1fbc:	00000876 	udf	#2166
    1fc0:	01000000 	.inst	0x01000000 ; undefined
    1fc4:	0000066d 	udf	#1645
    1fc8:	00641755 	.inst	0x00641755 ; undefined
    1fcc:	03090000 	.inst	0x03090000 ; undefined
    1fd0:	0008761c 	.inst	0x0008761c ; undefined
    1fd4:	00000000 	udf	#0
    1fd8:	0004c601 	.inst	0x0004c601 ; undefined
    1fdc:	64175700 	.inst	0x64175700 ; undefined
    1fe0:	09000000 	.inst	0x09000000 ; undefined
    1fe4:	08762003 	.inst	0x08762003 ; undefined
    1fe8:	00000000 	udf	#0
    1fec:	05750100 	ext	z0.b, {z8.b, z9.b}, #168
    1ff0:	17580000 	b	fffffffffd601ff0 <e0stackend+0xfffffffffd41f030>
    1ff4:	00000064 	udf	#100
    1ff8:	76240309 	.inst	0x76240309 ; undefined
    1ffc:	00000008 	udf	#8
    2000:	de010000 	.inst	0xde010000 ; undefined
    2004:	59000005 	stlurh	w5, [x0]
    2008:	00006417 	udf	#25623
    200c:	28030900 	stnp	w0, w2, [x8, #24]
    2010:	00000876 	udf	#2166
    2014:	01000000 	.inst	0x01000000 ; undefined
    2018:	0000054a 	udf	#1354
    201c:	0064175a 	.inst	0x0064175a ; undefined
    2020:	03090000 	.inst	0x03090000 ; undefined
    2024:	0008762c 	.inst	0x0008762c ; undefined
    2028:	00000000 	udf	#0
    202c:	00082401 	.inst	0x00082401 ; undefined
    2030:	64175b00 	.inst	0x64175b00 ; undefined
    2034:	09000000 	.inst	0x09000000 ; undefined
    2038:	08763003 	.inst	0x08763003 ; undefined
    203c:	00000000 	udf	#0
    2040:	06ba0100 	.inst	0x06ba0100 ; undefined
    2044:	175c0000 	b	fffffffffd702044 <e0stackend+0xfffffffffd51f084>
    2048:	00000064 	udf	#100
    204c:	76340309 	.inst	0x76340309 ; undefined
    2050:	00000008 	udf	#8
    2054:	18010000 	ldr	w0, 4054 <_start-0x7bfac>
    2058:	6a000005 	ands	w5, w0, w0
    205c:	00006417 	udf	#25623
    2060:	38030900 	sttrb	w0, [x8, #48]
    2064:	00000876 	udf	#2166
    2068:	01000000 	.inst	0x01000000 ; undefined
    206c:	00000a9a 	udf	#2714
    2070:	011014e8 	.inst	0x011014e8 ; undefined
    2074:	03090000 	.inst	0x03090000 ; undefined
    2078:	00087640 	.inst	0x00087640 ; undefined
    207c:	00000000 	udf	#0
    2080:	00073901 	.inst	0x00073901 ; undefined
    2084:	6417ee00 	.inst	0x6417ee00 ; undefined
    2088:	09000000 	.inst	0x09000000 ; undefined
    208c:	08764803 	.inst	0x08764803 ; undefined
    2090:	00000000 	udf	#0
    2094:	05580100 	mov	z0.h, p8/z, #8
    2098:	17ef0000 	b	ffffffffffbc2098 <e0stackend+0xffffffffff9df0d8>
    209c:	00000064 	udf	#100
    20a0:	764c0309 	.inst	0x764c0309 ; undefined
    20a4:	00000008 	udf	#8
    20a8:	9b010000 	madd	x0, x0, x1, x0
    20ac:	f0000006 	adrp	x6, 5000 <_start-0x7b000>
    20b0:	00006417 	udf	#25623
    20b4:	50030900 	adr	x0, 81d6 <_start-0x77e2a>
    20b8:	00000876 	udf	#2166
    20bc:	01000000 	.inst	0x01000000 ; undefined
    20c0:	000006a6 	udf	#1702
    20c4:	006417f1 	.inst	0x006417f1 ; undefined
    20c8:	03090000 	.inst	0x03090000 ; undefined
    20cc:	00087654 	.inst	0x00087654 ; undefined
    20d0:	00000000 	udf	#0
    20d4:	0006b001 	.inst	0x0006b001 ; undefined
    20d8:	6417f200 	.inst	0x6417f200 ; undefined
    20dc:	09000000 	.inst	0x09000000 ; undefined
    20e0:	08765803 	.inst	0x08765803 ; undefined
    20e4:	00000000 	udf	#0
    20e8:	04e70100 	add	z0.d, z8.d, z7.d
    20ec:	17f30000 	b	ffffffffffcc20ec <e0stackend+0xffffffffffadf12c>
    20f0:	00000064 	udf	#100
    20f4:	765c0309 	.inst	0x765c0309 ; undefined
    20f8:	00000008 	udf	#8
    20fc:	ce010000 	eor3	v0.16b, v0.16b, v1.16b, v0.16b
    2100:	f4000006 	.inst	0xf4000006 ; undefined
    2104:	00006417 	udf	#25623
    2108:	60030900 	.inst	0x60030900 ; undefined
    210c:	00000876 	udf	#2166
    2110:	01000000 	.inst	0x01000000 ; undefined
    2114:	00000641 	udf	#1601
    2118:	006417f9 	.inst	0x006417f9 ; undefined
    211c:	03090000 	.inst	0x03090000 ; undefined
    2120:	00087664 	.inst	0x00087664 ; undefined
    2124:	00000000 	udf	#0
    2128:	00078f01 	.inst	0x00078f01 ; undefined
    212c:	6417fa00 	.inst	0x6417fa00 ; undefined
    2130:	09000000 	.inst	0x09000000 ; undefined
    2134:	08766803 	.inst	0x08766803 ; undefined
    2138:	00000000 	udf	#0
    213c:	07950100 	.inst	0x07950100 ; undefined
    2140:	17fb0000 	b	ffffffffffec2140 <e0stackend+0xffffffffffcdf180>
    2144:	00000064 	udf	#100
    2148:	766c0309 	.inst	0x766c0309 ; undefined
    214c:	00000008 	udf	#8
    2150:	52010000 	eor	w0, w0, #0x80000000
    2154:	fc000006 	stur	d6, [x0]
    2158:	00006417 	udf	#25623
    215c:	70030900 	adr	x0, 827f <_start-0x77d81>
    2160:	00000876 	udf	#2166
    2164:	09000000 	.inst	0x09000000 ; undefined
    2168:	0000011c 	udf	#284
    216c:	000005de 	udf	#1502
    2170:	00007c0a 	udf	#31754
    2174:	05000300 	orr	z0.s, z0.s, #0x1ffffff
    2178:	000005ce 	udf	#1486
    217c:	0005b801 	.inst	0x0005b801 ; undefined
    2180:	de13fe00 	.inst	0xde13fe00 ; undefined
    2184:	09000005 	.inst	0x09000005 ; undefined
    2188:	08767803 	.inst	0x08767803 ; undefined
    218c:	00000000 	udf	#0
    2190:	07210f00 	.inst	0x07210f00 ; undefined
    2194:	01060000 	.inst	0x01060000 ; undefined
    2198:	00005811 	udf	#22545
    219c:	d8030900 	prfm	pldl1keep, 82bc <_start-0x77d44>
    21a0:	00000877 	udf	#2167
    21a4:	0f000000 	.inst	0x0f000000 ; undefined
    21a8:	000004d4 	udf	#1236
    21ac:	64170107 	.inst	0x64170107 ; undefined
    21b0:	09000000 	.inst	0x09000000 ; undefined
    21b4:	08767c03 	.inst	0x08767c03 ; undefined
    21b8:	00000000 	udf	#0
    21bc:	32691800 	.inst	0x32691800 ; undefined
    21c0:	0b060061 	add	w1, w3, w6
    21c4:	00063b06 	.inst	0x00063b06 ; undefined
    21c8:	003c0b00 	.inst	0x003c0b00 ; NYI
    21cc:	0b0b0000 	add	w0, w0, w11
    21d0:	00000001 	udf	#1
    21d4:	0003ea19 	.inst	0x0003ea19 ; undefined
    21d8:	060a0600 	.inst	0x060a0600 ; undefined
    21dc:	00000657 	udf	#1623
    21e0:	0000690b 	udf	#26891
    21e4:	00690b00 	.inst	0x00690b00 ; undefined
    21e8:	0b0b0000 	add	w0, w0, w11
    21ec:	00000001 	udf	#1
    21f0:	00058310 	.inst	0x00058310 ; undefined
    21f4:	90011a00 	adrp	x0, 2342000 <e0stackend+0x215f040>
    21f8:	00000834 	udf	#2100
    21fc:	3c000000 	stur	b0, [x0]
    2200:	00000000 	udf	#0
    2204:	01000000 	.inst	0x01000000 ; undefined
    2208:	05d0109c 	mov	z28.d, p0/z, #-124
    220c:	01150000 	.inst	0x01150000 ; undefined
    2210:	00083460 	.inst	0x00083460 ; undefined
    2214:	00000000 	udf	#0
    2218:	00000030 	udf	#48
    221c:	00000000 	udf	#0
    2220:	8e119c01 	.inst	0x8e119c01 ; undefined
    2224:	0f000006 	.inst	0x0f000006 ; undefined
    2228:	00005801 	udf	#22529
    222c:	08343400 	.inst	0x08343400 ; undefined
    2230:	00000000 	udf	#0
    2234:	00002c00 	udf	#11264
    2238:	00000000 	udf	#0
    223c:	b79c0100 	tbnz	x0, #51, ffffffffffffa25c <e0stackend+0xffffffffffe1729c>
    2240:	12000006 	and	w6, w0, #0x1
    2244:	01100078 	.inst	0x01100078 ; undefined
    2248:	00000058 	udf	#88
    224c:	007c9102 	.inst	0x007c9102 ; undefined
    2250:	00071411 	.inst	0x00071411 ; undefined
    2254:	58010900 	ldr	x0, 4374 <_start-0x7bc8c>
    2258:	08000000 	stxrb	w0, w0, [x0]
    225c:	00000834 	udf	#2100
    2260:	2c000000 	stnp	s0, s0, [x0]
    2264:	00000000 	udf	#0
    2268:	01000000 	.inst	0x01000000 ; undefined
    226c:	0006e59c 	.inst	0x0006e59c ; undefined
    2270:	00781200 	.inst	0x00781200 ; undefined
    2274:	0058010a 	.inst	0x0058010a ; undefined
    2278:	91020000 	add	x0, x0, #0x80
    227c:	9a0c007c 	adc	x28, x3, x12
    2280:	da000001 	sbc	x1, x0, x0
    2284:	0008338c 	.inst	0x0008338c ; undefined
    2288:	00000000 	udf	#0
    228c:	0000007c 	udf	#124
    2290:	00000000 	udf	#0
    2294:	072f9c01 	.inst	0x072f9c01 ; undefined
    2298:	34020000 	cbz	w0, 6298 <_start-0x79d68>
    229c:	da000006 	sbc	x6, x0, x0
    22a0:	0000831a 	udf	#33562
    22a4:	a8910300 	stp	x0, x0, [x24], #272
    22a8:	6d66067f 	ldp	d31, d1, [x19, #-416]
    22ac:	26da0074 	.inst	0x26da0074 ; undefined
    22b0:	0000010b 	udf	#267
    22b4:	7fa09103 	fmulx	s3, s8, v0.s[1]
    22b8:	6176041a 	.inst	0x6176041a ; undefined
    22bc:	ea0adb00 	ands	x0, x24, x10, lsl #54
    22c0:	03000000 	.inst	0x03000000 ; undefined
    22c4:	007fb091 	.inst	0x007fb091 ; undefined
    22c8:	0005061b 	.inst	0x0005061b ; undefined
    22cc:	0db70100 	st2	{v0.b, v1.b}[0], [x8], x23
    22d0:	000830e0 	.inst	0x000830e0 ; undefined
    22d4:	00000000 	udf	#0
    22d8:	000002ac 	udf	#684
    22dc:	00000000 	udf	#0
    22e0:	07919c01 	.inst	0x07919c01 ; undefined
    22e4:	34020000 	cbz	w0, 62e4 <_start-0x79d1c>
    22e8:	b7000006 	tbnz	x6, #32, 22e8 <_start-0x7dd18>
    22ec:	00008327 	udf	#33575
    22f0:	68910200 	stgp	x0, x0, [x16], #544
    22f4:	746d6606 	.inst	0x746d6606 ; undefined
    22f8:	0b33b700 	.inst	0x0b33b700 ; undefined
    22fc:	02000001 	.inst	0x02000001 ; undefined
    2300:	76066091 	.inst	0x76066091 ; undefined
    2304:	40b70061 	.inst	0x40b70061 ; undefined
    2308:	000000ea 	udf	#234
    230c:	04008302 	asr	z2.h, p0/m, z2.h, #8
    2310:	b8006662 	str	w2, [x19], #6
    2314:	00079107 	.inst	0x00079107 ; undefined
    2318:	70910200 	adr	x0, fffffffffff2435b <e0stackend+0xffffffffffd4139b>
    231c:	00686304 	.inst	0x00686304 ; undefined
    2320:	011507b9 	.inst	0x011507b9 ; undefined
    2324:	91020000 	add	x0, x0, #0x80
    2328:	1509007f 	b	4242524 <e0stackend+0x405f564>
    232c:	a1000001 	.inst	0xa1000001 ; undefined
    2330:	0a000007 	and	w7, w0, w0
    2334:	0000007c 	udf	#124
    2338:	860c000b 	.inst	0x860c000b ; undefined
    233c:	af000003 	.inst	0xaf000003 ; undefined
    2340:	0008308c 	.inst	0x0008308c ; undefined
    2344:	00000000 	udf	#0
    2348:	00000054 	udf	#84
    234c:	00000000 	udf	#0
    2350:	07da9c01 	.inst	0x07da9c01 ; undefined
    2354:	34020000 	cbz	w0, 6354 <_start-0x79cac>
    2358:	af000006 	.inst	0xaf000006 ; undefined
    235c:	00008317 	udf	#33559
    2360:	78910200 	ldursh	x0, [x16, #-240]
    2364:	66756206 	.inst	0x66756206 ; undefined
    2368:	da29af00 	.inst	0xda29af00 ; undefined
    236c:	02000007 	.inst	0x02000007 ; undefined
    2370:	0e007091 	tbx	v17.8b, {v4.16b-v7.16b}, v0.8b
    2374:	0000011c 	udf	#284
    2378:	0007fd0c 	.inst	0x0007fd0c ; undefined
    237c:	3028a800 	adr	x0, 5387d <_start-0x2c783>
    2380:	00000008 	udf	#8
    2384:	00640000 	.inst	0x00640000 ; undefined
    2388:	00000000 	udf	#0
    238c:	9c010000 	ldr	q0, 438c <_start-0x7bc74>
    2390:	00000832 	udf	#2098
    2394:	00063402 	.inst	0x00063402 ; undefined
    2398:	8317a800 	.inst	0x8317a800 ; undefined
    239c:	02000000 	.inst	0x02000000 ; undefined
    23a0:	62066891 	.inst	0x62066891 ; undefined
    23a4:	a8006675 	stnp	x21, x25, [x19]
    23a8:	0007da29 	.inst	0x0007da29 ; undefined
    23ac:	60910200 	.inst	0x60910200 ; undefined
    23b0:	00083702 	.inst	0x00083702 ; undefined
    23b4:	8335a800 	.inst	0x8335a800 ; undefined
    23b8:	02000000 	.inst	0x02000000 ; undefined
    23bc:	69045891 	stgp	x17, x22, [x4, #128]
    23c0:	580ca900 	ldr	x0, 1b8e0 <_start-0x64720>
    23c4:	02000000 	.inst	0x02000000 ; undefined
    23c8:	13007c91 	asr	w17, w4, #0
    23cc:	000000fd 	udf	#253
    23d0:	082fb8a2 	.inst	0x082fb8a2 ; undefined
    23d4:	00000000 	udf	#0
    23d8:	00007000 	udf	#28672
    23dc:	00000000 	udf	#0
    23e0:	699c0100 	stgp	x0, x0, [x8, #896]!
    23e4:	02000008 	.inst	0x02000008 ; undefined
    23e8:	00000634 	udf	#1588
    23ec:	008317a2 	.inst	0x008317a2 ; undefined
    23f0:	91020000 	add	x0, x0, #0x80
    23f4:	00630678 	.inst	0x00630678 ; undefined
    23f8:	004a2ba2 	.inst	0x004a2ba2 ; undefined
    23fc:	91020000 	add	x0, x0, #0x80
    2400:	580d0077 	ldr	x23, 1c40c <_start-0x63bf4>
    2404:	9c000006 	ldr	q6, 2404 <_start-0x7dbfc>
    2408:	00003c05 	udf	#15365
    240c:	082f7800 	.inst	0x082f7800 ; undefined
    2410:	00000000 	udf	#0
    2414:	00004000 	udf	#16384
    2418:	00000000 	udf	#0
    241c:	a59c0100 	ld1rqd	{z0.d}, p0/z, [x8, x28, lsl #3]
    2420:	02000008 	.inst	0x02000008 ; undefined
    2424:	00000634 	udf	#1588
    2428:	0083159c 	.inst	0x0083159c ; undefined
    242c:	91020000 	add	x0, x0, #0x80
    2430:	00780468 	.inst	0x00780468 ; undefined
    2434:	003c079d 	.inst	0x003c079d ; NYI
    2438:	91020000 	add	x0, x0, #0x80
    243c:	600d007c 	.inst	0x600d007c ; undefined
    2440:	96000007 	bl	fffffffff800245c <e0stackend+0xfffffffff7e1f49c>
    2444:	00003c05 	udf	#15365
    2448:	082f2c00 	.inst	0x082f2c00 ; undefined
    244c:	00000000 	udf	#0
    2450:	00004c00 	udf	#19456
    2454:	00000000 	udf	#0
    2458:	e19c0100 	.inst	0xe19c0100 ; undefined
    245c:	02000008 	.inst	0x02000008 ; undefined
    2460:	00000634 	udf	#1588
    2464:	00831596 	.inst	0x00831596 ; undefined
    2468:	91020000 	add	x0, x0, #0x80
    246c:	00780468 	.inst	0x00780468 ; undefined
    2470:	003c0797 	.inst	0x003c0797 ; NYI
    2474:	91020000 	add	x0, x0, #0x80
    2478:	140d007c 	b	342668 <e0stackend+0x15f6a8>
    247c:	8e000003 	.inst	0x8e000003 ; undefined
    2480:	00004a0f 	udf	#18959
    2484:	082ec000 	.inst	0x082ec000 ; undefined
    2488:	00000000 	udf	#0
    248c:	00006c00 	udf	#27648
    2490:	00000000 	udf	#0
    2494:	1e9c0100 	.inst	0x1e9c0100 ; undefined
    2498:	02000009 	.inst	0x02000009 ; undefined
    249c:	00000634 	udf	#1588
    24a0:	0083208e 	.inst	0x0083208e ; undefined
    24a4:	91020000 	add	x0, x0, #0x80
    24a8:	68630468 	.inst	0x68630468 ; undefined
    24ac:	4a118f00 	.inst	0x4a118f00 ; undefined
    24b0:	02000000 	.inst	0x02000000 ; undefined
    24b4:	13007f91 	asr	w17, w28, #0
    24b8:	000003cd 	udf	#973
    24bc:	082cd46e 	.inst	0x082cd46e ; undefined
    24c0:	00000000 	udf	#0
    24c4:	0001ec00 	.inst	0x0001ec00 ; undefined
    24c8:	00000000 	udf	#0
    24cc:	819c0100 	bfmopa	za0.s, p0/m, p0/m, z8.h, z28.h
    24d0:	02000009 	.inst	0x02000009 ; undefined
    24d4:	00000634 	udf	#1588
    24d8:	0083246e 	.inst	0x0083246e ; undefined
    24dc:	91020000 	add	x0, x0, #0x80
    24e0:	06850268 	.inst	0x06850268 ; undefined
    24e4:	336e0000 	.inst	0x336e0000 ; undefined
    24e8:	00000058 	udf	#88
    24ec:	02649102 	.inst	0x02649102 ; undefined
    24f0:	0000070f 	udf	#1807
    24f4:	0058466e 	.inst	0x0058466e ; undefined
    24f8:	91020000 	add	x0, x0, #0x80
    24fc:	08130160 	stxrb	w19, w0, [x11]
    2500:	0c6f0000 	.inst	0x0c6f0000 ; undefined
    2504:	00000058 	udf	#88
    2508:	01789102 	.inst	0x01789102 ; undefined
    250c:	000007f0 	udf	#2032
    2510:	00580c71 	.inst	0x00580c71 ; undefined
    2514:	91020000 	add	x0, x0, #0x80
    2518:	a61c007c 	.inst	0xa61c007c ; undefined
    251c:	01000003 	.inst	0x01000003 ; undefined
    2520:	2c300662 	stnp	s2, s1, [x19, #-128]
    2524:	00000008 	udf	#8
    2528:	00a40000 	.inst	0x00a40000 ; undefined
    252c:	00000000 	udf	#0
    2530:	9c010000 	ldr	q0, 4530 <_start-0x7bad0>
    2534:	0005351d 	.inst	0x0005351d ; undefined
    2538:	0d220100 	.inst	0x0d220100 ; undefined
    253c:	00082aa8 	.inst	0x00082aa8 ; undefined
    2540:	00000000 	udf	#0
    2544:	00000188 	udf	#392
    2548:	00000000 	udf	#0
    254c:	70069c01 	adr	x1, f8cf <_start-0x70731>
    2550:	22006e69 	.inst	0x22006e69 ; undefined
    2554:	00005821 	udf	#22561
    2558:	6c910200 	stp	d0, d0, [x16], #272
    255c:	0004df02 	.inst	0x0004df02 ; undefined
    2560:	582f2200 	ldr	x0, 609a0 <_start-0x1f660>
    2564:	02000000 	.inst	0x02000000 ; undefined
    2568:	2c026891 	stnp	s17, s26, [x4, #16]
    256c:	22000005 	.inst	0x22000005 ; undefined
    2570:	00005841 	udf	#22593
    2574:	64910200 	fcmla	z0.s, p0/m, z16.s, z17.s, #0
    2578:	67657204 	.inst	0x67657204 ; undefined
    257c:	580c2300 	ldr	x0, 1a9dc <_start-0x65624>
    2580:	02000000 	.inst	0x02000000 ; undefined
    2584:	00017c91 	.inst	0x00017c91 ; undefined
    2588:	24000006 	cmphs	p6.b, p0/z, z0.b, z0.b
    258c:	0000580c 	udf	#22540
    2590:	78910200 	ldursh	x0, [x16, #-240]
    2594:	0006d801 	.inst	0x0006d801 ; undefined
    2598:	580c2500 	ldr	x0, 1aa38 <_start-0x655c8>
    259c:	02000000 	.inst	0x02000000 ; undefined
    25a0:	00007491 	udf	#29841
    25a4:	00000bbc 	udf	#3004
    25a8:	08010005 	stxrb	w1, w5, [x0]
    25ac:	00000ba9 	udf	#2985
    25b0:	0001141e 	.inst	0x0001141e ; undefined
    25b4:	01991d00 	.inst	0x01991d00 ; undefined
    25b8:	000a0000 	.inst	0x000a0000 ; undefined
    25bc:	34cc0000 	cbz	w0, fffffffffff9a5bc <e0stackend+0xffffffffffdb75fc>
    25c0:	00000008 	udf	#8
    25c4:	1ae80000 	.inst	0x1ae80000 ; undefined
    25c8:	00000000 	udf	#0
    25cc:	0eb50000 	saddl	v0.2d, v0.2s, v21.2s
    25d0:	2d0b0000 	stp	s0, s0, [x0, #88]
    25d4:	02000000 	.inst	0x02000000 ; undefined
    25d8:	003a1722 	.inst	0x003a1722 ; NYI
    25dc:	01070000 	.inst	0x01070000 ; undefined
    25e0:	00007906 	udf	#30982
    25e4:	05020700 	orr	z0.d, z0.d, #0x1ffffffffffffff
    25e8:	00000000 	udf	#0
    25ec:	6905041f 	stgp	xzr, x1, [x0, #160]
    25f0:	0b00746e 	add	w14, w3, w0, lsl #29
    25f4:	000004f2 	udf	#1266
    25f8:	5b182b02 	.inst	0x5b182b02 ; undefined
    25fc:	07000000 	.inst	0x07000000 ; undefined
    2600:	00470508 	.inst	0x00470508 ; undefined
    2604:	2c0b0000 	stnp	s0, s0, [x0, #88]
    2608:	02000000 	.inst	0x02000000 ; undefined
    260c:	006e182e 	.inst	0x006e182e ; undefined
    2610:	01070000 	.inst	0x01070000 ; undefined
    2614:	00007708 	udf	#30472
    2618:	07020700 	.inst	0x07020700 ; undefined
    261c:	0000008c 	udf	#140
    2620:	0002040b 	.inst	0x0002040b ; undefined
    2624:	19340200 	.inst	0x19340200 ; undefined
    2628:	00000088 	udf	#136
    262c:	bd070407 	str	s7, [x0, #1796]
    2630:	0b000000 	add	w0, w0, w0
    2634:	000004f1 	udf	#1265
    2638:	9b193702 	madd	x2, x24, x25, x13
    263c:	07000000 	.inst	0x07000000 ; undefined
    2640:	00b80708 	.inst	0x00b80708 ; undefined
    2644:	c7160000 	.inst	0xc7160000 ; undefined
    2648:	28000008 	stnp	w8, w0, [x0]
    264c:	0000ea1c 	udf	#59932
    2650:	69741100 	ldpsw	x0, x4, [x8, #-96]
    2654:	091d0064 	.inst	0x091d0064 ; undefined
    2658:	00000048 	udf	#72
    265c:	736d1100 	.inst	0x736d1100 ; undefined
    2660:	0b1e0067 	add	w7, w3, w30
    2664:	000000ea 	udf	#234
    2668:	00850508 	.inst	0x00850508 ; undefined
    266c:	091f0000 	.inst	0x091f0000 ; undefined
    2670:	00000048 	udf	#72
    2674:	09670510 	.inst	0x09670510 ; undefined
    2678:	0b200000 	add	w0, w0, w0, uxtb
    267c:	000000ea 	udf	#234
    2680:	09ce0518 	.inst	0x09ce0518 ; undefined
    2684:	09210000 	.inst	0x09210000 ; undefined
    2688:	00000048 	udf	#72
    268c:	ef090020 	.inst	0xef090020 ; undefined
    2690:	07000000 	.inst	0x07000000 ; undefined
    2694:	00800801 	.inst	0x00800801 ; undefined
    2698:	ef200000 	.inst	0xef200000 ; undefined
    269c:	21000000 	.inst	0x21000000 ; undefined
    26a0:	000008ee 	udf	#2286
    26a4:	24030918 	cmphi	p8.b, p2/z, z8.b, z3.b
    26a8:	0001ac08 	.inst	0x0001ac08 ; undefined
    26ac:	08ae0500 	.inst	0x08ae0500 ; undefined
    26b0:	08250000 	.inst	0x08250000 ; undefined
    26b4:	000001ac 	udf	#428
    26b8:	0a3b0500 	bic	w0, w8, w27, lsl #1
    26bc:	09260000 	.inst	0x09260000 ; undefined
    26c0:	000001b5 	udf	#437
    26c4:	087f0508 	.inst	0x087f0508 ; undefined
    26c8:	0b270000 	add	w0, w0, w7, uxtb
    26cc:	0000007c 	udf	#124
    26d0:	09d70510 	.inst	0x09d70510 ; undefined
    26d4:	06280000 	.inst	0x06280000 ; undefined
    26d8:	00000048 	udf	#72
    26dc:	69701114 	ldpsw	x20, x4, [x8, #-128]
    26e0:	06290064 	.inst	0x06290064 ; undefined
    26e4:	00000048 	udf	#72
    26e8:	08690518 	.inst	0x08690518 ; undefined
    26ec:	062a0000 	.inst	0x062a0000 ; undefined
    26f0:	00000048 	udf	#72
    26f4:	09f2051c 	.inst	0x09f2051c ; undefined
    26f8:	0b2b0000 	add	w0, w0, w11, uxtb
    26fc:	000001ba 	udf	#442
    2700:	0a010c20 	and	w0, w1, w1, lsl #3
    2704:	112e0000 	add	w0, w0, #0xb80
    2708:	000000a2 	udf	#162
    270c:	4e0c0118 	tbl	v24.16b, {v8.16b}, v12.16b
    2710:	2f000009 	.inst	0x2f000009 ; undefined
    2714:	0001ca11 	.inst	0x0001ca11 ; undefined
    2718:	0c014000 	.inst	0x0c014000 ; undefined
    271c:	0000090a 	udf	#2314
    2720:	00620a30 	.inst	0x00620a30 ; undefined
    2724:	09100000 	.inst	0x09100000 ; undefined
    2728:	0008860c 	.inst	0x0008860c ; undefined
    272c:	620a3100 	.inst	0x620a3100 ; undefined
    2730:	11000000 	add	w0, w0, #0x0
    2734:	095f0c09 	.inst	0x095f0c09 ; undefined
    2738:	0a320000 	bic	w0, w0, w18
    273c:	00000062 	udf	#98
    2740:	720c0912 	ands	w18, w8, #0x700000
    2744:	33000008 	bfxil	w8, w0, #0, #1
    2748:	0000620a 	udf	#25098
    274c:	00091300 	.inst	0x00091300 ; undefined
    2750:	b5230822 	cbnz	x2, 48854 <_start-0x377ac>
    2754:	0d000001 	st1	{v1.b}[0], [x0]
    2758:	01ae0900 	.inst	0x01ae0900 ; undefined
    275c:	8f120000 	.inst	0x8f120000 ; undefined
    2760:	ca000000 	eor	x0, x0, x0
    2764:	13000001 	sbfx	w1, w0, #0, #1
    2768:	0000009b 	udf	#155
    276c:	a212001e 	.inst	0xa212001e ; undefined
    2770:	da000000 	sbc	x0, x0, x0
    2774:	13000001 	sbfx	w1, w0, #0, #1
    2778:	0000009b 	udf	#155
    277c:	16160031 	b	fffffffff8582840 <e0stackend+0xfffffffff839f880>
    2780:	0c000008 	st4	{v8.8b-v11.8b}, [x0]
    2784:	00020a38 	.inst	0x00020a38 ; undefined
    2788:	69701100 	ldpsw	x0, x4, [x8, #-128]
    278c:	06390064 	.inst	0x06390064 ; undefined
    2790:	00000048 	udf	#72
    2794:	08690500 	.inst	0x08690500 ; undefined
    2798:	063a0000 	.inst	0x063a0000 ; undefined
    279c:	00000048 	udf	#72
    27a0:	09b50504 	.inst	0x09b50504 ; undefined
    27a4:	063b0000 	.inst	0x063b0000 ; undefined
    27a8:	00000048 	udf	#72
    27ac:	0a0b0008 	and	w8, w0, w11
    27b0:	04000000 	add	z0.b, p0/m, z0.b, z0.b
    27b4:	009b17d6 	.inst	0x009b17d6 ; undefined
    27b8:	08070000 	stxrb	w7, w0, [x0]
    27bc:	00004205 	udf	#16901
    27c0:	04100700 	mul	z0.b, p1/m, z0.b, z24.b
    27c4:	0000005c 	udf	#92
    27c8:	0008ff01 	.inst	0x0008ff01 ; undefined
    27cc:	ac0e0800 	stnp	q0, q2, [x0, #448]
    27d0:	09000001 	.inst	0x09000001 ; undefined
    27d4:	0877e803 	.inst	0x0877e803 ; undefined
    27d8:	00000000 	udf	#0
    27dc:	49500400 	.inst	0x49500400 ; undefined
    27e0:	0c0a0044 	.inst	0x0c0a0044 ; undefined
    27e4:	00000048 	udf	#72
    27e8:	77f00309 	.inst	0x77f00309 ; undefined
    27ec:	00000008 	udf	#8
    27f0:	fb120000 	.inst	0xfb120000 ; undefined
    27f4:	5e000000 	sha1c	q0, s0, v0.4s
    27f8:	13000002 	sbfx	w2, w0, #0, #1
    27fc:	0000009b 	udf	#155
    2800:	34010013 	cbz	w19, 4800 <_start-0x7b800>
    2804:	10000009 	adr	x9, 2804 <_start-0x7d7fc>
    2808:	00024e17 	.inst	0x00024e17 ; undefined
    280c:	f8030900 	sttr	x0, [x8, #48]
    2810:	00000877 	udf	#2167
    2814:	24000000 	cmphs	p0.b, p0/z, z0.b, z0.b
    2818:	0000091f 	udf	#2335
    281c:	48051101 	stxrh	w5, w1, [x8]
    2820:	09000000 	.inst	0x09000000 ; undefined
    2824:	0877e003 	.inst	0x0877e003 ; undefined
    2828:	00000000 	udf	#0
    282c:	01da1200 	.inst	0x01da1200 ; undefined
    2830:	02990000 	.inst	0x02990000 ; undefined
    2834:	9b130000 	madd	x0, x0, x19, x0
    2838:	13000000 	sbfx	w0, w0, #0, #1
    283c:	09c20100 	.inst	0x09c20100 ; undefined
    2840:	15120000 	b	4482840 <e0stackend+0x429f880>
    2844:	00000289 	udf	#649
    2848:	2dd80309 	ldp	s9, s0, [x24, #192]!
    284c:	00000009 	udf	#9
    2850:	d4010000 	.inst	0xd4010000 ; undefined
    2854:	13000008 	sbfx	w8, w0, #0, #1
    2858:	00028915 	.inst	0x00028915 ; undefined
    285c:	c8030900 	stxr	w3, x0, [x8]
    2860:	0000092e 	udf	#2350
    2864:	25000000 	cmpge	p0.b, p0/z, z0.b, #0
    2868:	00000407 	udf	#1031
    286c:	48050d05 	stxrh	w5, w5, [x8]
    2870:	d5000000 	msr	s0_0_c0_c0_0, x0
    2874:	0d000002 	st1	{v2.b}[0], [x0]
    2878:	0a301500 	bic	w0, w8, w16, lsl #5
    287c:	07060000 	.inst	0x07060000 ; undefined
    2880:	000002f5 	udf	#757
    2884:	0001ac02 	.inst	0x0001ac02 ; undefined
    2888:	01b50200 	.inst	0x01b50200 ; undefined
    288c:	ac020000 	stnp	q0, q0, [x0, #64]
    2890:	02000001 	.inst	0x02000001 ; undefined
    2894:	0000007c 	udf	#124
    2898:	08cf1700 	ldlarb	w0, [x24]
    289c:	00480000 	.inst	0x00480000 ; undefined
    28a0:	03040000 	.inst	0x03040000 ; undefined
    28a4:	000d0000 	.inst	0x000d0000 ; undefined
    28a8:	00031418 	.inst	0x00031418 ; undefined
    28ac:	0f0c0700 	sshr	v0.8b, v24.8b, #4
    28b0:	0000006e 	udf	#110
    28b4:	0000031a 	udf	#794
    28b8:	00020a02 	.inst	0x00020a02 ; undefined
    28bc:	9a150000 	adc	x0, x0, x21
    28c0:	07000001 	.inst	0x07000001 ; undefined
    28c4:	0003310f 	.inst	0x0003310f ; undefined
    28c8:	020a0200 	.inst	0x020a0200 ; undefined
    28cc:	ea020000 	ands	x0, x0, x2
    28d0:	0d000000 	st1	{v0.b}[0], [x0]
    28d4:	00a81800 	.inst	0x00a81800 ; undefined
    28d8:	12080000 	and	w0, w0, #0x1000000
    28dc:	00004805 	udf	#18437
    28e0:	00035600 	.inst	0x00035600 ; undefined
    28e4:	00ea0200 	.inst	0x00ea0200 ; undefined
    28e8:	48020000 	stxrh	w2, w0, [x0]
    28ec:	02000000 	.inst	0x02000000 ; undefined
    28f0:	000000ea 	udf	#234
    28f4:	00004802 	udf	#18434
    28f8:	0e150000 	tbl	v0.8b, {v0.16b}, v21.8b
    28fc:	0600000a 	.inst	0x0600000a ; undefined
    2900:	00037b09 	.inst	0x00037b09 ; undefined
    2904:	01ac0200 	.inst	0x01ac0200 ; undefined
    2908:	ac020000 	stnp	q0, q0, [x0, #64]
    290c:	02000001 	.inst	0x02000001 ; undefined
    2910:	0000037b 	udf	#891
    2914:	00038002 	.inst	0x00038002 ; undefined
    2918:	03850200 	.inst	0x03850200 ; undefined
    291c:	09000000 	.inst	0x09000000 ; undefined
    2920:	000001b5 	udf	#437
    2924:	0001ac09 	.inst	0x0001ac09 ; undefined
    2928:	007c0900 	.inst	0x007c0900 ; undefined
    292c:	95260000 	bl	498292c <e0stackend+0x479f96c>
    2930:	01000002 	.inst	0x01000002 ; undefined
    2934:	a8060234 	stnp	x20, x0, [x17, #96]
    2938:	0000084f 	udf	#2127
    293c:	0c000000 	st4	{v0.8b-v3.8b}, [x0]
    2940:	00000000 	udf	#0
    2944:	01000000 	.inst	0x01000000 ; undefined
    2948:	02e2279c 	.inst	0x02e2279c ; undefined
    294c:	2e010000 	ext	v0.8b, v0.8b, v1.8b, #0
    2950:	4f8c0602 	.inst	0x4f8c0602 ; undefined
    2954:	00000008 	udf	#8
    2958:	001c0000 	.inst	0x001c0000 ; undefined
    295c:	00000000 	udf	#0
    2960:	9c010000 	ldr	q0, 4960 <_start-0x7b6a0>
    2964:	0003630e 	.inst	0x0003630e ; undefined
    2968:	48022700 	stxrh	w2, w0, [x24]
    296c:	64000000 	.inst	0x64000000 ; undefined
    2970:	0000084f 	udf	#2127
    2974:	28000000 	stnp	w0, w0, [x0]
    2978:	00000000 	udf	#0
    297c:	01000000 	.inst	0x01000000 ; undefined
    2980:	00041e9c 	.inst	0x00041e9c ; undefined
    2984:	08690300 	.inst	0x08690300 ; undefined
    2988:	02270000 	.inst	0x02270000 ; undefined
    298c:	00004814 	udf	#18452
    2990:	7c910200 	.inst	0x7c910200 ; undefined
    2994:	0009a703 	.inst	0x0009a703 ; undefined
    2998:	25022700 	cmplt	p0.b, p1/z, z24.b, #2
    299c:	000001b5 	udf	#437
    29a0:	03709102 	.inst	0x03709102 ; undefined
    29a4:	000002f3 	udf	#755
    29a8:	2e390227 	uaddl	v7.8h, v17.8b, v25.8b
    29ac:	02000000 	.inst	0x02000000 ; undefined
    29b0:	51037b91 	sub	w17, w28, #0xde
    29b4:	27000003 	.inst	0x27000003 ; undefined
    29b8:	041e4a02 	mla	z2.b, p2/m, z16.b, z30.b
    29bc:	91020000 	add	x0, x0, #0x80
    29c0:	4f090068 	.inst	0x4f090068 ; undefined
    29c4:	0e000000 	tbl	v0.8b, {v0.16b}, v0.8b
    29c8:	000003c6 	udf	#966
    29cc:	00480222 	.inst	0x00480222 ; undefined
    29d0:	4f440000 	.inst	0x4f440000 ; undefined
    29d4:	00000008 	udf	#8
    29d8:	00200000 	.inst	0x00200000 ; NYI
    29dc:	00000000 	udf	#0
    29e0:	9c010000 	ldr	q0, 49e0 <_start-0x7b620>
    29e4:	00000463 	udf	#1123
    29e8:	00086903 	.inst	0x00086903 ; undefined
    29ec:	10022200 	adr	x0, 6e2c <_start-0x791d4>
    29f0:	00000048 	udf	#72
    29f4:	037c9102 	.inst	0x037c9102 ; undefined
    29f8:	000009a7 	udf	#2471
    29fc:	b5210222 	cbnz	x2, 44a40 <_start-0x3b5c0>
    2a00:	02000001 	.inst	0x02000001 ; undefined
    2a04:	19007091 	stlurb	w17, [x4, #7]
    2a08:	0000096d 	udf	#2413
    2a0c:	0048021c 	.inst	0x0048021c ; undefined
    2a10:	4f340000 	.inst	0x4f340000 ; undefined
    2a14:	00000008 	udf	#8
    2a18:	00100000 	.inst	0x00100000 ; undefined
    2a1c:	00000000 	udf	#0
    2a20:	9c010000 	ldr	q0, 4a20 <_start-0x7b5e0>
    2a24:	0002b519 	.inst	0x0002b519 ; undefined
    2a28:	48021700 	stxrh	w2, w0, [x24]
    2a2c:	24000000 	cmphs	p0.b, p0/z, z0.b, z0.b
    2a30:	0000084f 	udf	#2127
    2a34:	10000000 	adr	x0, 2a34 <_start-0x7d5cc>
    2a38:	00000000 	udf	#0
    2a3c:	01000000 	.inst	0x01000000 ; undefined
    2a40:	09290e9c 	.inst	0x09290e9c ; undefined
    2a44:	020e0000 	.inst	0x020e0000 ; undefined
    2a48:	00000048 	udf	#72
    2a4c:	00084f08 	.inst	0x00084f08 ; undefined
    2a50:	00000000 	udf	#0
    2a54:	0000001c 	udf	#28
    2a58:	00000000 	udf	#0
    2a5c:	04ce9c01 	.inst	0x04ce9c01 ; undefined
    2a60:	740a0000 	.inst	0x740a0000 ; undefined
    2a64:	0e006469 	.inst	0x0e006469 ; undefined
    2a68:	00481402 	.inst	0x00481402 ; undefined
    2a6c:	91020000 	add	x0, x0, #0x80
    2a70:	bc0e007c 	stur	s28, [x3, #224]
    2a74:	0a000001 	and	w1, w0, w0
    2a78:	00004802 	udf	#18434
    2a7c:	084ee400 	ldaxrb	w0, [x0]
    2a80:	00000000 	udf	#0
    2a84:	00002400 	udf	#9216
    2a88:	00000000 	udf	#0
    2a8c:	1d9c0100 	.inst	0x1d9c0100 ; undefined
    2a90:	0a000005 	and	w5, w0, w0
    2a94:	00646974 	.inst	0x00646974 ; undefined
    2a98:	4810020a 	stxrh	w16, w10, [x16]
    2a9c:	02000000 	.inst	0x02000000 ; undefined
    2aa0:	67037c91 	.inst	0x67037c91 ; undefined
    2aa4:	0a000009 	and	w9, w0, w0
    2aa8:	01ac1b02 	.inst	0x01ac1b02 ; undefined
    2aac:	91020000 	add	x0, x0, #0x80
    2ab0:	09ce0370 	.inst	0x09ce0370 ; undefined
    2ab4:	020a0000 	.inst	0x020a0000 ; undefined
    2ab8:	00004826 	udf	#18470
    2abc:	78910200 	ldursh	x0, [x16, #-240]
    2ac0:	01f40e00 	.inst	0x01f40e00 ; undefined
    2ac4:	02060000 	.inst	0x02060000 ; undefined
    2ac8:	00000048 	udf	#72
    2acc:	00084ec0 	.inst	0x00084ec0 ; undefined
    2ad0:	00000000 	udf	#0
    2ad4:	00000024 	udf	#36
    2ad8:	00000000 	udf	#0
    2adc:	056c9c01 	splice	z1.h, p7, z1.h, z0.h
    2ae0:	740a0000 	.inst	0x740a0000 ; undefined
    2ae4:	06006469 	.inst	0x06006469 ; undefined
    2ae8:	056c1202 	ext	z2.b, {z16.b, z17.b}, #100
    2aec:	91020000 	add	x0, x0, #0x80
    2af0:	736d0a78 	.inst	0x736d0a78 ; undefined
    2af4:	02060067 	.inst	0x02060067 ; undefined
    2af8:	0000ea1d 	udf	#59933
    2afc:	70910200 	adr	x0, fffffffffff24b3f <e0stackend+0xffffffffffd41b7f>
    2b00:	00008503 	udf	#34051
    2b04:	26020600 	.inst	0x26020600 ; undefined
    2b08:	00000048 	udf	#72
    2b0c:	006c9102 	.inst	0x006c9102 ; undefined
    2b10:	00004809 	udf	#18441
    2b14:	01b70e00 	.inst	0x01b70e00 ; undefined
    2b18:	02010000 	.inst	0x02010000 ; undefined
    2b1c:	00000048 	udf	#72
    2b20:	00084e94 	.inst	0x00084e94 ; undefined
    2b24:	00000000 	udf	#0
    2b28:	0000002c 	udf	#44
    2b2c:	00000000 	udf	#0
    2b30:	05de9c01 	.inst	0x05de9c01 ; undefined
    2b34:	740a0000 	.inst	0x740a0000 ; undefined
    2b38:	01006469 	.inst	0x01006469 ; undefined
    2b3c:	00480e02 	.inst	0x00480e02 ; undefined
    2b40:	91020000 	add	x0, x0, #0x80
    2b44:	736d0a7c 	.inst	0x736d0a7c ; undefined
    2b48:	02010067 	.inst	0x02010067 ; undefined
    2b4c:	0005de1f 	.inst	0x0005de1f ; undefined
    2b50:	70910200 	adr	x0, fffffffffff24b93 <e0stackend+0xffffffffffd41bd3>
    2b54:	00008503 	udf	#34051
    2b58:	28020100 	stnp	w0, w0, [x8, #16]
    2b5c:	00000048 	udf	#72
    2b60:	03789102 	.inst	0x03789102 ; undefined
    2b64:	00000967 	udf	#2407
    2b68:	ea360201 	bics	x1, x16, x22
    2b6c:	02000000 	.inst	0x02000000 ; undefined
    2b70:	ce036891 	eor3	v17.16b, v4.16b, v3.16b, v26.16b
    2b74:	01000009 	.inst	0x01000009 ; undefined
    2b78:	00484102 	.inst	0x00484102 ; undefined
    2b7c:	91020000 	add	x0, x0, #0x80
    2b80:	f6090064 	.inst	0xf6090064 ; undefined
    2b84:	28000000 	stnp	w0, w0, [x0]
    2b88:	000008e2 	udf	#2274
    2b8c:	0601f801 	.inst	0x0601f801 ; undefined
    2b90:	00084e48 	.inst	0x00084e48 ; undefined
    2b94:	00000000 	udf	#0
    2b98:	0000004c 	udf	#76
    2b9c:	00000000 	udf	#0
    2ba0:	06109c01 	.inst	0x06109c01 ; undefined
    2ba4:	700a0000 	adr	x0, 16ba7 <_start-0x69459>
    2ba8:	0f01f800 	sudot	v0.2s, v0.8b, v1.4b[2]
    2bac:	00000048 	udf	#72
    2bb0:	007c9102 	.inst	0x007c9102 ; undefined
    2bb4:	0003c029 	.inst	0x0003c029 ; undefined
    2bb8:	01da0100 	.inst	0x01da0100 ; undefined
    2bbc:	00004805 	udf	#18437
    2bc0:	084c5800 	ldxrb	w0, [x0]
    2bc4:	00000000 	udf	#0
    2bc8:	0001f000 	.inst	0x0001f000 ; undefined
    2bcc:	00000000 	udf	#0
    2bd0:	809c0100 	fmopa	za0.s, p0/m, p0/m, z8.s, z28.s
    2bd4:	03000006 	.inst	0x03000006 ; undefined
    2bd8:	00000869 	udf	#2153
    2bdc:	481601da 	stxrh	w22, w26, [x14]
    2be0:	02000000 	.inst	0x02000000 ; undefined
    2be4:	a7036c91 	.inst	0xa7036c91 ; undefined
    2be8:	da000009 	sbc	x9, x0, x0
    2bec:	01b52701 	.inst	0x01b52701 ; undefined
    2bf0:	91020000 	add	x0, x0, #0x80
    2bf4:	08e70360 	.inst	0x08e70360 ; undefined
    2bf8:	01da0000 	.inst	0x01da0000 ; undefined
    2bfc:	00004838 	udf	#18488
    2c00:	68910200 	stgp	x0, x0, [x16], #544
    2c04:	084c6c08 	ldxrb	w8, [x0]
    2c08:	00000000 	udf	#0
    2c0c:	0001d000 	.inst	0x0001d000 ; undefined
    2c10:	00000000 	udf	#0
    2c14:	00700600 	.inst	0x00700600 ; undefined
    2c18:	480b01de 	stxrh	w11, w30, [x14]
    2c1c:	02000000 	.inst	0x02000000 ; undefined
    2c20:	00007c91 	udf	#31889
    2c24:	00093d1a 	.inst	0x00093d1a ; undefined
    2c28:	8001c300 	.inst	0x8001c300 ; undefined
    2c2c:	0000084b 	udf	#2123
    2c30:	d8000000 	prfm	pldl1keep, 2c30 <_start-0x7d3d0>
    2c34:	00000000 	udf	#0
    2c38:	01000000 	.inst	0x01000000 ; undefined
    2c3c:	0006ab9c 	.inst	0x0006ab9c ; undefined
    2c40:	00700600 	.inst	0x00700600 ; undefined
    2c44:	480601c8 	stxrh	w6, w8, [x14]
    2c48:	02000000 	.inst	0x02000000 ; undefined
    2c4c:	2a007c91 	orr	w17, w4, w0, lsl #31
    2c50:	000008a4 	udf	#2212
    2c54:	06013c01 	.inst	0x06013c01 ; undefined
    2c58:	00084408 	.inst	0x00084408 ; undefined
    2c5c:	00000000 	udf	#0
    2c60:	00000778 	udf	#1912
    2c64:	00000000 	udf	#0
    2c68:	07aa9c01 	.inst	0x07aa9c01 ; undefined
    2c6c:	46030000 	.inst	0x46030000 ; undefined
    2c70:	3c000009 	stur	b9, [x0]
    2c74:	008f1901 	.inst	0x008f1901 ; undefined
    2c78:	91020000 	add	x0, x0, #0x80
    2c7c:	00700658 	.inst	0x00700658 ; undefined
    2c80:	48060142 	stxrh	w6, w2, [x10]
    2c84:	02000000 	.inst	0x02000000 ; undefined
    2c88:	cf177091 	.inst	0xcf177091 ; undefined
    2c8c:	48000008 	stxrh	w0, w8, [x0]
    2c90:	f5000000 	.inst	0xf5000000 ; undefined
    2c94:	0d000006 	st1	{v6.b}[0], [x0]
    2c98:	44381b00 	.inst	0x44381b00 ; undefined
    2c9c:	00000008 	udf	#8
    2ca0:	069c0000 	.inst	0x069c0000 ; undefined
    2ca4:	00000000 	udf	#0
    2ca8:	078a0000 	.inst	0x078a0000 ; undefined
    2cac:	69060000 	stgp	x0, x0, [x0, #192]
    2cb0:	07014400 	.inst	0x07014400 ; undefined
    2cb4:	00000048 	udf	#72
    2cb8:	086c9102 	.inst	0x086c9102 ; undefined
    2cbc:	00084504 	.inst	0x00084504 ; undefined
    2cc0:	00000000 	udf	#0
    2cc4:	000005d0 	udf	#1488
    2cc8:	00000000 	udf	#0
    2ccc:	74657206 	.inst	0x74657206 ; undefined
    2cd0:	08015900 	stxrb	w1, w0, [x8]
    2cd4:	00000048 	udf	#72
    2cd8:	10649102 	adr	x2, cbef8 <stackend+0x28f38>
    2cdc:	00000858 	udf	#2136
    2ce0:	48080172 	stxrh	w8, w18, [x11]
    2ce4:	02000000 	.inst	0x02000000 ; undefined
    2ce8:	881b6891 	stxr	w27, w17, [x4]
    2cec:	00000845 	udf	#2117
    2cf0:	5c000000 	ldr	d0, 2cf0 <_start-0x7d310>
    2cf4:	00000000 	udf	#0
    2cf8:	69000000 	stgp	x0, x0, [x0]
    2cfc:	06000007 	.inst	0x06000007 ; undefined
    2d00:	0156006a 	.inst	0x0156006a ; undefined
    2d04:	0000480d 	udf	#18445
    2d08:	7c910200 	.inst	0x7c910200 ; undefined
    2d0c:	46600800 	.inst	0x46600800 ; undefined
    2d10:	00000008 	udf	#8
    2d14:	00c00000 	.inst	0x00c00000 ; undefined
    2d18:	00000000 	udf	#0
    2d1c:	6a060000 	ands	w0, w0, w6
    2d20:	0e015d00 	.inst	0x0e015d00 ; undefined
    2d24:	00000048 	udf	#72
    2d28:	00789102 	.inst	0x00789102 ; undefined
    2d2c:	e8080000 	.inst	0xe8080000 ; undefined
    2d30:	0000084a 	udf	#2122
    2d34:	80000000 	.inst	0x80000000 ; undefined
    2d38:	00000000 	udf	#0
    2d3c:	06000000 	.inst	0x06000000 ; undefined
    2d40:	01ba0069 	.inst	0x01ba0069 ; undefined
    2d44:	0000480b 	udf	#18443
    2d48:	74910200 	.inst	0x74910200 ; undefined
    2d4c:	521a0000 	eor	w0, w0, #0x40
    2d50:	1700000a 	b	fffffffffc002d78 <e0stackend+0xfffffffffbe1fdb8>
    2d54:	08425401 	ldxrb	w1, [x0]
    2d58:	00000000 	udf	#0
    2d5c:	0001b400 	.inst	0x0001b400 ; undefined
    2d60:	00000000 	udf	#0
    2d64:	2d9c0100 	stp	s0, s0, [x8, #224]!
    2d68:	06000008 	.inst	0x06000008 ; undefined
    2d6c:	011c0070 	.inst	0x011c0070 ; undefined
    2d70:	00004806 	udf	#18438
    2d74:	7c910200 	.inst	0x7c910200 ; undefined
    2d78:	64697406 	.inst	0x64697406 ; undefined
    2d7c:	06011d00 	.inst	0x06011d00 ; undefined
    2d80:	00000048 	udf	#72
    2d84:	10789102 	adr	x2, f3fa4 <stackend+0x50fe4>
    2d88:	00000967 	udf	#2407
    2d8c:	ea08011e 	ands	x30, x8, x8
    2d90:	02000000 	.inst	0x02000000 ; undefined
    2d94:	ce107091 	eor3	v17.16b, v4.16b, v16.16b, v28.16b
    2d98:	1f000009 	fmadd	s9, s0, s0, s0
    2d9c:	00480601 	.inst	0x00480601 ; undefined
    2da0:	91020000 	add	x0, x0, #0x80
    2da4:	0a45106c 	and	w12, w3, w5, lsr #4
    2da8:	01200000 	.inst	0x01200000 ; undefined
    2dac:	0000ea08 	udf	#59912
    2db0:	60910200 	.inst	0x60910200 ; undefined
    2db4:	0009e110 	.inst	0x0009e110 ; undefined
    2db8:	06012100 	.inst	0x06012100 ; undefined
    2dbc:	00000048 	udf	#72
    2dc0:	065c9102 	.inst	0x065c9102 ; undefined
    2dc4:	012f0069 	.inst	0x012f0069 ; undefined
    2dc8:	00004806 	udf	#18438
    2dcc:	58910200 	ldr	x0, fffffffffff24e0c <e0stackend+0xffffffffffd41e4c>
    2dd0:	0a211c00 	bic	w0, w0, w1, lsl #7
    2dd4:	30bd0000 	adr	x0, fffffffffff7cdd5 <e0stackend+0xffffffffffd99e15>
    2dd8:	0000083f 	udf	#2111
    2ddc:	24000000 	cmphs	p0.b, p0/z, z0.b, z0.b
    2de0:	00000003 	udf	#3
    2de4:	01000000 	.inst	0x01000000 ; undefined
    2de8:	0008d59c 	.inst	0x0008d59c ; undefined
    2dec:	49500f00 	.inst	0x49500f00 ; undefined
    2df0:	19bd0044 	.inst	0x19bd0044 ; undefined
    2df4:	00000048 	udf	#72
    2df8:	7fbc9103 	fmulx	s3, s8, v28.s[1]
    2dfc:	00091a01 	.inst	0x00091a01 ; undefined
    2e00:	4806be00 	stlxrh	w6, w0, [x16]
    2e04:	02000000 	.inst	0x02000000 ; undefined
    2e08:	96017c91 	bl	fffffffff806204c <e0stackend+0xfffffffff7e7f08c>
    2e0c:	bf000008 	.inst	0xbf000008 ; undefined
    2e10:	00004806 	udf	#18438
    2e14:	78910200 	ldursh	x0, [x16, #-240]
    2e18:	64697404 	.inst	0x64697404 ; undefined
    2e1c:	6c07c600 	stnp	d0, d17, [x16, #120]
    2e20:	02000005 	.inst	0x02000005 ; undefined
    2e24:	6d047091 	stp	d17, d28, [x4, #64]
    2e28:	c7006773 	.inst	0xc7006773 ; undefined
    2e2c:	0000ea08 	udf	#59912
    2e30:	68910200 	stgp	x0, x0, [x16], #544
    2e34:	00008501 	udf	#34049
    2e38:	4806c800 	stlxrh	w6, w0, [x0]
    2e3c:	02000000 	.inst	0x02000000 ; undefined
    2e40:	70046491 	adr	x17, bad3 <_start-0x7452d>
    2e44:	4806e500 	stlxrh	w6, w0, [x8]
    2e48:	02000000 	.inst	0x02000000 ; undefined
    2e4c:	84016091 	ldff1b	{z17.s}, p0/z, [x4, z1.s, uxtw]
    2e50:	f2000009 	ands	x9, x0, #0x100000001
    2e54:	00004807 	udf	#18439
    2e58:	5c910200 	ldr	d0, fffffffffff24e98 <e0stackend+0xffffffffffd41ed8>
    2e5c:	0008bb01 	.inst	0x0008bb01 ; undefined
    2e60:	ea08f300 	ands	x0, x24, x8, lsl #60
    2e64:	02000000 	.inst	0x02000000 ; undefined
    2e68:	79015091 	strh	w17, [x4, #168]
    2e6c:	f4000009 	.inst	0xf4000009 ; undefined
    2e70:	00004806 	udf	#18438
    2e74:	4c910200 	st4	{v0.16b-v3.16b}, [x16], x17
    2e78:	099b2b00 	.inst	0x099b2b00 ; undefined
    2e7c:	83010000 	.inst	0x83010000 ; undefined
    2e80:	083b8006 	.inst	0x083b8006 ; undefined
    2e84:	00000000 	udf	#0
    2e88:	0003b000 	.inst	0x0003b000 ; undefined
    2e8c:	00000000 	udf	#0
    2e90:	749c0100 	.inst	0x749c0100 ; undefined
    2e94:	04000009 	add	z9.b, p0/m, z9.b, z0.b
    2e98:	06890070 	.inst	0x06890070 ; undefined
    2e9c:	00000048 	udf	#72
    2ea0:	047c9102 	asr	z2.s, z8.s, #4
    2ea4:	00646974 	.inst	0x00646974 ; undefined
    2ea8:	0048068a 	.inst	0x0048068a ; undefined
    2eac:	91020000 	add	x0, x0, #0x80
    2eb0:	736d0478 	.inst	0x736d0478 ; undefined
    2eb4:	088b0067 	stllrb	w7, [x3]
    2eb8:	000000ea 	udf	#234
    2ebc:	01709102 	.inst	0x01709102 ; undefined
    2ec0:	00000085 	udf	#133
    2ec4:	0048068c 	.inst	0x0048068c ; undefined
    2ec8:	91020000 	add	x0, x0, #0x80
    2ecc:	0967016c 	.inst	0x0967016c ; undefined
    2ed0:	088d0000 	stllrb	w0, [x0]
    2ed4:	000000ea 	udf	#234
    2ed8:	01609102 	.inst	0x01609102 ; undefined
    2edc:	000009ce 	udf	#2510
    2ee0:	0048068e 	.inst	0x0048068e ; undefined
    2ee4:	91020000 	add	x0, x0, #0x80
    2ee8:	0896015c 	stllrb	w28, [x10]
    2eec:	06990000 	.inst	0x06990000 ; undefined
    2ef0:	00000048 	udf	#72
    2ef4:	08589102 	ldaxrb	w2, [x8]
    2ef8:	00083f10 	.inst	0x00083f10 ; undefined
    2efc:	00000000 	udf	#0
    2f00:	00000014 	udf	#20
    2f04:	00000000 	udf	#0
    2f08:	000a212c 	.inst	0x000a212c ; undefined
    2f0c:	03b60100 	.inst	0x03b60100 ; undefined
    2f10:	00000048 	udf	#72
    2f14:	0000000d 	udf	#13
    2f18:	0009b02d 	.inst	0x0009b02d ; undefined
    2f1c:	087f0100 	.inst	0x087f0100 ; undefined
    2f20:	0000002e 	udf	#46
    2f24:	00083b10 	.inst	0x00083b10 ; undefined
    2f28:	00000000 	udf	#0
    2f2c:	00000070 	udf	#112
    2f30:	00000000 	udf	#0
    2f34:	09a39c01 	.inst	0x09a39c01 ; undefined
    2f38:	700f0000 	adr	x0, 20f3b <_start-0x5f0c5>
    2f3c:	2e147f00 	.inst	0x2e147f00 ; undefined
    2f40:	02000000 	.inst	0x02000000 ; undefined
    2f44:	1c007f91 	ldr	s17, 3f34 <_start-0x7c0cc>
    2f48:	00000851 	udf	#2129
    2f4c:	083a6872 	.inst	0x083a6872 ; undefined
    2f50:	00000000 	udf	#0
    2f54:	0000a800 	udf	#43008
    2f58:	00000000 	udf	#0
    2f5c:	d99c0100 	.inst	0xd99c0100 ; undefined
    2f60:	0f000009 	.inst	0x0f000009 ; undefined
    2f64:	72007073 	ands	w19, w3, #0x1fffffff
    2f68:	0001ac13 	.inst	0x0001ac13 ; undefined
    2f6c:	68910200 	stgp	x0, x0, [x16], #544
    2f70:	75007004 	.inst	0x75007004 ; undefined
    2f74:	00004806 	udf	#18438
    2f78:	7c910200 	.inst	0x7c910200 ; undefined
    2f7c:	039e1d00 	.inst	0x039e1d00 ; undefined
    2f80:	d0580000 	adrp	x0, b0004000 <e0stackend+0xafe21040>
    2f84:	00000838 	udf	#2104
    2f88:	98000000 	ldrsw	x0, 2f88 <_start-0x7d078>
    2f8c:	00000001 	udf	#1
    2f90:	01000000 	.inst	0x01000000 ; undefined
    2f94:	000a449c 	.inst	0x000a449c ; undefined
    2f98:	65720f00 	fmla	z0.h, p3/m, z24.h, z18.h
    2f9c:	14580067 	b	1603138 <e0stackend+0x1420178>
    2fa0:	000001ac 	udf	#428
    2fa4:	08689102 	.inst	0x08689102 ; undefined
    2fa8:	000838f4 	.inst	0x000838f4 ; undefined
    2fac:	00000000 	udf	#0
    2fb0:	00000168 	udf	#360
    2fb4:	00000000 	udf	#0
    2fb8:	78646904 	ldrh	w4, [x8, x4]
    2fbc:	480b5c00 	stxrh	w11, w0, [x0]
    2fc0:	02000000 	.inst	0x02000000 ; undefined
    2fc4:	88087c91 	stxr	w8, w17, [x4]
    2fc8:	00000839 	udf	#2105
    2fcc:	50000000 	adr	x0, 2fce <_start-0x7d032>
    2fd0:	00000000 	udf	#0
    2fd4:	04000000 	add	z0.b, p0/m, z0.b, z0.b
    2fd8:	0078646a 	.inst	0x0078646a ; undefined
    2fdc:	00480c62 	.inst	0x00480c62 ; undefined
    2fe0:	91020000 	add	x0, x0, #0x80
    2fe4:	00000078 	udf	#120
    2fe8:	0008612e 	.inst	0x0008612e ; undefined
    2fec:	05420100 	eor	z0.d, z0.d, #0x1ff
    2ff0:	00000048 	udf	#72
    2ff4:	00083760 	.inst	0x00083760 ; undefined
    2ff8:	00000000 	udf	#0
    2ffc:	00000170 	udf	#368
    3000:	00000000 	udf	#0
    3004:	0aaf9c01 	.inst	0x0aaf9c01 ; undefined
    3008:	70040000 	adr	x0, b00b <_start-0x74ff5>
    300c:	44006469 	.inst	0x44006469 ; undefined
    3010:	00004806 	udf	#18438
    3014:	7c910200 	.inst	0x7c910200 ; undefined
    3018:	000a3601 	.inst	0x000a3601 ; undefined
    301c:	48064500 	stxrh	w6, w0, [x8]
    3020:	02000000 	.inst	0x02000000 ; undefined
    3024:	47017891 	.inst	0x47017891 ; undefined
    3028:	46000008 	.inst	0x46000008 ; undefined
    302c:	0001da0f 	.inst	0x0001da0f ; undefined
    3030:	68910200 	stgp	x0, x0, [x16], #544
    3034:	08377c08 	.inst	0x08377c08 ; undefined
    3038:	00000000 	udf	#0
    303c:	00011800 	.inst	0x00011800 ; undefined
    3040:	00000000 	udf	#0
    3044:	00690400 	.inst	0x00690400 ; undefined
    3048:	00480b48 	.inst	0x00480b48 ; undefined
    304c:	91020000 	add	x0, x0, #0x80
    3050:	1d000074 	.inst	0x1d000074 ; undefined
    3054:	00000a13 	udf	#2579
    3058:	08365032 	.inst	0x08365032 ; undefined
    305c:	00000000 	udf	#0
    3060:	00011000 	.inst	0x00011000 ; undefined
    3064:	00000000 	udf	#0
    3068:	329c0100 	.inst	0x329c0100 ; undefined
    306c:	0f00000b 	.inst	0x0f00000b ; undefined
    3070:	00646970 	.inst	0x00646970 ; undefined
    3074:	00481832 	.inst	0x00481832 ; undefined
    3078:	91020000 	add	x0, x0, #0x80
    307c:	0869144c 	.inst	0x0869144c ; undefined
    3080:	21320000 	.inst	0x21320000 ; undefined
    3084:	00000048 	udf	#72
    3088:	14489102 	b	1227490 <e0stackend+0x10444d0>
    308c:	000009b5 	udf	#2485
    3090:	00482f32 	.inst	0x00482f32 ; undefined
    3094:	91020000 	add	x0, x0, #0x80
    3098:	089b0144 	stllrb	w4, [x10]
    309c:	0f340000 	.inst	0x0f340000 ; undefined
    30a0:	000001da 	udf	#474
    30a4:	01689102 	.inst	0x01689102 ; undefined
    30a8:	000008f6 	udf	#2294
    30ac:	01da0f35 	.inst	0x01da0f35 ; undefined
    30b0:	91020000 	add	x0, x0, #0x80
    30b4:	09bb0158 	.inst	0x09bb0158 ; undefined
    30b8:	06360000 	.inst	0x06360000 ; undefined
    30bc:	00000048 	udf	#72
    30c0:	2f789102 	.inst	0x2f789102 ; undefined
    30c4:	00000023 	udf	#35
    30c8:	37006904 	tbnz	w4, #0, 3de8 <_start-0x7c218>
    30cc:	0000480b 	udf	#18443
    30d0:	7c910200 	.inst	0x7c910200 ; undefined
    30d4:	3a300000 	.inst	0x3a300000 ; undefined
    30d8:	01000009 	.inst	0x01000009 ; undefined
    30dc:	34cc061b 	cbz	w27, fffffffffff9b19c <e0stackend+0xffffffffffdb81dc>
    30e0:	00000008 	udf	#8
    30e4:	01840000 	.inst	0x01840000 ; undefined
    30e8:	00000000 	udf	#0
    30ec:	9c010000 	ldr	q0, 50ec <_start-0x7af14>
    30f0:	6469700f 	.inst	0x6469700f ; undefined
    30f4:	48161b00 	stxrh	w22, w0, [x24]
    30f8:	02000000 	.inst	0x02000000 ; undefined
    30fc:	69144c91 	stgp	x17, x19, [x4, #640]
    3100:	1b000008 	madd	w8, w0, w0, w0
    3104:	0000481f 	udf	#18463
    3108:	48910200 	stllrh	w0, [x16]
    310c:	0009b514 	.inst	0x0009b514 ; undefined
    3110:	482d1b00 	.inst	0x482d1b00 ; undefined
    3114:	02000000 	.inst	0x02000000 ; undefined
    3118:	9b014491 	madd	x17, x4, x1, x17
    311c:	1d000008 	.inst	0x1d000008 ; undefined
    3120:	0001da0f 	.inst	0x0001da0f ; undefined
    3124:	68910200 	stgp	x0, x0, [x16], #544
    3128:	0008f601 	.inst	0x0008f601 ; undefined
    312c:	da0f1e00 	.inst	0xda0f1e00 ; undefined
    3130:	02000001 	.inst	0x02000001 ; undefined
    3134:	bb015891 	.inst	0xbb015891 ; undefined
    3138:	1f000009 	fmadd	s9, s0, s0, s0
    313c:	00004806 	udf	#18438
    3140:	7c910200 	.inst	0x7c910200 ; undefined
    3144:	0834f808 	.inst	0x0834f808 ; undefined
    3148:	00000000 	udf	#0
    314c:	00014c00 	.inst	0x00014c00 ; undefined
    3150:	00000000 	udf	#0
    3154:	00690400 	.inst	0x00690400 ; undefined
    3158:	00480b20 	.inst	0x00480b20 ; undefined
    315c:	91020000 	add	x0, x0, #0x80
    3160:	00000078 	udf	#120
    3164:	000001b2 	udf	#434
    3168:	08010005 	stxrb	w1, w5, [x0]
    316c:	00000f1f 	udf	#3871
    3170:	00011405 	.inst	0x00011405 ; undefined
    3174:	01a91d00 	.inst	0x01a91d00 ; undefined
    3178:	000a0000 	.inst	0x000a0000 ; undefined
    317c:	4fb40000 	fmlal	v0.4s, v0.4h, v4.h[3]
    3180:	00000008 	udf	#8
    3184:	00580000 	.inst	0x00580000 ; undefined
    3188:	00000000 	udf	#0
    318c:	14060000 	b	18318c <stackend+0xe01cc>
    3190:	01010000 	.inst	0x01010000 ; undefined
    3194:	00007906 	udf	#30982
    3198:	05020100 	orr	z0.d, z0.d, #0x1ff
    319c:	00000000 	udf	#0
    31a0:	69050406 	stgp	x6, x1, [x0, #160]
    31a4:	0100746e 	.inst	0x0100746e ; undefined
    31a8:	00470508 	.inst	0x00470508 ; undefined
    31ac:	01010000 	.inst	0x01010000 ; undefined
    31b0:	00007708 	udf	#30472
    31b4:	07020100 	.inst	0x07020100 ; undefined
    31b8:	0000008c 	udf	#140
    31bc:	00020407 	.inst	0x00020407 ; undefined
    31c0:	19340200 	.inst	0x19340200 ; undefined
    31c4:	00000069 	udf	#105
    31c8:	00005803 	udf	#22531
    31cc:	07040100 	.inst	0x07040100 ; undefined
    31d0:	000000bd 	udf	#189
    31d4:	00006903 	udf	#26883
    31d8:	07080100 	.inst	0x07080100 ; undefined
    31dc:	000000b8 	udf	#184
    31e0:	42050801 	.inst	0x42050801 ; undefined
    31e4:	01000000 	.inst	0x01000000 ; undefined
    31e8:	005c0410 	.inst	0x005c0410 ; undefined
    31ec:	56020000 	.inst	0x56020000 ; undefined
    31f0:	05000007 	orr	z7.s, z7.s, #0x1
    31f4:	0000a515 	udf	#42261
    31f8:	d8030900 	prfm	pldl1keep, 9318 <_start-0x76ce8>
    31fc:	00000876 	udf	#2166
    3200:	08000000 	stxrb	w0, w0, [x0]
    3204:	0000aa08 	udf	#43528
    3208:	009f0300 	.inst	0x009f0300 ; undefined
    320c:	01010000 	.inst	0x01010000 ; undefined
    3210:	00008008 	udf	#32776
    3214:	0a980200 	and	w0, w16, w24, asr #0
    3218:	14080000 	b	203218 <e0stackend+0x20258>
    321c:	000000a5 	udf	#165
    3220:	76e00309 	.inst	0x76e00309 ; undefined
    3224:	00000008 	udf	#8
    3228:	b1020000 	adds	x0, x0, #0x80
    322c:	0d00000a 	st1	{v10.b}[0], [x0]
    3230:	00006417 	udf	#25623
    3234:	e8030900 	.inst	0xe8030900 ; undefined
    3238:	00000876 	udf	#2166
    323c:	02000000 	.inst	0x02000000 ; undefined
    3240:	00000a8c 	udf	#2700
    3244:	0064170e 	.inst	0x0064170e ; undefined
    3248:	03090000 	.inst	0x03090000 ; undefined
    324c:	000876ec 	.inst	0x000876ec ; undefined
    3250:	00000000 	udf	#0
    3254:	000a6a02 	.inst	0x000a6a02 ; undefined
    3258:	64170f00 	.inst	0x64170f00 ; undefined
    325c:	09000000 	.inst	0x09000000 ; undefined
    3260:	0876f003 	.inst	0x0876f003 ; undefined
    3264:	00000000 	udf	#0
    3268:	0aa60200 	bic	w0, w16, w6, asr #0
    326c:	17100000 	b	fffffffffc40326c <e0stackend+0xfffffffffc2202ac>
    3270:	00000064 	udf	#100
    3274:	76f40309 	.inst	0x76f40309 ; undefined
    3278:	00000008 	udf	#8
    327c:	76020000 	.inst	0x76020000 ; undefined
    3280:	1100000a 	add	w10, w0, #0x0
    3284:	00006417 	udf	#25623
    3288:	f8030900 	sttr	x0, [x8, #48]
    328c:	00000876 	udf	#2166
    3290:	02000000 	.inst	0x02000000 ; undefined
    3294:	00000a81 	udf	#2689
    3298:	00641712 	.inst	0x00641712 ; undefined
    329c:	03090000 	.inst	0x03090000 ; undefined
    32a0:	000876fc 	.inst	0x000876fc ; undefined
    32a4:	00000000 	udf	#0
    32a8:	000a5f02 	.inst	0x000a5f02 ; undefined
    32ac:	64171300 	.inst	0x64171300 ; undefined
    32b0:	09000000 	.inst	0x09000000 ; undefined
    32b4:	08770003 	.inst	0x08770003 ; undefined
    32b8:	00000000 	udf	#0
    32bc:	0abc0900 	bic	w0, w8, w28, asr #2
    32c0:	1e010000 	.inst	0x1e010000 ; undefined
    32c4:	0000690e 	udf	#26894
    32c8:	084fe000 	ldaxrb	w0, [x0]
    32cc:	00000000 	udf	#0
    32d0:	00002c00 	udf	#11264
    32d4:	00000000 	udf	#0
    32d8:	899c0100 	.inst	0x899c0100 ; undefined
    32dc:	04000001 	add	z1.b, p0/m, z1.b, z0.b
    32e0:	00746572 	.inst	0x00746572 ; undefined
    32e4:	00007020 	udf	#28704
    32e8:	7c910200 	.inst	0x7c910200 ; undefined
    32ec:	04260a00 	.inst	0x04260a00 ; undefined
    32f0:	19010000 	stlurb	w0, [x0, #16]
    32f4:	0000690e 	udf	#26894
    32f8:	084fb400 	ldaxrb	w0, [x0]
    32fc:	00000000 	udf	#0
    3300:	00002c00 	udf	#11264
    3304:	00000000 	udf	#0
    3308:	049c0100 	.inst	0x049c0100 ; undefined
    330c:	00746572 	.inst	0x00746572 ; undefined
    3310:	0000701b 	udf	#28699
    3314:	7c910200 	.inst	0x7c910200 ; undefined
    3318:	06060000 	.inst	0x06060000 ; undefined
    331c:	00050000 	.inst	0x00050000 ; undefined
    3320:	0fc10801 	.inst	0x0fc10801 ; undefined
    3324:	140f0000 	b	3c3324 <e0stackend+0x1e0364>
    3328:	1d000001 	.inst	0x1d000001 ; undefined
    332c:	000001b4 	udf	#436
    3330:	0000000a 	udf	#10
    3334:	0008500c 	.inst	0x0008500c ; undefined
    3338:	00000000 	udf	#0
    333c:	00000e3c 	udf	#3644
    3340:	00000000 	udf	#0
    3344:	00001475 	udf	#5237
    3348:	47050804 	.inst	0x47050804 ; undefined
    334c:	0a000000 	and	w0, w0, w0
    3350:	0000000a 	udf	#10
    3354:	4117d602 	.inst	0x4117d602 ; undefined
    3358:	04000000 	add	z0.b, p0/m, z0.b, z0.b
    335c:	00b80708 	.inst	0x00b80708 ; undefined
    3360:	04040000 	.inst	0x04040000 ; undefined
    3364:	0000bd07 	udf	#48391
    3368:	05080400 	.inst	0x05080400 ; undefined
    336c:	00000042 	udf	#66
    3370:	5c041004 	ldr	d4, b570 <_start-0x74a90>
    3374:	04000000 	add	z0.b, p0/m, z0.b, z0.b
    3378:	00790601 	.inst	0x00790601 ; undefined
    337c:	02040000 	.inst	0x02040000 ; undefined
    3380:	00000005 	udf	#5
    3384:	05041000 	.inst	0x05041000 ; undefined
    3388:	00746e69 	.inst	0x00746e69 ; undefined
    338c:	77080104 	.inst	0x77080104 ; undefined
    3390:	04000000 	add	z0.b, p0/m, z0.b, z0.b
    3394:	008c0702 	.inst	0x008c0702 ; undefined
    3398:	040a0000 	smin	z0.b, p0/m, z0.b, z0.b
    339c:	03000002 	.inst	0x03000002 ; undefined
    33a0:	00481934 	.inst	0x00481934 ; undefined
    33a4:	fd0b0000 	str	d0, [x0, #5632]
    33a8:	0b000000 	add	w0, w0, w0
    33ac:	000000a1 	udf	#161
    33b0:	00003508 	udf	#13576
    33b4:	00720800 	.inst	0x00720800 ; undefined
    33b8:	0b000000 	add	w0, w0, w0
    33bc:	0000019a 	udf	#410
    33c0:	0000b70f 	udf	#46863
    33c4:	00350800 	.inst	0x00350800 ; NYI
    33c8:	b7080000 	tbnz	x0, #33, 33c8 <_start-0x7cc38>
    33cc:	11000000 	add	w0, w0, #0x0
    33d0:	00bc0900 	.inst	0x00bc0900 ; undefined
    33d4:	01040000 	.inst	0x01040000 ; undefined
    33d8:	00008008 	udf	#32776
    33dc:	0aee0700 	bic	w0, w24, w14, ror #1
    33e0:	d09d0000 	adrp	x0, ffffffff3a005000 <e0stackend+0xffffffff39e22040>
    33e4:	0000085c 	udf	#2140
    33e8:	78000000 	sturh	w0, [x0]
    33ec:	00000001 	udf	#1
    33f0:	01000000 	.inst	0x01000000 ; undefined
    33f4:	00015a9c 	.inst	0x00015a9c ; undefined
    33f8:	00730200 	.inst	0x00730200 ; undefined
    33fc:	006b179d 	.inst	0x006b179d ; undefined
    3400:	91020000 	add	x0, x0, #0x80
    3404:	0063025c 	.inst	0x0063025c ; undefined
    3408:	00bc1f9d 	.inst	0x00bc1f9d ; undefined
    340c:	91020000 	add	x0, x0, #0x80
    3410:	0634035b 	.inst	0x0634035b ; undefined
    3414:	299d0000 	stp	w0, w0, [x0, #232]!
    3418:	00000035 	udf	#53
    341c:	01509102 	.inst	0x01509102 ; undefined
    3420:	00776f72 	.inst	0x00776f72 ; undefined
    3424:	006b079e 	.inst	0x006b079e ; undefined
    3428:	91020000 	add	x0, x0, #0x80
    342c:	6f63017c 	mla	v28.8h, v11.8h, v3.h[2]
    3430:	079f006c 	.inst	0x079f006c ; undefined
    3434:	0000006b 	udf	#107
    3438:	05789102 	.inst	0x05789102 ; undefined
    343c:	00000b26 	udf	#2854
    3440:	006b07a0 	.inst	0x006b07a0 ; undefined
    3444:	91020000 	add	x0, x0, #0x80
    3448:	0b3d0574 	add	w20, w11, w29, uxtb #1
    344c:	07a10000 	.inst	0x07a10000 ; undefined
    3450:	0000006b 	udf	#107
    3454:	05709102 	.inst	0x05709102 ; undefined
    3458:	00000b20 	udf	#2848
    345c:	006b07a2 	.inst	0x006b07a2 ; undefined
    3460:	91020000 	add	x0, x0, #0x80
    3464:	0b01056c 	add	w12, w11, w1, lsl #1
    3468:	07a30000 	.inst	0x07a30000 ; undefined
    346c:	0000006b 	udf	#107
    3470:	00689102 	.inst	0x00689102 ; undefined
    3474:	000b500c 	.inst	0x000b500c ; undefined
    3478:	5c589300 	ldr	d0, b46d8 <stackend+0x11718>
    347c:	00000008 	udf	#8
    3480:	00780000 	.inst	0x00780000 ; undefined
    3484:	00000000 	udf	#0
    3488:	9c010000 	ldr	q0, 5488 <_start-0x7ab78>
    348c:	000001cd 	udf	#461
    3490:	6e657302 	uabdl2	v2.4s, v24.8h, v5.8h
    3494:	6b169300 	.inst	0x6b169300 ; undefined
    3498:	02000000 	.inst	0x02000000 ; undefined
    349c:	61026c91 	.inst	0x61026c91 ; undefined
    34a0:	93007272 	.inst	0x93007272 ; undefined
    34a4:	0001cd1f 	.inst	0x0001cd1f ; undefined
    34a8:	60910200 	.inst	0x60910200 ; undefined
    34ac:	000b3803 	.inst	0x000b3803 ; undefined
    34b0:	352d9300 	cbnz	w0, 5e710 <_start-0x218f0>
    34b4:	02000000 	.inst	0x02000000 ; undefined
    34b8:	dc055891 	.inst	0xdc055891 ; undefined
    34bc:	9400000a 	bl	34e4 <_start-0x7cb1c>
    34c0:	00006b07 	udf	#27399
    34c4:	78910200 	ldursh	x0, [x16, #-240]
    34c8:	085c6806 	ldxrb	w6, [x0]
    34cc:	00000000 	udf	#0
    34d0:	00005c00 	udf	#23552
    34d4:	00000000 	udf	#0
    34d8:	00690100 	.inst	0x00690100 ; undefined
    34dc:	00801195 	.inst	0x00801195 ; undefined
    34e0:	91020000 	add	x0, x0, #0x80
    34e4:	0900007c 	.inst	0x0900007c ; undefined
    34e8:	0000006b 	udf	#107
    34ec:	000b4207 	.inst	0x000b4207 ; undefined
    34f0:	5af88200 	.inst	0x5af88200 ; undefined
    34f4:	00000008 	udf	#8
    34f8:	01600000 	.inst	0x01600000 ; undefined
    34fc:	00000000 	udf	#0
    3500:	9c010000 	ldr	q0, 5500 <_start-0x7ab00>
    3504:	00000272 	udf	#626
    3508:	72726102 	.inst	0x72726102 ; undefined
    350c:	cd188200 	.inst	0xcd188200 ; undefined
    3510:	02000001 	.inst	0x02000001 ; undefined
    3514:	38036891 	sttrb	w17, [x4, #54]
    3518:	8200000b 	.inst	0x8200000b ; undefined
    351c:	00003526 	udf	#13606
    3520:	60910200 	.inst	0x60910200 ; undefined
    3524:	000ad503 	.inst	0x000ad503 ; undefined
    3528:	48398200 	.inst	0x48398200 ; undefined
    352c:	02000000 	.inst	0x02000000 ; undefined
    3530:	72025c91 	ands	w17, w4, #0xc03fffff
    3534:	8200776f 	.inst	0x8200776f ; undefined
    3538:	0000484e 	udf	#18510
    353c:	58910200 	ldr	x0, fffffffffff2557c <e0stackend+0xffffffffffd425bc>
    3540:	00063403 	.inst	0x00063403 ; undefined
    3544:	355a8200 	cbnz	w0, b8584 <stackend+0x155c4>
    3548:	02000000 	.inst	0x02000000 ; undefined
    354c:	24065091 	cmpgt	p1.b, p4/z, z4.b, z6.d
    3550:	0000085b 	udf	#2139
    3554:	18000000 	ldr	w0, 3554 <_start-0x7caac>
    3558:	00000001 	udf	#1
    355c:	01000000 	.inst	0x01000000 ; undefined
    3560:	11840069 	.inst	0x11840069 ; undefined
    3564:	00000080 	udf	#128
    3568:	067c9102 	.inst	0x067c9102 ; undefined
    356c:	00085b48 	.inst	0x00085b48 ; undefined
    3570:	00000000 	udf	#0
    3574:	000000d8 	udf	#216
    3578:	00000000 	udf	#0
    357c:	00686301 	.inst	0x00686301 ; undefined
    3580:	00bc0c87 	.inst	0x00bc0c87 ; undefined
    3584:	91020000 	add	x0, x0, #0x80
    3588:	0000007b 	udf	#123
    358c:	000ac807 	.inst	0x000ac807 ; undefined
    3590:	58106500 	ldr	x0, 24230 <_start-0x5bdd0>
    3594:	00000008 	udf	#8
    3598:	02e80000 	.inst	0x02e80000 ; undefined
    359c:	00000000 	udf	#0
    35a0:	9c010000 	ldr	q0, 55a0 <_start-0x7aa60>
    35a4:	0000032c 	udf	#812
    35a8:	72726102 	.inst	0x72726102 ; undefined
    35ac:	cd176500 	.inst	0xcd176500 ; undefined
    35b0:	02000001 	.inst	0x02000001 ; undefined
    35b4:	38035891 	sttrb	w17, [x4, #53]
    35b8:	6500000b 	.inst	0x6500000b ; undefined
    35bc:	00003525 	udf	#13605
    35c0:	50910200 	adr	x0, fffffffffff25602 <e0stackend+0xffffffffffd42642>
    35c4:	00063403 	.inst	0x00063403 ; undefined
    35c8:	35326500 	cbnz	w0, 68268 <_start-0x17d98>
    35cc:	02000000 	.inst	0x02000000 ; undefined
    35d0:	72014891 	ands	w17, w4, #0x8003ffff
    35d4:	6600776f 	.inst	0x6600776f ; undefined
    35d8:	00006b07 	udf	#27399
    35dc:	74910200 	.inst	0x74910200 ; undefined
    35e0:	6c6f6301 	ldnp	d1, d24, [x24, #-272]
    35e4:	6b076700 	subs	w0, w24, w7, lsl #25
    35e8:	02000000 	.inst	0x02000000 ; undefined
    35ec:	25057091 	bic	p1.b, p12/z, p4.b, p5.b
    35f0:	6800000b 	.inst	0x6800000b ; undefined
    35f4:	00006b07 	udf	#27399
    35f8:	6c910200 	stp	d0, d0, [x16], #272
    35fc:	69006901 	stgp	x1, x26, [x8]
    3600:	00006b07 	udf	#27399
    3604:	7c910200 	.inst	0x7c910200 ; undefined
    3608:	08584406 	ldxrb	w6, [x0]
    360c:	00000000 	udf	#0
    3610:	0001f800 	.inst	0x0001f800 ; undefined
    3614:	00000000 	udf	#0
    3618:	006a0100 	.inst	0x006a0100 ; undefined
    361c:	0080116a 	.inst	0x0080116a ; undefined
    3620:	91020000 	add	x0, x0, #0x80
    3624:	58680678 	ldr	x24, d36f0 <stackend+0x30730>
    3628:	00000008 	udf	#8
    362c:	01b80000 	.inst	0x01b80000 ; undefined
    3630:	00000000 	udf	#0
    3634:	74010000 	.inst	0x74010000 ; undefined
    3638:	0b6c0076 	.inst	0x0b6c0076 ; undefined
    363c:	0000006b 	udf	#107
    3640:	00689102 	.inst	0x00689102 ; undefined
    3644:	2b070000 	adds	w0, w0, w7
    3648:	4e00000b 	tbl	v11.16b, {v0.16b}, v0.16b
    364c:	000855ec 	.inst	0x000855ec ; undefined
    3650:	00000000 	udf	#0
    3654:	00000224 	udf	#548
    3658:	00000000 	udf	#0
    365c:	03b89c01 	.inst	0x03b89c01 ; undefined
    3660:	1b030000 	madd	w0, w0, w3, w0
    3664:	4e00000b 	tbl	v11.16b, {v0.16b}, v0.16b
    3668:	00004125 	udf	#16677
    366c:	68910200 	stgp	x0, x0, [x16], #544
    3670:	00646902 	.inst	0x00646902 ; undefined
    3674:	0048384e 	.inst	0x0048384e ; undefined
    3678:	91020000 	add	x0, x0, #0x80
    367c:	06340364 	.inst	0x06340364 ; undefined
    3680:	434e0000 	.inst	0x434e0000 ; undefined
    3684:	00000035 	udf	#53
    3688:	03589102 	.inst	0x03589102 ; undefined
    368c:	00000b0e 	udf	#2830
    3690:	006b4d4e 	.inst	0x006b4d4e ; undefined
    3694:	91020000 	add	x0, x0, #0x80
    3698:	6f720160 	mla	v0.8h, v11.8h, v2.h[3]
    369c:	074f0077 	.inst	0x074f0077 ; undefined
    36a0:	0000006b 	udf	#107
    36a4:	017c9102 	.inst	0x017c9102 ; undefined
    36a8:	006c6f63 	.inst	0x006c6f63 ; undefined
    36ac:	006b0750 	.inst	0x006b0750 ; undefined
    36b0:	91020000 	add	x0, x0, #0x80
    36b4:	0afb0578 	bic	w24, w11, w27, ror #1
    36b8:	07510000 	.inst	0x07510000 ; undefined
    36bc:	0000006b 	udf	#107
    36c0:	05749102 	.inst	0x05749102 ; undefined
    36c4:	00000b25 	udf	#2853
    36c8:	006b0752 	.inst	0x006b0752 ; undefined
    36cc:	91020000 	add	x0, x0, #0x80
    36d0:	15070070 	b	41c3890 <e0stackend+0x3fe08d0>
    36d4:	3700000b 	tbnz	w11, #0, 36d4 <_start-0x7c92c>
    36d8:	000852bc 	.inst	0x000852bc ; undefined
    36dc:	00000000 	udf	#0
    36e0:	00000330 	udf	#816
    36e4:	00000000 	udf	#0
    36e8:	043e9c01 	lsl	z1.h, z0.h, #14
    36ec:	1b030000 	madd	w0, w0, w3, w0
    36f0:	3700000b 	tbnz	w11, #0, 36f0 <_start-0x7c910>
    36f4:	00004123 	udf	#16675
    36f8:	68910200 	stgp	x0, x0, [x16], #544
    36fc:	776f7202 	.inst	0x776f7202 ; undefined
    3700:	48363700 	.inst	0x48363700 ; undefined
    3704:	02000000 	.inst	0x02000000 ; undefined
    3708:	d5036491 	msr	s0_3_c6_c4_4, x17
    370c:	3700000a 	tbnz	w10, #0, 370c <_start-0x7c8f4>
    3710:	00004848 	udf	#18504
    3714:	60910200 	.inst	0x60910200 ; undefined
    3718:	00063403 	.inst	0x00063403 ; undefined
    371c:	35573700 	cbnz	w0, b1dfc <stackend+0xee3c>
    3720:	02000000 	.inst	0x02000000 ; undefined
    3724:	6d015891 	stp	d17, d22, [x4, #16]
    3728:	10390073 	adr	x19, 75734 <_start-0xa8cc>
    372c:	00000048 	udf	#72
    3730:	017c9102 	.inst	0x017c9102 ; undefined
    3734:	103b0073 	adr	x19, 79740 <_start-0x68c0>
    3738:	00000048 	udf	#72
    373c:	01789102 	.inst	0x01789102 ; undefined
    3740:	103d006d 	adr	x13, 7d74c <_start-0x28b4>
    3744:	00000048 	udf	#72
    3748:	01749102 	.inst	0x01749102 ; undefined
    374c:	103f0068 	adr	x8, 81758 <gameserver+0x4dc>
    3750:	00000048 	udf	#72
    3754:	00709102 	.inst	0x00709102 ; undefined
    3758:	000ae70d 	.inst	0x000ae70d ; undefined
    375c:	04c13000 	uaddv	d0, p4, z0.d
    3760:	524c0000 	.inst	0x524c0000 ; undefined
    3764:	00000008 	udf	#8
    3768:	00700000 	.inst	0x00700000 ; undefined
    376c:	00000000 	udf	#0
    3770:	9c010000 	ldr	q0, 5770 <_start-0x7a890>
    3774:	000004c1 	udf	#1217
    3778:	00085c03 	.inst	0x00085c03 ; undefined
    377c:	c31d3000 	.inst	0xc31d3000 ; undefined
    3780:	02000004 	.inst	0x02000004 ; undefined
    3784:	73025891 	.inst	0x73025891 ; undefined
    3788:	30006372 	adr	x18, 43f5 <_start-0x7bc0b>
    378c:	0004cd38 	.inst	0x0004cd38 ; undefined
    3790:	50910200 	adr	x0, fffffffffff257d2 <e0stackend+0xffffffffffd42812>
    3794:	30006e02 	adr	x2, 4555 <_start-0x7baab>
    3798:	00003544 	udf	#13636
    379c:	48910200 	stllrh	w0, [x16]
    37a0:	74697301 	.inst	0x74697301 ; undefined
    37a4:	b70b3100 	tbnz	x0, #33, 9dc4 <_start-0x7623c>
    37a8:	02000000 	.inst	0x02000000 ; undefined
    37ac:	e1057891 	.inst	0xe1057891 ; undefined
    37b0:	3200000a 	orr	w10, w0, #0x1
    37b4:	0000b70b 	udf	#46859
    37b8:	70910200 	adr	x0, fffffffffff257fb <e0stackend+0xffffffffffd4283b>
    37bc:	08526c06 	ldxrb	w6, [x0]
    37c0:	00000000 	udf	#0
    37c4:	00004400 	udf	#17408
    37c8:	00000000 	udf	#0
    37cc:	00690100 	.inst	0x00690100 ; undefined
    37d0:	00351133 	.inst	0x00351133 ; NYI
    37d4:	91020000 	add	x0, x0, #0x80
    37d8:	12000068 	and	w8, w3, #0x1
    37dc:	04c10e08 	sub	z8.d, p3/m, z8.d, z16.d
    37e0:	d2090000 	eor	x0, x0, #0x80000000800000
    37e4:	0e000004 	tbl	v4.8b, {v0.16b}, v0.8b
    37e8:	000004c8 	udf	#1224
    37ec:	0b070d13 	add	w19, w8, w7, lsl #3
    37f0:	c12a0000 	.inst	0xc12a0000 ; undefined
    37f4:	f4000004 	.inst	0xf4000004 ; undefined
    37f8:	00000851 	udf	#2129
    37fc:	58000000 	ldr	x0, 37fc <_start-0x7c804>
    3800:	00000000 	udf	#0
    3804:	01000000 	.inst	0x01000000 ; undefined
    3808:	0005379c 	.inst	0x0005379c ; undefined
    380c:	00730200 	.inst	0x00730200 ; undefined
    3810:	04c1142a 	sub	z10.d, p5/m, z10.d, z1.d
    3814:	91020000 	add	x0, x0, #0x80
    3818:	00630268 	.inst	0x00630268 ; undefined
    381c:	006b1b2a 	.inst	0x006b1b2a ; undefined
    3820:	91020000 	add	x0, x0, #0x80
    3824:	006e0264 	.inst	0x006e0264 ; undefined
    3828:	0035252a 	.inst	0x0035252a ; NYI
    382c:	91020000 	add	x0, x0, #0x80
    3830:	52040658 	eor	w24, w18, #0x30000000
    3834:	00000008 	udf	#8
    3838:	003c0000 	.inst	0x003c0000 ; NYI
    383c:	00000000 	udf	#0
    3840:	69010000 	stgp	x0, x0, [x0, #32]
    3844:	0e2b0074 	saddl	v20.8h, v3.8b, v11.8b
    3848:	000000b7 	udf	#183
    384c:	00789102 	.inst	0x00789102 ; undefined
    3850:	32691400 	.inst	0x32691400 ; undefined
    3854:	21010061 	.inst	0x21010061 ; undefined
    3858:	08519c06 	ldaxrb	w6, [x0]
    385c:	00000000 	udf	#0
    3860:	00005800 	udf	#22528
    3864:	00000000 	udf	#0
    3868:	719c0100 	.inst	0x719c0100 ; undefined
    386c:	02000005 	.inst	0x02000005 ; undefined
    3870:	006d756e 	.inst	0x006d756e ; undefined
    3874:	006b0f21 	.inst	0x006b0f21 ; undefined
    3878:	91020000 	add	x0, x0, #0x80
    387c:	6662027c 	.inst	0x6662027c ; undefined
    3880:	b71a2100 	tbnz	x0, #35, 7ca0 <_start-0x78360>
    3884:	02000000 	.inst	0x02000000 ; undefined
    3888:	0c007091 	st1	{v17.8b}, [x4]
    388c:	000003ea 	udf	#1002
    3890:	08508c0e 	ldaxrb	w14, [x0]
    3894:	00000000 	udf	#0
    3898:	00011000 	.inst	0x00011000 ; undefined
    389c:	00000000 	udf	#0
    38a0:	dd9c0100 	.inst	0xdd9c0100 ; undefined
    38a4:	02000005 	.inst	0x02000005 ; undefined
    38a8:	006d756e 	.inst	0x006d756e ; undefined
    38ac:	0048190e 	.inst	0x0048190e ; undefined
    38b0:	91020000 	add	x0, x0, #0x80
    38b4:	0b5c036c 	add	w12, w27, w28, lsr #0
    38b8:	2b0e0000 	adds	w0, w0, w14
    38bc:	00000048 	udf	#72
    38c0:	02689102 	.inst	0x02689102 ; undefined
    38c4:	0e006662 	.inst	0x0e006662 ; undefined
    38c8:	0000b737 	udf	#46903
    38cc:	60910200 	.inst	0x60910200 ; undefined
    38d0:	0f006e01 	.inst	0x0f006e01 ; undefined
    38d4:	00006b06 	udf	#27398
    38d8:	7c910200 	.inst	0x7c910200 ; undefined
    38dc:	74676401 	.inst	0x74676401 ; undefined
    38e0:	6b061000 	subs	w0, w0, w6, lsl #4
    38e4:	02000000 	.inst	0x02000000 ; undefined
    38e8:	64017491 	.inst	0x64017491 ; undefined
    38ec:	480f1100 	stxrh	w15, w0, [x8]
    38f0:	02000000 	.inst	0x02000000 ; undefined
    38f4:	15007891 	b	4021b38 <e0stackend+0x3e3eb78>
    38f8:	00643261 	.inst	0x00643261 ; undefined
    38fc:	6b050601 	subs	w1, w16, w5, lsl #1
    3900:	0c000000 	st4	{v0.8b-v3.8b}, [x0]
    3904:	00000850 	udf	#2128
    3908:	80000000 	.inst	0x80000000 ; undefined
    390c:	00000000 	udf	#0
    3910:	01000000 	.inst	0x01000000 ; undefined
    3914:	6863029c 	.inst	0x6863029c ; undefined
    3918:	bc0f0600 	str	s0, [x16], #240
    391c:	02000000 	.inst	0x02000000 ; undefined
    3920:	00007f91 	udf	#32657
    3924:	00000025 	udf	#37
    3928:	08010005 	stxrb	w1, w5, [x0]
    392c:	0000111a 	udf	#4378
    3930:	0017f701 	.inst	0x0017f701 ; undefined
    3934:	085e5000 	ldxrb	w0, [x0]
    3938:	00000000 	udf	#0
    393c:	6104b000 	.inst	0x6104b000 ; undefined
    3940:	6700000b 	.inst	0x6700000b ; undefined
    3944:	d000000b 	adrp	x11, 5000 <_start-0x7b000>
    3948:	0100000b 	.inst	0x0100000b ; undefined
    394c:	00002580 	udf	#9600
    3950:	01000500 	.inst	0x01000500 ; undefined
    3954:	00112e08 	.inst	0x00112e08 ; undefined
    3958:	18cb0100 	ldr	w0, fffffffffff99978 <e0stackend+0xffffffffffdb69b8>
    395c:	00000000 	udf	#0
    3960:	00000008 	udf	#8
    3964:	01a80000 	.inst	0x01a80000 ; undefined
    3968:	00000bde 	udf	#3038
    396c:	00000b67 	udf	#2919
    3970:	00000bd0 	udf	#3024
    3974:	00258001 	.inst	0x00258001 ; NYI
    3978:	00050000 	.inst	0x00050000 ; undefined
    397c:	11420801 	add	w1, w0, #0x82, lsl #12
    3980:	32010000 	orr	w0, w0, #0x80000000
    3984:	00000019 	udf	#25
    3988:	00000868 	udf	#2152
    398c:	80000000 	.inst	0x80000000 ; undefined
    3990:	000be510 	.inst	0x000be510 ; undefined
    3994:	000b6700 	.inst	0x000b6700 ; undefined
    3998:	000bd000 	.inst	0x000bd000 ; undefined
    399c:	Address 0x399c is out of bounds.


Disassembly of section .debug_abbrev:

0000000000000000 <.debug_abbrev>:
       0:	03000501 	.inst	0x03000501 ; undefined
       4:	01213a08 	.inst	0x01213a08 ; undefined
       8:	0b390b3b 	add	w27, w25, w25, uxtb #2
       c:	18021349 	ldr	w9, 4274 <_start-0x7bd8c>
      10:	24020000 	cmphs	p0.b, p0/z, z0.b, z2.b
      14:	3e0b0b00 	.inst	0x3e0b0b00 ; undefined
      18:	000e030b 	.inst	0x000e030b ; undefined
      1c:	00050300 	.inst	0x00050300 ; undefined
      20:	213a0e03 	.inst	0x213a0e03 ; undefined
      24:	390b3b01 	strb	w1, [x24, #718]
      28:	0213490b 	.inst	0x0213490b ; undefined
      2c:	04000018 	add	z24.b, p0/m, z24.b, z0.b
      30:	08030034 	stxrb	w3, w20, [x1]
      34:	3b01213a 	.inst	0x3b01213a ; undefined
      38:	490b390b 	.inst	0x490b390b ; undefined
      3c:	00180213 	.inst	0x00180213 ; undefined
      40:	00050500 	.inst	0x00050500 ; undefined
      44:	00001349 	udf	#4937
      48:	3f012e06 	.inst	0x3f012e06 ; undefined
      4c:	3a0e0319 	adcs	w25, w24, w14
      50:	0b3b0121 	add	w1, w9, w27, uxtb
      54:	19270b39 	.inst	0x19270b39 ; undefined
      58:	01111349 	.inst	0x01111349 ; undefined
      5c:	18400712 	ldr	w18, 8013c <exit+0xc8>
      60:	1301197a 	sbfx	w26, w11, #1, #6
      64:	16070000 	b	fffffffff81c0064 <e0stackend+0xfffffffff7fdd0a4>
      68:	3a0e0300 	adcs	w0, w24, w14
      6c:	390b3b0b 	strb	w11, [x24, #718]
      70:	0013490b 	.inst	0x0013490b ; undefined
      74:	000f0800 	.inst	0x000f0800 ; undefined
      78:	4908210b 	.inst	0x4908210b ; undefined
      7c:	09000013 	.inst	0x09000013 ; undefined
      80:	193f012e 	.inst	0x193f012e ; undefined
      84:	213a0e03 	.inst	0x213a0e03 ; undefined
      88:	390b3b04 	strb	w4, [x24, #718]
      8c:	19270621 	.inst	0x19270621 ; undefined
      90:	1301193c 	sbfx	w28, w9, #1, #6
      94:	2e0a0000 	ext	v0.8b, v0.8b, v10.8b, #0
      98:	03193f01 	.inst	0x03193f01 ; undefined
      9c:	01213a0e 	.inst	0x01213a0e ; undefined
      a0:	21390b3b 	.inst	0x21390b3b ; undefined
      a4:	11192706 	add	w6, w24, #0x649
      a8:	40071201 	.inst	0x40071201 ; undefined
      ac:	01197a18 	.inst	0x01197a18 ; undefined
      b0:	0b000013 	add	w19, w0, w0
      b4:	0e030034 	tbl	v20.8b, {v1.16b}, v3.8b
      b8:	3b01213a 	.inst	0x3b01213a ; undefined
      bc:	490b390b 	.inst	0x490b390b ; undefined
      c0:	00180213 	.inst	0x00180213 ; undefined
      c4:	012e0c00 	.inst	0x012e0c00 ; undefined
      c8:	0e03193f 	uzp1	v31.8b, v9.8b, v3.8b
      cc:	3b01213a 	.inst	0x3b01213a ; undefined
      d0:	0621390b 	.inst	0x0621390b ; undefined
      d4:	13491927 	.inst	0x13491927 ; undefined
      d8:	07120111 	.inst	0x07120111 ; undefined
      dc:	197c1840 	.inst	0x197c1840 ; undefined
      e0:	00001301 	udf	#4865
      e4:	2501110d 	cmpge	p13.b, p4/z, z8.b, #1
      e8:	030b130e 	.inst	0x030b130e ; undefined
      ec:	111f1b1f 	add	wsp, w24, #0x7c6
      f0:	10071201 	adr	x1, e330 <_start-0x71cd0>
      f4:	0e000017 	tbl	v23.8b, {v0.16b}, v0.8b
      f8:	0b0b0024 	add	w4, w1, w11
      fc:	08030b3e 	stxrb	w3, w30, [x25]
     100:	260f0000 	.inst	0x260f0000 ; undefined
     104:	00134900 	.inst	0x00134900 ; undefined
     108:	00181000 	.inst	0x00181000 ; undefined
     10c:	2e110000 	ext	v0.8b, v0.8b, v17.8b, #0
     110:	03193f01 	.inst	0x03193f01 ; undefined
     114:	3b0b3a08 	.inst	0x3b0b3a08 ; undefined
     118:	270b390b 	.inst	0x270b390b ; undefined
     11c:	3c134919 	.inst	0x3c134919 ; undefined
     120:	00130119 	.inst	0x00130119 ; undefined
     124:	012e1200 	.inst	0x012e1200 ; undefined
     128:	0e03193f 	uzp1	v31.8b, v9.8b, v3.8b
     12c:	0b3b0b3a 	add	w26, w25, w27, uxtb #2
     130:	19270b39 	.inst	0x19270b39 ; undefined
     134:	07120111 	.inst	0x07120111 ; undefined
     138:	197c1840 	.inst	0x197c1840 ; undefined
     13c:	00001301 	udf	#4865
     140:	55010b13 	.inst	0x55010b13 ; undefined
     144:	14000017 	b	1a0 <_start-0x7fe60>
     148:	193f012e 	.inst	0x193f012e ; undefined
     14c:	0b3a0e03 	add	w3, w16, w26, uxtb #3
     150:	0b390b3b 	add	w27, w25, w25, uxtb #2
     154:	01111349 	.inst	0x01111349 ; undefined
     158:	18400712 	ldr	w18, 80238 <exit+0x1c4>
     15c:	1301197a 	sbfx	w26, w11, #1, #6
     160:	2e150000 	ext	v0.8b, v0.8b, v21.8b, #0
     164:	03193f01 	.inst	0x03193f01 ; undefined
     168:	3b0b3a0e 	.inst	0x3b0b3a0e ; undefined
     16c:	270b390b 	.inst	0x270b390b ; undefined
     170:	11134919 	add	w25, w8, #0x4d2
     174:	40071201 	.inst	0x40071201 ; undefined
     178:	00197a18 	.inst	0x00197a18 ; undefined
     17c:	24010000 	cmphs	p0.b, p0/z, z0.b, z1.b
     180:	3e0b0b00 	.inst	0x3e0b0b00 ; undefined
     184:	000e030b 	.inst	0x000e030b ; undefined
     188:	01110200 	.inst	0x01110200 ; undefined
     18c:	0b130e25 	add	w5, w17, w19, lsl #3
     190:	1f1b1f03 	fmadd	s3, s24, s27, s7
     194:	00001710 	udf	#5904
     198:	0b002403 	add	w3, w0, w0, lsl #9
     19c:	030b3e0b 	.inst	0x030b3e0b ; undefined
     1a0:	00000008 	udf	#8
     1a4:	49000501 	.inst	0x49000501 ; undefined
     1a8:	02000013 	.inst	0x02000013 ; undefined
     1ac:	0e030034 	tbl	v20.8b, {v1.16b}, v3.8b
     1b0:	3b01213a 	.inst	0x3b01213a ; undefined
     1b4:	490b390b 	.inst	0x490b390b ; undefined
     1b8:	00180213 	.inst	0x00180213 ; undefined
     1bc:	00340300 	.inst	0x00340300 ; NYI
     1c0:	213a0803 	.inst	0x213a0803 ; undefined
     1c4:	390b3b01 	strb	w1, [x24, #718]
     1c8:	0213490b 	.inst	0x0213490b ; undefined
     1cc:	04000018 	add	z24.b, p0/m, z24.b, z0.b
     1d0:	0b0b0024 	add	w4, w1, w11
     1d4:	0e030b3e 	.inst	0x0e030b3e ; undefined
     1d8:	2e050000 	ext	v0.8b, v0.8b, v5.8b, #0
     1dc:	03193f01 	.inst	0x03193f01 ; undefined
     1e0:	3b0b3a0e 	.inst	0x3b0b3a0e ; undefined
     1e4:	0521390b 	.inst	0x0521390b ; undefined
     1e8:	13491927 	.inst	0x13491927 ; undefined
     1ec:	1301193c 	sbfx	w28, w9, #1, #6
     1f0:	05060000 	.inst	0x05060000 ; undefined
     1f4:	3a0e0300 	adcs	w0, w24, w14
     1f8:	0b3b0121 	add	w1, w9, w27, uxtb
     1fc:	13490b39 	.inst	0x13490b39 ; undefined
     200:	00001802 	udf	#6146
     204:	03000d07 	.inst	0x03000d07 ; undefined
     208:	01213a0e 	.inst	0x01213a0e ; undefined
     20c:	0b390b3b 	add	w27, w25, w25, uxtb #2
     210:	0b381349 	add	w9, w26, w24, uxtb #4
     214:	0b080000 	add	w0, w0, w8
     218:	12011101 	and	w1, w8, #0x8000000f
     21c:	09000007 	.inst	0x09000007 ; undefined
     220:	210b000f 	.inst	0x210b000f ; undefined
     224:	00134908 	.inst	0x00134908 ; undefined
     228:	01010a00 	.inst	0x01010a00 ; undefined
     22c:	13011349 	sbfx	w9, w26, #1, #4
     230:	210b0000 	.inst	0x210b0000 ; undefined
     234:	2f134900 	.inst	0x2f134900 ; undefined
     238:	0c00000b 	st4	{v11.8b-v14.8b}, [x0]
     23c:	193f012e 	.inst	0x193f012e ; undefined
     240:	213a0e03 	.inst	0x213a0e03 ; undefined
     244:	390b3b01 	strb	w1, [x24, #718]
     248:	4919270b 	.inst	0x4919270b ; undefined
     24c:	12011113 	and	w19, w8, #0x8000000f
     250:	7c184007 	stur	h7, [x0, #-124]
     254:	00130119 	.inst	0x00130119 ; undefined
     258:	012e0d00 	.inst	0x012e0d00 ; undefined
     25c:	0e03193f 	uzp1	v31.8b, v9.8b, v3.8b
     260:	3b01213a 	.inst	0x3b01213a ; undefined
     264:	0621390b 	.inst	0x0621390b ; undefined
     268:	07120111 	.inst	0x07120111 ; undefined
     26c:	197c1840 	.inst	0x197c1840 ; undefined
     270:	00001301 	udf	#4865
     274:	11010b0e 	add	w14, w24, #0x42
     278:	01071201 	.inst	0x01071201 ; undefined
     27c:	0f000013 	.inst	0x0f000013 ; undefined
     280:	0e030016 	tbl	v22.8b, {v0.16b}, v3.8b
     284:	3b02213a 	.inst	0x3b02213a ; undefined
     288:	490b390b 	.inst	0x490b390b ; undefined
     28c:	10000013 	adr	x19, 28c <_start-0x7fd74>
     290:	00000018 	udf	#24
     294:	25011111 	cmpgt	p1.b, p4/z, z8.b, #1
     298:	030b130e 	.inst	0x030b130e ; undefined
     29c:	111f1b1f 	add	wsp, w24, #0x7c6
     2a0:	10071201 	adr	x1, e4e0 <_start-0x71b20>
     2a4:	12000017 	and	w23, w0, #0x1
     2a8:	0b0b0024 	add	w4, w1, w11
     2ac:	08030b3e 	stxrb	w3, w30, [x25]
     2b0:	26130000 	.inst	0x26130000 ; undefined
     2b4:	00134900 	.inst	0x00134900 ; undefined
     2b8:	000f1400 	.inst	0x000f1400 ; undefined
     2bc:	00000b0b 	udf	#2827
     2c0:	03011315 	.inst	0x03011315 ; undefined
     2c4:	3a0b0b0e 	.inst	0x3a0b0b0e ; undefined
     2c8:	390b3b0b 	strb	w11, [x24, #718]
     2cc:	0013010b 	.inst	0x0013010b ; undefined
     2d0:	012e1600 	.inst	0x012e1600 ; undefined
     2d4:	0e03193f 	uzp1	v31.8b, v9.8b, v3.8b
     2d8:	0b3b0b3a 	add	w26, w25, w27, uxtb #2
     2dc:	13490b39 	.inst	0x13490b39 ; undefined
     2e0:	1301193c 	sbfx	w28, w9, #1, #6
     2e4:	2e170000 	ext	v0.8b, v0.8b, v23.8b, #0
     2e8:	03193f01 	.inst	0x03193f01 ; undefined
     2ec:	3b0b3a0e 	.inst	0x3b0b3a0e ; undefined
     2f0:	270b390b 	.inst	0x270b390b ; undefined
     2f4:	12011119 	and	w25, w8, #0x8000000f
     2f8:	7a184007 	.inst	0x7a184007 ; undefined
     2fc:	00130119 	.inst	0x00130119 ; undefined
     300:	00051800 	.inst	0x00051800 ; undefined
     304:	0b3a0803 	add	w3, w0, w26, uxtb #2
     308:	0b390b3b 	add	w27, w25, w25, uxtb #2
     30c:	18021349 	ldr	w9, 4574 <_start-0x7ba8c>
     310:	2e190000 	ext	v0.8b, v0.8b, v25.8b, #0
     314:	03193f01 	.inst	0x03193f01 ; undefined
     318:	3b0b3a0e 	.inst	0x3b0b3a0e ; undefined
     31c:	490b390b 	.inst	0x490b390b ; undefined
     320:	00193c13 	.inst	0x00193c13 ; undefined
     324:	012e1a00 	.inst	0x012e1a00 ; undefined
     328:	0e03193f 	uzp1	v31.8b, v9.8b, v3.8b
     32c:	0b3b0b3a 	add	w26, w25, w27, uxtb #2
     330:	19270b39 	.inst	0x19270b39 ; undefined
     334:	01111349 	.inst	0x01111349 ; undefined
     338:	18400712 	ldr	w18, 80418 <exit+0x3a4>
     33c:	0000197a 	udf	#6522
     340:	00050100 	.inst	0x00050100 ; undefined
     344:	00001349 	udf	#4937
     348:	03003402 	.inst	0x03003402 ; undefined
     34c:	01213a0e 	.inst	0x01213a0e ; undefined
     350:	0b390b3b 	add	w27, w25, w25, uxtb #2
     354:	18021349 	ldr	w9, 45bc <_start-0x7ba44>
     358:	34030000 	cbz	w0, 6358 <_start-0x79ca8>
     35c:	3a080300 	adcs	w0, w24, w8
     360:	0b3b0121 	add	w1, w9, w27, uxtb
     364:	13490b39 	.inst	0x13490b39 ; undefined
     368:	00001802 	udf	#6146
     36c:	0b002404 	add	w4, w0, w0, lsl #9
     370:	030b3e0b 	.inst	0x030b3e0b ; undefined
     374:	0500000e 	orr	z14.s, z14.s, #0x1
     378:	193f012e 	.inst	0x193f012e ; undefined
     37c:	0b3a0e03 	add	w3, w16, w26, uxtb #3
     380:	0b390b3b 	add	w27, w25, w25, uxtb #2
     384:	13491927 	.inst	0x13491927 ; undefined
     388:	1301193c 	sbfx	w28, w9, #1, #6
     38c:	01060000 	.inst	0x01060000 ; undefined
     390:	01134901 	.inst	0x01134901 ; undefined
     394:	07000013 	.inst	0x07000013 ; undefined
     398:	193f012e 	.inst	0x193f012e ; undefined
     39c:	213a0e03 	.inst	0x213a0e03 ; undefined
     3a0:	390b3b01 	strb	w1, [x24, #718]
     3a4:	19270621 	.inst	0x19270621 ; undefined
     3a8:	07120111 	.inst	0x07120111 ; undefined
     3ac:	197c1840 	.inst	0x197c1840 ; undefined
     3b0:	00001301 	udf	#4865
     3b4:	0b000f08 	add	w8, w24, w0, lsl #3
     3b8:	13490821 	.inst	0x13490821 ; undefined
     3bc:	18090000 	ldr	w0, 123bc <_start-0x6dc44>
     3c0:	0a000000 	and	w0, w0, w0
     3c4:	193f012e 	.inst	0x193f012e ; undefined
     3c8:	0b3a0e03 	add	w3, w16, w26, uxtb #3
     3cc:	21390b3b 	.inst	0x21390b3b ; undefined
     3d0:	3c192706 	str	b6, [x24], #-110
     3d4:	00130119 	.inst	0x00130119 ; undefined
     3d8:	00210b00 	.inst	0x00210b00 ; NYI
     3dc:	0b2f1349 	add	w9, w26, w15, uxtb #4
     3e0:	050c0000 	.inst	0x050c0000 ; undefined
     3e4:	3a0e0300 	adcs	w0, w24, w14
     3e8:	0b3b0121 	add	w1, w9, w27, uxtb
     3ec:	13490b39 	.inst	0x13490b39 ; undefined
     3f0:	00001802 	udf	#6146
     3f4:	4900210d 	.inst	0x4900210d ; undefined
     3f8:	00182f13 	.inst	0x00182f13 ; undefined
     3fc:	00160e00 	.inst	0x00160e00 ; undefined
     400:	0b3a0e03 	add	w3, w16, w26, uxtb #3
     404:	0b390b3b 	add	w27, w25, w25, uxtb #2
     408:	00001349 	udf	#4937
     40c:	0300050f 	.inst	0x0300050f ; undefined
     410:	01213a08 	.inst	0x01213a08 ; undefined
     414:	0b390b3b 	add	w27, w25, w25, uxtb #2
     418:	18021349 	ldr	w9, 4680 <_start-0x7b980>
     41c:	0b100000 	add	w0, w0, w16
     420:	12011101 	and	w1, w8, #0x8000000f
     424:	11000007 	add	w7, w0, #0x0
     428:	193f012e 	.inst	0x193f012e ; undefined
     42c:	213a0e03 	.inst	0x213a0e03 ; undefined
     430:	390b3b06 	strb	w6, [x24, #718]
     434:	193c0621 	.inst	0x193c0621 ; undefined
     438:	00001301 	udf	#4865
     43c:	25011112 	cmpgt	p2.b, p4/z, z8.b, #1
     440:	030b130e 	.inst	0x030b130e ; undefined
     444:	111f1b1f 	add	wsp, w24, #0x7c6
     448:	10071201 	adr	x1, e688 <_start-0x71978>
     44c:	13000017 	sbfx	w23, w0, #0, #1
     450:	0b0b0024 	add	w4, w1, w11
     454:	08030b3e 	stxrb	w3, w30, [x25]
     458:	26140000 	.inst	0x26140000 ; undefined
     45c:	00134900 	.inst	0x00134900 ; undefined
     460:	000f1500 	.inst	0x000f1500 ; undefined
     464:	00000b0b 	udf	#2827
     468:	01011516 	.inst	0x01011516 ; undefined
     46c:	17000013 	b	fffffffffc0004b8 <e0stackend+0xfffffffffbe1d4f8>
     470:	193f012e 	.inst	0x193f012e ; undefined
     474:	0b3a0e03 	add	w3, w16, w26, uxtb #3
     478:	0b390b3b 	add	w27, w25, w25, uxtb #2
     47c:	193c1349 	.inst	0x193c1349 ; undefined
     480:	00001301 	udf	#4865
     484:	3f012e18 	.inst	0x3f012e18 ; undefined
     488:	3a080319 	adcs	w25, w24, w8
     48c:	390b3b0b 	strb	w11, [x24, #718]
     490:	1201110b 	and	w11, w8, #0x8000000f
     494:	7c184007 	stur	h7, [x0, #-124]
     498:	00130119 	.inst	0x00130119 ; undefined
     49c:	002e1900 	.inst	0x002e1900 ; NYI
     4a0:	0e03193f 	uzp1	v31.8b, v9.8b, v3.8b
     4a4:	0b3b0b3a 	add	w26, w25, w27, uxtb #2
     4a8:	01110b39 	.inst	0x01110b39 ; undefined
     4ac:	18400712 	ldr	w18, 8058c <exit+0x518>
     4b0:	0000197c 	udf	#6524
     4b4:	11010b1a 	add	w26, w24, #0x42
     4b8:	01071201 	.inst	0x01071201 ; undefined
     4bc:	1b000013 	madd	w19, w0, w0, w0
     4c0:	13490101 	.inst	0x13490101 ; undefined
     4c4:	01000000 	.inst	0x01000000 ; undefined
     4c8:	08030005 	stxrb	w3, w5, [x0]
     4cc:	3b01213a 	.inst	0x3b01213a ; undefined
     4d0:	490b390b 	.inst	0x490b390b ; undefined
     4d4:	00180213 	.inst	0x00180213 ; undefined
     4d8:	00240200 	.inst	0x00240200 ; NYI
     4dc:	0b3e0b0b 	add	w11, w24, w30, uxtb #2
     4e0:	00000e03 	udf	#3587
     4e4:	49000503 	.inst	0x49000503 ; undefined
     4e8:	04000013 	add	z19.b, p0/m, z19.b, z0.b
     4ec:	00000018 	udf	#24
     4f0:	3f012e05 	.inst	0x3f012e05 ; undefined
     4f4:	3a0e0319 	adcs	w25, w24, w14
     4f8:	390b3b0b 	strb	w11, [x24, #718]
     4fc:	193c0621 	.inst	0x193c0621 ; undefined
     500:	00001301 	udf	#4865
     504:	3f012e06 	.inst	0x3f012e06 ; undefined
     508:	3a0e0319 	adcs	w25, w24, w14
     50c:	390b3b0b 	strb	w11, [x24, #718]
     510:	19270621 	.inst	0x19270621 ; undefined
     514:	1301193c 	sbfx	w28, w9, #1, #6
     518:	16070000 	b	fffffffff81c0518 <e0stackend+0xfffffffff7fdd558>
     51c:	3a0e0300 	adcs	w0, w24, w14
     520:	390b3b0b 	strb	w11, [x24, #718]
     524:	0013490b 	.inst	0x0013490b ; undefined
     528:	000f0800 	.inst	0x000f0800 ; undefined
     52c:	4908210b 	.inst	0x4908210b ; undefined
     530:	09000013 	.inst	0x09000013 ; undefined
     534:	08030034 	stxrb	w3, w20, [x1]
     538:	3b01213a 	.inst	0x3b01213a ; undefined
     53c:	0721390b 	.inst	0x0721390b ; undefined
     540:	18021349 	ldr	w9, 47a8 <_start-0x7b858>
     544:	110a0000 	add	w0, w0, #0x280
     548:	130e2501 	sbfiz	w1, w8, #18, #10
     54c:	1b1f030b 	madd	w11, w24, wzr, w0
     550:	1201111f 	and	wsp, w8, #0x8000000f
     554:	00171007 	.inst	0x00171007 ; undefined
     558:	00240b00 	.inst	0x00240b00 ; NYI
     55c:	0b3e0b0b 	add	w11, w24, w30, uxtb #2
     560:	00000803 	udf	#2051
     564:	0b000f0c 	add	w12, w24, w0, lsl #3
     568:	0d00000b 	st1	{v11.b}[0], [x0]
     56c:	13010115 	sbfiz	w21, w8, #31, #1
     570:	340e0000 	cbz	w0, 1c570 <_start-0x63a90>
     574:	3a0e0300 	adcs	w0, w24, w14
     578:	390b3b0b 	strb	w11, [x24, #718]
     57c:	3f13490b 	.inst	0x3f13490b ; undefined
     580:	00180219 	.inst	0x00180219 ; undefined
     584:	012e0f00 	.inst	0x012e0f00 ; undefined
     588:	0803193f 	stxrb	w3, wzr, [x9]
     58c:	0b3b0b3a 	add	w26, w25, w27, uxtb #2
     590:	193c0b39 	.inst	0x193c0b39 ; undefined
     594:	00001301 	udf	#4865
     598:	3f002e10 	.inst	0x3f002e10 ; undefined
     59c:	3a0e0319 	adcs	w25, w24, w14
     5a0:	390b3b0b 	strb	w11, [x24, #718]
     5a4:	3c19270b 	str	b11, [x24], #-110
     5a8:	11000019 	add	w25, w0, #0x0
     5ac:	193f012e 	.inst	0x193f012e ; undefined
     5b0:	0b3a0e03 	add	w3, w16, w26, uxtb #3
     5b4:	0b390b3b 	add	w27, w25, w25, uxtb #2
     5b8:	13491927 	.inst	0x13491927 ; undefined
     5bc:	1301193c 	sbfx	w28, w9, #1, #6
     5c0:	2e120000 	ext	v0.8b, v0.8b, v18.8b, #0
     5c4:	03193f01 	.inst	0x03193f01 ; undefined
     5c8:	3b0b3a0e 	.inst	0x3b0b3a0e ; undefined
     5cc:	270b390b 	.inst	0x270b390b ; undefined
     5d0:	11134919 	add	w25, w8, #0x4d2
     5d4:	40071201 	.inst	0x40071201 ; undefined
     5d8:	01197c18 	.inst	0x01197c18 ; undefined
     5dc:	13000013 	sbfx	w19, w0, #0, #1
     5e0:	193f012e 	.inst	0x193f012e ; undefined
     5e4:	0b3a0e03 	add	w3, w16, w26, uxtb #3
     5e8:	0b390b3b 	add	w27, w25, w25, uxtb #2
     5ec:	13491927 	.inst	0x13491927 ; undefined
     5f0:	07120111 	.inst	0x07120111 ; undefined
     5f4:	197a1840 	.inst	0x197a1840 ; undefined
     5f8:	01000000 	.inst	0x01000000 ; undefined
     5fc:	13490005 	.inst	0x13490005 ; undefined
     600:	34020000 	cbz	w0, 4600 <_start-0x7ba00>
     604:	3a0e0300 	adcs	w0, w24, w14
     608:	0b3b0121 	add	w1, w9, w27, uxtb
     60c:	13490b39 	.inst	0x13490b39 ; undefined
     610:	00001802 	udf	#6146
     614:	03003403 	.inst	0x03003403 ; undefined
     618:	01213a08 	.inst	0x01213a08 ; undefined
     61c:	0b390b3b 	add	w27, w25, w25, uxtb #2
     620:	18021349 	ldr	w9, 4888 <_start-0x7b778>
     624:	24040000 	cmphs	p0.b, p0/z, z0.b, z4.b
     628:	3e0b0b00 	.inst	0x3e0b0b00 ; undefined
     62c:	000e030b 	.inst	0x000e030b ; undefined
     630:	012e0500 	.inst	0x012e0500 ; undefined
     634:	0e03193f 	uzp1	v31.8b, v9.8b, v3.8b
     638:	0b3b0b3a 	add	w26, w25, w27, uxtb #2
     63c:	19270b39 	.inst	0x19270b39 ; undefined
     640:	193c1349 	.inst	0x193c1349 ; undefined
     644:	00001301 	udf	#4865
     648:	3f012e06 	.inst	0x3f012e06 ; undefined
     64c:	3a0e0319 	adcs	w25, w24, w14
     650:	390b3b0b 	strb	w11, [x24, #718]
     654:	19270621 	.inst	0x19270621 ; undefined
     658:	1301193c 	sbfx	w28, w9, #1, #6
     65c:	21070000 	.inst	0x21070000 ; undefined
     660:	2f134900 	.inst	0x2f134900 ; undefined
     664:	0800000b 	stxrb	w0, w11, [x0]
     668:	0111010b 	.inst	0x0111010b ; undefined
     66c:	13010712 	sbfx	w18, w24, #1, #1
     670:	0f090000 	.inst	0x0f090000 ; undefined
     674:	08210b00 	.inst	0x08210b00 ; undefined
     678:	00001349 	udf	#4937
     67c:	0000180a 	udf	#6154
     680:	012e0b00 	.inst	0x012e0b00 ; undefined
     684:	0e03193f 	uzp1	v31.8b, v9.8b, v3.8b
     688:	3b01213a 	.inst	0x3b01213a ; undefined
     68c:	0521390b 	.inst	0x0521390b ; undefined
     690:	13491927 	.inst	0x13491927 ; undefined
     694:	07120111 	.inst	0x07120111 ; undefined
     698:	197c1840 	.inst	0x197c1840 ; undefined
     69c:	00001301 	udf	#4865
     6a0:	0300050c 	.inst	0x0300050c ; undefined
     6a4:	01213a0e 	.inst	0x01213a0e ; undefined
     6a8:	0b390b3b 	add	w27, w25, w25, uxtb #2
     6ac:	18021349 	ldr	w9, 4914 <_start-0x7b6ec>
     6b0:	010d0000 	.inst	0x010d0000 ; undefined
     6b4:	01134901 	.inst	0x01134901 ; undefined
     6b8:	0e000013 	tbl	v19.8b, {v0.16b}, v0.8b
     6bc:	0111010b 	.inst	0x0111010b ; undefined
     6c0:	00000712 	udf	#1810
     6c4:	2501110f 	cmpge	p15.b, p4/z, z8.b, #1
     6c8:	030b130e 	.inst	0x030b130e ; undefined
     6cc:	111f1b1f 	add	wsp, w24, #0x7c6
     6d0:	10071201 	adr	x1, e910 <_start-0x716f0>
     6d4:	10000017 	adr	x23, 6d4 <_start-0x7f92c>
     6d8:	0b0b0024 	add	w4, w1, w11
     6dc:	08030b3e 	stxrb	w3, w30, [x25]
     6e0:	16110000 	b	fffffffff84406e0 <e0stackend+0xfffffffff825d720>
     6e4:	3a0e0300 	adcs	w0, w24, w14
     6e8:	390b3b0b 	strb	w11, [x24, #718]
     6ec:	0013490b 	.inst	0x0013490b ; undefined
     6f0:	00261200 	.inst	0x00261200 ; NYI
     6f4:	00001349 	udf	#4937
     6f8:	0b000f13 	add	w19, w24, w0, lsl #3
     6fc:	1400000b 	b	728 <_start-0x7f8d8>
     700:	193f012e 	.inst	0x193f012e ; undefined
     704:	0b3a0803 	add	w3, w0, w26, uxtb #2
     708:	0b390b3b 	add	w27, w25, w25, uxtb #2
     70c:	193c1927 	.inst	0x193c1927 ; undefined
     710:	00001301 	udf	#4865
     714:	3f012e15 	.inst	0x3f012e15 ; undefined
     718:	3a0e0319 	adcs	w25, w24, w14
     71c:	390b3b0b 	strb	w11, [x24, #718]
     720:	3c13490b 	.inst	0x3c13490b ; undefined
     724:	00130119 	.inst	0x00130119 ; undefined
     728:	012e1600 	.inst	0x012e1600 ; undefined
     72c:	0e03193f 	uzp1	v31.8b, v9.8b, v3.8b
     730:	0b3b0b3a 	add	w26, w25, w27, uxtb #2
     734:	13490b39 	.inst	0x13490b39 ; undefined
     738:	07120111 	.inst	0x07120111 ; undefined
     73c:	197c1840 	.inst	0x197c1840 ; undefined
     740:	00001301 	udf	#4865
     744:	3f012e17 	.inst	0x3f012e17 ; undefined
     748:	3a0e0319 	adcs	w25, w24, w14
     74c:	390b3b0b 	strb	w11, [x24, #718]
     750:	1119270b 	add	w11, w24, #0x649
     754:	40071201 	.inst	0x40071201 ; undefined
     758:	01197c18 	.inst	0x01197c18 ; undefined
     75c:	18000013 	ldr	w19, 75c <_start-0x7f8a4>
     760:	13490101 	.inst	0x13490101 ; undefined
     764:	01000000 	.inst	0x01000000 ; undefined
     768:	0b0b0024 	add	w4, w1, w11
     76c:	0e030b3e 	.inst	0x0e030b3e ; undefined
     770:	18020000 	ldr	w0, 4770 <_start-0x7b890>
     774:	03000000 	.inst	0x03000000 ; undefined
     778:	0e030034 	tbl	v20.8b, {v1.16b}, v3.8b
     77c:	3b01213a 	.inst	0x3b01213a ; undefined
     780:	490b390b 	.inst	0x490b390b ; undefined
     784:	00180213 	.inst	0x00180213 ; undefined
     788:	00340400 	.inst	0x00340400 ; NYI
     78c:	213a0803 	.inst	0x213a0803 ; undefined
     790:	390b3b01 	strb	w1, [x24, #718]
     794:	0213490b 	.inst	0x0213490b ; undefined
     798:	05000018 	orr	z24.s, z24.s, #0x1
     79c:	210b000f 	.inst	0x210b000f ; undefined
     7a0:	00134908 	.inst	0x00134908 ; undefined
     7a4:	00050600 	.inst	0x00050600 ; undefined
     7a8:	00001349 	udf	#4937
     7ac:	03000507 	.inst	0x03000507 ; undefined
     7b0:	01213a08 	.inst	0x01213a08 ; undefined
     7b4:	0b390b3b 	add	w27, w25, w25, uxtb #2
     7b8:	18021349 	ldr	w9, 4a20 <_start-0x7b5e0>
     7bc:	05080000 	.inst	0x05080000 ; undefined
     7c0:	3a0e0300 	adcs	w0, w24, w14
     7c4:	0b3b0121 	add	w1, w9, w27, uxtb
     7c8:	13490b39 	.inst	0x13490b39 ; undefined
     7cc:	00001802 	udf	#6146
     7d0:	25011109 	cmpge	p9.b, p4/z, z8.b, #1
     7d4:	030b130e 	.inst	0x030b130e ; undefined
     7d8:	111f1b1f 	add	wsp, w24, #0x7c6
     7dc:	10071201 	adr	x1, ea1c <_start-0x715e4>
     7e0:	0a000017 	and	w23, w0, w0
     7e4:	0b0b0024 	add	w4, w1, w11
     7e8:	08030b3e 	stxrb	w3, w30, [x25]
     7ec:	160b0000 	b	fffffffff82c07ec <e0stackend+0xfffffffff80dd82c>
     7f0:	3a0e0300 	adcs	w0, w24, w14
     7f4:	390b3b0b 	strb	w11, [x24, #718]
     7f8:	0013490b 	.inst	0x0013490b ; undefined
     7fc:	01150c00 	.inst	0x01150c00 ; undefined
     800:	00001301 	udf	#4865
     804:	3f012e0d 	.inst	0x3f012e0d ; undefined
     808:	3a0e0319 	adcs	w25, w24, w14
     80c:	390b3b0b 	strb	w11, [x24, #718]
     810:	01193c0b 	.inst	0x01193c0b ; undefined
     814:	0e000013 	tbl	v19.8b, {v0.16b}, v0.8b
     818:	193f012e 	.inst	0x193f012e ; undefined
     81c:	0b3a0e03 	add	w3, w16, w26, uxtb #3
     820:	0b390b3b 	add	w27, w25, w25, uxtb #2
     824:	193c1927 	.inst	0x193c1927 ; undefined
     828:	00001301 	udf	#4865
     82c:	3f012e0f 	.inst	0x3f012e0f ; undefined
     830:	3a0e0319 	adcs	w25, w24, w14
     834:	390b3b0b 	strb	w11, [x24, #718]
     838:	3c13490b 	.inst	0x3c13490b ; undefined
     83c:	00130119 	.inst	0x00130119 ; undefined
     840:	012e1000 	.inst	0x012e1000 ; undefined
     844:	0e03193f 	uzp1	v31.8b, v9.8b, v3.8b
     848:	0b3b0b3a 	add	w26, w25, w27, uxtb #2
     84c:	19270b39 	.inst	0x19270b39 ; undefined
     850:	07120111 	.inst	0x07120111 ; undefined
     854:	197c1840 	.inst	0x197c1840 ; undefined
     858:	00001301 	udf	#4865
     85c:	3f012e11 	.inst	0x3f012e11 ; undefined
     860:	3a0e0319 	adcs	w25, w24, w14
     864:	390b3b0b 	strb	w11, [x24, #718]
     868:	1119270b 	add	w11, w24, #0x649
     86c:	40071201 	.inst	0x40071201 ; undefined
     870:	00197c18 	.inst	0x00197c18 ; undefined
     874:	010b1200 	.inst	0x010b1200 ; undefined
     878:	07120111 	.inst	0x07120111 ; undefined
     87c:	01000000 	.inst	0x01000000 ; undefined
     880:	0b0b0024 	add	w4, w1, w11
     884:	0e030b3e 	.inst	0x0e030b3e ; undefined
     888:	18020000 	ldr	w0, 4888 <_start-0x7b778>
     88c:	03000000 	.inst	0x03000000 ; undefined
     890:	13490005 	.inst	0x13490005 ; undefined
     894:	2e040000 	ext	v0.8b, v0.8b, v4.8b, #0
     898:	03193f01 	.inst	0x03193f01 ; undefined
     89c:	3b0b3a0e 	.inst	0x3b0b3a0e ; undefined
     8a0:	490b390b 	.inst	0x490b390b ; undefined
     8a4:	01193c13 	.inst	0x01193c13 ; undefined
     8a8:	05000013 	orr	z19.s, z19.s, #0x1
     8ac:	08030034 	stxrb	w3, w20, [x1]
     8b0:	3b01213a 	.inst	0x3b01213a ; undefined
     8b4:	490b390b 	.inst	0x490b390b ; undefined
     8b8:	00180213 	.inst	0x00180213 ; undefined
     8bc:	010b0600 	.inst	0x010b0600 ; undefined
     8c0:	07120111 	.inst	0x07120111 ; undefined
     8c4:	2e070000 	ext	v0.8b, v0.8b, v7.8b, #0
     8c8:	03193f01 	.inst	0x03193f01 ; undefined
     8cc:	01213a0e 	.inst	0x01213a0e ; undefined
     8d0:	21390b3b 	.inst	0x21390b3b ; undefined
     8d4:	12011106 	and	w6, w8, #0x8000000f
     8d8:	7c184007 	stur	h7, [x0, #-124]
     8dc:	00130119 	.inst	0x00130119 ; undefined
     8e0:	00340800 	.inst	0x00340800 ; NYI
     8e4:	213a0e03 	.inst	0x213a0e03 ; undefined
     8e8:	390b3b01 	strb	w1, [x24, #718]
     8ec:	13490821 	.inst	0x13490821 ; undefined
     8f0:	00001802 	udf	#6146
     8f4:	0b000f09 	add	w9, w24, w0, lsl #3
     8f8:	13490821 	.inst	0x13490821 ; undefined
     8fc:	2e0a0000 	ext	v0.8b, v0.8b, v10.8b, #0
     900:	03193f01 	.inst	0x03193f01 ; undefined
     904:	02213a0e 	.inst	0x02213a0e ; undefined
     908:	21390b3b 	.inst	0x21390b3b ; undefined
     90c:	3c192706 	str	b6, [x24], #-110
     910:	00130119 	.inst	0x00130119 ; undefined
     914:	012e0b00 	.inst	0x012e0b00 ; undefined
     918:	0e03193f 	uzp1	v31.8b, v9.8b, v3.8b
     91c:	0b3b0b3a 	add	w26, w25, w27, uxtb #2
     920:	3c062139 	stur	b25, [x9, #98]
     924:	00130119 	.inst	0x00130119 ; undefined
     928:	012e0c00 	.inst	0x012e0c00 ; undefined
     92c:	0e03193f 	uzp1	v31.8b, v9.8b, v3.8b
     930:	3b05213a 	.inst	0x3b05213a ; undefined
     934:	0521390b 	.inst	0x0521390b ; undefined
     938:	13491927 	.inst	0x13491927 ; undefined
     93c:	1301193c 	sbfx	w28, w9, #1, #6
     940:	2e0d0000 	ext	v0.8b, v0.8b, v13.8b, #0
     944:	03193f01 	.inst	0x03193f01 ; undefined
     948:	01213a0e 	.inst	0x01213a0e ; undefined
     94c:	21390b3b 	.inst	0x21390b3b ; undefined
     950:	3c134913 	.inst	0x3c134913 ; undefined
     954:	0e000019 	tbl	v25.8b, {v0.16b}, v0.8b
     958:	0e250111 	saddl	v17.8h, v8.8b, v5.8b
     95c:	1f030b13 	fmadd	s19, s24, s3, s2
     960:	01111f1b 	.inst	0x01111f1b ; undefined
     964:	17100712 	b	fffffffffc4025ac <e0stackend+0xfffffffffc21f5ec>
     968:	240f0000 	cmphs	p0.b, p0/z, z0.b, z15.b
     96c:	3e0b0b00 	.inst	0x3e0b0b00 ; undefined
     970:	0008030b 	.inst	0x0008030b ; undefined
     974:	00161000 	.inst	0x00161000 ; undefined
     978:	0b3a0e03 	add	w3, w16, w26, uxtb #3
     97c:	0b390b3b 	add	w27, w25, w25, uxtb #2
     980:	00001349 	udf	#4937
     984:	49002611 	.inst	0x49002611 ; undefined
     988:	12000013 	and	w19, w0, #0x1
     98c:	08030034 	stxrb	w3, w20, [x1]
     990:	0b3b0b3a 	add	w26, w25, w27, uxtb #2
     994:	13490b39 	.inst	0x13490b39 ; undefined
     998:	2e130000 	ext	v0.8b, v0.8b, v19.8b, #0
     99c:	03193f01 	.inst	0x03193f01 ; undefined
     9a0:	3b0b3a0e 	.inst	0x3b0b3a0e ; undefined
     9a4:	110b390b 	add	w11, w8, #0x2ce
     9a8:	40071201 	.inst	0x40071201 ; undefined
     9ac:	00197c18 	.inst	0x00197c18 ; undefined
     9b0:	34010000 	cbz	w0, 29b0 <_start-0x7d650>
     9b4:	3a0e0300 	adcs	w0, w24, w14
     9b8:	0b3b0121 	add	w1, w9, w27, uxtb
     9bc:	13490b39 	.inst	0x13490b39 ; undefined
     9c0:	00001802 	udf	#6146
     9c4:	03000502 	.inst	0x03000502 ; undefined
     9c8:	01213a0e 	.inst	0x01213a0e ; undefined
     9cc:	0b390b3b 	add	w27, w25, w25, uxtb #2
     9d0:	18021349 	ldr	w9, 4c38 <_start-0x7b3c8>
     9d4:	24030000 	cmphs	p0.b, p0/z, z0.b, z3.b
     9d8:	3e0b0b00 	.inst	0x3e0b0b00 ; undefined
     9dc:	000e030b 	.inst	0x000e030b ; undefined
     9e0:	00340400 	.inst	0x00340400 ; NYI
     9e4:	213a0803 	.inst	0x213a0803 ; undefined
     9e8:	390b3b01 	strb	w1, [x24, #718]
     9ec:	0213490b 	.inst	0x0213490b ; undefined
     9f0:	05000018 	orr	z24.s, z24.s, #0x1
     9f4:	13490026 	.inst	0x13490026 ; undefined
     9f8:	05060000 	.inst	0x05060000 ; undefined
     9fc:	3a080300 	adcs	w0, w24, w8
     a00:	0b3b0121 	add	w1, w9, w27, uxtb
     a04:	13490b39 	.inst	0x13490b39 ; undefined
     a08:	00001802 	udf	#6146
     a0c:	03001607 	.inst	0x03001607 ; undefined
     a10:	3b0b3a0e 	.inst	0x3b0b3a0e ; undefined
     a14:	490b390b 	.inst	0x490b390b ; undefined
     a18:	08000013 	stxrb	w0, w19, [x0]
     a1c:	0e03000d 	tbl	v13.8b, {v0.16b}, v3.8b
     a20:	0b381349 	add	w9, w26, w24, uxtb #4
     a24:	00001934 	udf	#6452
     a28:	49010109 	.inst	0x49010109 ; undefined
     a2c:	00130113 	.inst	0x00130113 ; undefined
     a30:	00210a00 	.inst	0x00210a00 ; NYI
     a34:	0b2f1349 	add	w9, w26, w15, uxtb #4
     a38:	050b0000 	.inst	0x050b0000 ; undefined
     a3c:	00134900 	.inst	0x00134900 ; undefined
     a40:	012e0c00 	.inst	0x012e0c00 ; undefined
     a44:	0e03193f 	uzp1	v31.8b, v9.8b, v3.8b
     a48:	3b01213a 	.inst	0x3b01213a ; undefined
     a4c:	0621390b 	.inst	0x0621390b ; undefined
     a50:	01111927 	.inst	0x01111927 ; undefined
     a54:	18400712 	ldr	w18, 80b34 <strcat_cust+0x2c>
     a58:	1301197c 	sbfx	w28, w11, #1, #6
     a5c:	2e0d0000 	ext	v0.8b, v0.8b, v13.8b, #0
     a60:	03193f01 	.inst	0x03193f01 ; undefined
     a64:	01213a0e 	.inst	0x01213a0e ; undefined
     a68:	0b390b3b 	add	w27, w25, w25, uxtb #2
     a6c:	13491927 	.inst	0x13491927 ; undefined
     a70:	07120111 	.inst	0x07120111 ; undefined
     a74:	197a1840 	.inst	0x197a1840 ; undefined
     a78:	00001301 	udf	#4865
     a7c:	0b000f0e 	add	w14, w24, w0, lsl #3
     a80:	13490821 	.inst	0x13490821 ; undefined
     a84:	340f0000 	cbz	w0, 1ea84 <_start-0x6157c>
     a88:	3a0e0300 	adcs	w0, w24, w14
     a8c:	053b0121 	ext	z1.b, z1.b, z9.b, #216
     a90:	13490b39 	.inst	0x13490b39 ; undefined
     a94:	00001802 	udf	#6146
     a98:	3f002e10 	.inst	0x3f002e10 ; undefined
     a9c:	3a0e0319 	adcs	w25, w24, w14
     aa0:	053b0121 	ext	z1.b, z1.b, z9.b, #216
     aa4:	11062139 	add	w25, w9, #0x188
     aa8:	40071201 	.inst	0x40071201 ; undefined
     aac:	00197c18 	.inst	0x00197c18 ; undefined
     ab0:	012e1100 	.inst	0x012e1100 ; undefined
     ab4:	0e03193f 	uzp1	v31.8b, v9.8b, v3.8b
     ab8:	3b01213a 	.inst	0x3b01213a ; undefined
     abc:	0a213905 	bic	w5, w8, w1, lsl #14
     ac0:	01111349 	.inst	0x01111349 ; undefined
     ac4:	18400712 	ldr	w18, 80ba4 <parse_char_arr+0x4>
     ac8:	1301197a 	sbfx	w26, w11, #1, #6
     acc:	34120000 	cbz	w0, 24acc <_start-0x5b534>
     ad0:	3a080300 	adcs	w0, w24, w8
     ad4:	053b0121 	ext	z1.b, z1.b, z9.b, #216
     ad8:	490c2139 	.inst	0x490c2139 ; undefined
     adc:	00180213 	.inst	0x00180213 ; undefined
     ae0:	012e1300 	.inst	0x012e1300 ; undefined
     ae4:	0e03193f 	uzp1	v31.8b, v9.8b, v3.8b
     ae8:	3b01213a 	.inst	0x3b01213a ; undefined
     aec:	0621390b 	.inst	0x0621390b ; undefined
     af0:	01111927 	.inst	0x01111927 ; undefined
     af4:	18400712 	ldr	w18, 80bd4 <parsestring+0x18>
     af8:	1301197a 	sbfx	w26, w11, #1, #6
     afc:	11140000 	add	w0, w0, #0x500
     b00:	130e2501 	sbfiz	w1, w8, #18, #10
     b04:	1b1f030b 	madd	w11, w24, wzr, w0
     b08:	1201111f 	and	wsp, w8, #0x8000000f
     b0c:	00171007 	.inst	0x00171007 ; undefined
     b10:	00241500 	.inst	0x00241500 ; NYI
     b14:	0b3e0b0b 	add	w11, w24, w30, uxtb #2
     b18:	00000803 	udf	#2051
     b1c:	03011316 	.inst	0x03011316 ; undefined
     b20:	3a0b0b0e 	.inst	0x3a0b0b0e ; undefined
     b24:	010b3b0b 	.inst	0x010b3b0b ; undefined
     b28:	17000013 	b	fffffffffc000b74 <e0stackend+0xfffffffffbe1dbb4>
     b2c:	0b0b000f 	add	w15, w0, w11
     b30:	2e180000 	ext	v0.8b, v0.8b, v24.8b, #0
     b34:	03193f01 	.inst	0x03193f01 ; undefined
     b38:	3b0b3a08 	.inst	0x3b0b3a08 ; undefined
     b3c:	270b390b 	.inst	0x270b390b ; undefined
     b40:	01193c19 	.inst	0x01193c19 ; undefined
     b44:	19000013 	stlurb	w19, [x0]
     b48:	193f012e 	.inst	0x193f012e ; undefined
     b4c:	0b3a0e03 	add	w3, w16, w26, uxtb #3
     b50:	0b390b3b 	add	w27, w25, w25, uxtb #2
     b54:	193c1927 	.inst	0x193c1927 ; undefined
     b58:	00001301 	udf	#4865
     b5c:	0000181a 	udf	#6170
     b60:	012e1b00 	.inst	0x012e1b00 ; undefined
     b64:	0b3a0e03 	add	w3, w16, w26, uxtb #3
     b68:	0b390b3b 	add	w27, w25, w25, uxtb #2
     b6c:	01111927 	.inst	0x01111927 ; undefined
     b70:	18400712 	ldr	w18, 80c50 <parsestring+0x94>
     b74:	1301197c 	sbfx	w28, w11, #1, #6
     b78:	2e1c0000 	ext	v0.8b, v0.8b, v28.8b, #0
     b7c:	03193f00 	.inst	0x03193f00 ; undefined
     b80:	3b0b3a0e 	.inst	0x3b0b3a0e ; undefined
     b84:	110b390b 	add	w11, w8, #0x2ce
     b88:	40071201 	.inst	0x40071201 ; undefined
     b8c:	00197c18 	.inst	0x00197c18 ; undefined
     b90:	012e1d00 	.inst	0x012e1d00 ; undefined
     b94:	0b3a0e03 	add	w3, w16, w26, uxtb #3
     b98:	0b390b3b 	add	w27, w25, w25, uxtb #2
     b9c:	01111927 	.inst	0x01111927 ; undefined
     ba0:	18400712 	ldr	w18, 80c80 <parsestring+0xc4>
     ba4:	0000197a 	udf	#6522
     ba8:	00340100 	.inst	0x00340100 ; NYI
     bac:	213a0e03 	.inst	0x213a0e03 ; undefined
     bb0:	390b3b01 	strb	w1, [x24, #718]
     bb4:	0213490b 	.inst	0x0213490b ; undefined
     bb8:	02000018 	.inst	0x02000018 ; undefined
     bbc:	13490005 	.inst	0x13490005 ; undefined
     bc0:	05030000 	orr	z0.d, z0.d, #0x100000000
     bc4:	3a0e0300 	adcs	w0, w24, w14
     bc8:	053b0121 	ext	z1.b, z1.b, z9.b, #216
     bcc:	13490b39 	.inst	0x13490b39 ; undefined
     bd0:	00001802 	udf	#6146
     bd4:	03003404 	.inst	0x03003404 ; undefined
     bd8:	01213a08 	.inst	0x01213a08 ; undefined
     bdc:	0b390b3b 	add	w27, w25, w25, uxtb #2
     be0:	18021349 	ldr	w9, 4e48 <_start-0x7b1b8>
     be4:	0d050000 	.inst	0x0d050000 ; undefined
     be8:	3a0e0300 	adcs	w0, w24, w14
     bec:	0b3b0321 	add	w1, w25, w27, uxtb
     bf0:	13490b39 	.inst	0x13490b39 ; undefined
     bf4:	00000b38 	udf	#2872
     bf8:	03003406 	.inst	0x03003406 ; undefined
     bfc:	01213a08 	.inst	0x01213a08 ; undefined
     c00:	0b39053b 	add	w27, w9, w25, uxtb #1
     c04:	18021349 	ldr	w9, 4e6c <_start-0x7b194>
     c08:	24070000 	cmphs	p0.b, p0/z, z0.b, z7.b
     c0c:	3e0b0b00 	.inst	0x3e0b0b00 ; undefined
     c10:	000e030b 	.inst	0x000e030b ; undefined
     c14:	010b0800 	.inst	0x010b0800 ; undefined
     c18:	07120111 	.inst	0x07120111 ; undefined
     c1c:	0f090000 	.inst	0x0f090000 ; undefined
     c20:	08210b00 	.inst	0x08210b00 ; undefined
     c24:	00001349 	udf	#4937
     c28:	0300050a 	.inst	0x0300050a ; undefined
     c2c:	01213a08 	.inst	0x01213a08 ; undefined
     c30:	0b39053b 	add	w27, w9, w25, uxtb #1
     c34:	18021349 	ldr	w9, 4e9c <_start-0x7b164>
     c38:	160b0000 	b	fffffffff82c0c38 <e0stackend+0xfffffffff80ddc78>
     c3c:	3a0e0300 	adcs	w0, w24, w14
     c40:	390b3b0b 	strb	w11, [x24, #718]
     c44:	0013490b 	.inst	0x0013490b ; undefined
     c48:	000d0c00 	.inst	0x000d0c00 ; undefined
     c4c:	213a0e03 	.inst	0x213a0e03 ; undefined
     c50:	390b3b03 	strb	w3, [x24, #718]
     c54:	3813490b 	sttrb	w11, [x8, #-204]
     c58:	0d000005 	st1	{v5.b}[0], [x0]
     c5c:	00000018 	udf	#24
     c60:	3f012e0e 	.inst	0x3f012e0e ; undefined
     c64:	3a0e0319 	adcs	w25, w24, w14
     c68:	053b0121 	ext	z1.b, z1.b, z9.b, #216
     c6c:	27052139 	.inst	0x27052139 ; undefined
     c70:	11134919 	add	w25, w8, #0x4d2
     c74:	40071201 	.inst	0x40071201 ; undefined
     c78:	01197a18 	.inst	0x01197a18 ; undefined
     c7c:	0f000013 	.inst	0x0f000013 ; undefined
     c80:	08030005 	stxrb	w3, w5, [x0]
     c84:	3b01213a 	.inst	0x3b01213a ; undefined
     c88:	490b390b 	.inst	0x490b390b ; undefined
     c8c:	00180213 	.inst	0x00180213 ; undefined
     c90:	00341000 	.inst	0x00341000 ; NYI
     c94:	213a0e03 	.inst	0x213a0e03 ; undefined
     c98:	39053b01 	strb	w1, [x24, #334]
     c9c:	0213490b 	.inst	0x0213490b ; undefined
     ca0:	11000018 	add	w24, w0, #0x0
     ca4:	0803000d 	stxrb	w3, w13, [x0]
     ca8:	3b03213a 	.inst	0x3b03213a ; undefined
     cac:	490b390b 	.inst	0x490b390b ; undefined
     cb0:	000b3813 	.inst	0x000b3813 ; undefined
     cb4:	01011200 	.inst	0x01011200 ; undefined
     cb8:	13011349 	sbfx	w9, w26, #1, #4
     cbc:	21130000 	.inst	0x21130000 ; undefined
     cc0:	2f134900 	.inst	0x2f134900 ; undefined
     cc4:	1400000b 	b	cf0 <_start-0x7f310>
     cc8:	0e030005 	tbl	v5.8b, {v0.16b}, v3.8b
     ccc:	3b01213a 	.inst	0x3b01213a ; undefined
     cd0:	490b390b 	.inst	0x490b390b ; undefined
     cd4:	00180213 	.inst	0x00180213 ; undefined
     cd8:	012e1500 	.inst	0x012e1500 ; undefined
     cdc:	0e03193f 	uzp1	v31.8b, v9.8b, v3.8b
     ce0:	0b3b0b3a 	add	w26, w25, w27, uxtb #2
     ce4:	27062139 	.inst	0x27062139 ; undefined
     ce8:	01193c19 	.inst	0x01193c19 ; undefined
     cec:	16000013 	b	fffffffff8000d38 <e0stackend+0xfffffffff7e1dd78>
     cf0:	0e030113 	tbl	v19.8b, {v8.16b}, v3.8b
     cf4:	213a0b0b 	.inst	0x213a0b0b ; undefined
     cf8:	390b3b03 	strb	w3, [x24, #718]
     cfc:	13010821 	sbfx	w1, w1, #1, #2
     d00:	2e170000 	ext	v0.8b, v0.8b, v23.8b, #0
     d04:	03193f01 	.inst	0x03193f01 ; undefined
     d08:	01213a0e 	.inst	0x01213a0e ; undefined
     d0c:	03c0213b 	.inst	0x03c0213b ; undefined
     d10:	49022139 	.inst	0x49022139 ; undefined
     d14:	01193c13 	.inst	0x01193c13 ; undefined
     d18:	18000013 	ldr	w19, d18 <_start-0x7f2e8>
     d1c:	193f012e 	.inst	0x193f012e ; undefined
     d20:	0b3a0e03 	add	w3, w16, w26, uxtb #3
     d24:	0b390b3b 	add	w27, w25, w25, uxtb #2
     d28:	13491927 	.inst	0x13491927 ; undefined
     d2c:	1301193c 	sbfx	w28, w9, #1, #6
     d30:	2e190000 	ext	v0.8b, v0.8b, v25.8b, #0
     d34:	03193f00 	.inst	0x03193f00 ; undefined
     d38:	01213a0e 	.inst	0x01213a0e ; undefined
     d3c:	2139053b 	.inst	0x2139053b ; undefined
     d40:	11134905 	add	w5, w8, #0x4d2
     d44:	40071201 	.inst	0x40071201 ; undefined
     d48:	00197a18 	.inst	0x00197a18 ; undefined
     d4c:	012e1a00 	.inst	0x012e1a00 ; undefined
     d50:	0e03193f 	uzp1	v31.8b, v9.8b, v3.8b
     d54:	3b01213a 	.inst	0x3b01213a ; undefined
     d58:	06213905 	.inst	0x06213905 ; undefined
     d5c:	07120111 	.inst	0x07120111 ; undefined
     d60:	197c1840 	.inst	0x197c1840 ; undefined
     d64:	00001301 	udf	#4865
     d68:	11010b1b 	add	w27, w24, #0x42
     d6c:	01071201 	.inst	0x01071201 ; undefined
     d70:	1c000013 	ldr	s19, d70 <_start-0x7f290>
     d74:	193f012e 	.inst	0x193f012e ; undefined
     d78:	213a0e03 	.inst	0x213a0e03 ; undefined
     d7c:	390b3b01 	strb	w1, [x24, #718]
     d80:	19270621 	.inst	0x19270621 ; undefined
     d84:	07120111 	.inst	0x07120111 ; undefined
     d88:	197c1840 	.inst	0x197c1840 ; undefined
     d8c:	00001301 	udf	#4865
     d90:	3f012e1d 	.inst	0x3f012e1d ; undefined
     d94:	3a0e0319 	adcs	w25, w24, w14
     d98:	0b3b0121 	add	w1, w9, w27, uxtb
     d9c:	27062139 	.inst	0x27062139 ; undefined
     da0:	12011119 	and	w25, w8, #0x8000000f
     da4:	7a184007 	.inst	0x7a184007 ; undefined
     da8:	00130119 	.inst	0x00130119 ; undefined
     dac:	01111e00 	.inst	0x01111e00 ; undefined
     db0:	0b130e25 	add	w5, w17, w19, lsl #3
     db4:	1f1b1f03 	fmadd	s3, s24, s27, s7
     db8:	07120111 	.inst	0x07120111 ; undefined
     dbc:	00001710 	udf	#5904
     dc0:	0b00241f 	add	wzr, w0, w0, lsl #9
     dc4:	030b3e0b 	.inst	0x030b3e0b ; undefined
     dc8:	20000008 	.inst	0x20000008 ; undefined
     dcc:	13490026 	.inst	0x13490026 ; undefined
     dd0:	13210000 	.inst	0x13210000 ; undefined
     dd4:	0b0e0301 	add	w1, w24, w14
     dd8:	3b0b3a05 	.inst	0x3b0b3a05 ; undefined
     ddc:	010b390b 	.inst	0x010b390b ; undefined
     de0:	22000013 	.inst	0x22000013 ; undefined
     de4:	0b0b000f 	add	w15, w0, w11
     de8:	15230000 	b	48c0de8 <e0stackend+0x46dde28>
     dec:	00130101 	.inst	0x00130101 ; undefined
     df0:	00342400 	.inst	0x00342400 ; NYI
     df4:	0b3a0e03 	add	w3, w16, w26, uxtb #3
     df8:	0b390b3b 	add	w27, w25, w25, uxtb #2
     dfc:	193f1349 	.inst	0x193f1349 ; undefined
     e00:	00001802 	udf	#6146
     e04:	3f012e25 	.inst	0x3f012e25 ; undefined
     e08:	3a0e0319 	adcs	w25, w24, w14
     e0c:	390b3b0b 	strb	w11, [x24, #718]
     e10:	3c13490b 	.inst	0x3c13490b ; undefined
     e14:	00130119 	.inst	0x00130119 ; undefined
     e18:	002e2600 	.inst	0x002e2600 ; NYI
     e1c:	0e03193f 	uzp1	v31.8b, v9.8b, v3.8b
     e20:	053b0b3a 	ext	z26.b, z26.b, z25.b, #218
     e24:	01110b39 	.inst	0x01110b39 ; undefined
     e28:	18400712 	ldr	w18, 80f08 <set_play+0x94>
     e2c:	0000197a 	udf	#6522
     e30:	3f002e27 	.inst	0x3f002e27 ; undefined
     e34:	3a0e0319 	adcs	w25, w24, w14
     e38:	39053b0b 	strb	w11, [x24, #334]
     e3c:	1201110b 	and	w11, w8, #0x8000000f
     e40:	7c184007 	stur	h7, [x0, #-124]
     e44:	28000019 	stnp	w25, w0, [x0]
     e48:	193f012e 	.inst	0x193f012e ; undefined
     e4c:	0b3a0e03 	add	w3, w16, w26, uxtb #3
     e50:	0b39053b 	add	w27, w9, w25, uxtb #1
     e54:	01111927 	.inst	0x01111927 ; undefined
     e58:	18400712 	ldr	w18, 80f38 <set_play+0xc4>
     e5c:	1301197a 	sbfx	w26, w11, #1, #6
     e60:	2e290000 	uaddl	v0.8h, v0.8b, v9.8b
     e64:	03193f01 	.inst	0x03193f01 ; undefined
     e68:	3b0b3a0e 	.inst	0x3b0b3a0e ; undefined
     e6c:	270b3905 	.inst	0x270b3905 ; undefined
     e70:	11134919 	add	w25, w8, #0x4d2
     e74:	40071201 	.inst	0x40071201 ; undefined
     e78:	01197c18 	.inst	0x01197c18 ; undefined
     e7c:	2a000013 	orr	w19, w0, w0
     e80:	193f012e 	.inst	0x193f012e ; undefined
     e84:	0b3a0e03 	add	w3, w16, w26, uxtb #3
     e88:	0b39053b 	add	w27, w9, w25, uxtb #1
     e8c:	01111927 	.inst	0x01111927 ; undefined
     e90:	18400712 	ldr	w18, 80f70 <set_play+0xfc>
     e94:	1301197c 	sbfx	w28, w11, #1, #6
     e98:	2e2b0000 	uaddl	v0.8h, v0.8b, v11.8b
     e9c:	03193f01 	.inst	0x03193f01 ; undefined
     ea0:	3b0b3a0e 	.inst	0x3b0b3a0e ; undefined
     ea4:	110b390b 	add	w11, w8, #0x2ce
     ea8:	40071201 	.inst	0x40071201 ; undefined
     eac:	01197c18 	.inst	0x01197c18 ; undefined
     eb0:	2c000013 	stnp	s19, s0, [x0]
     eb4:	193f012e 	.inst	0x193f012e ; undefined
     eb8:	0b3a0e03 	add	w3, w16, w26, uxtb #3
     ebc:	0b390b3b 	add	w27, w25, w25, uxtb #2
     ec0:	193c1349 	.inst	0x193c1349 ; undefined
     ec4:	2e2d0000 	uaddl	v0.8h, v0.8b, v13.8b
     ec8:	03193f01 	.inst	0x03193f01 ; undefined
     ecc:	3b0b3a0e 	.inst	0x3b0b3a0e ; undefined
     ed0:	270b390b 	.inst	0x270b390b ; undefined
     ed4:	11134919 	add	w25, w8, #0x4d2
     ed8:	40071201 	.inst	0x40071201 ; undefined
     edc:	01197a18 	.inst	0x01197a18 ; undefined
     ee0:	2e000013 	ext	v19.8b, v0.8b, v0.8b, #0
     ee4:	193f012e 	.inst	0x193f012e ; undefined
     ee8:	0b3a0e03 	add	w3, w16, w26, uxtb #3
     eec:	0b390b3b 	add	w27, w25, w25, uxtb #2
     ef0:	01111349 	.inst	0x01111349 ; undefined
     ef4:	18400712 	ldr	w18, 80fd4 <reset_game>
     ef8:	1301197a 	sbfx	w26, w11, #1, #6
     efc:	0b2f0000 	add	w0, w0, w15, uxtb
     f00:	00175501 	.inst	0x00175501 ; undefined
     f04:	012e3000 	.inst	0x012e3000 ; undefined
     f08:	0e03193f 	uzp1	v31.8b, v9.8b, v3.8b
     f0c:	0b3b0b3a 	add	w26, w25, w27, uxtb #2
     f10:	19270b39 	.inst	0x19270b39 ; undefined
     f14:	07120111 	.inst	0x07120111 ; undefined
     f18:	197a1840 	.inst	0x197a1840 ; undefined
     f1c:	01000000 	.inst	0x01000000 ; undefined
     f20:	0b0b0024 	add	w4, w1, w11
     f24:	0e030b3e 	.inst	0x0e030b3e ; undefined
     f28:	34020000 	cbz	w0, 4f28 <_start-0x7b0d8>
     f2c:	3a0e0300 	adcs	w0, w24, w14
     f30:	0b3b0121 	add	w1, w9, w27, uxtb
     f34:	13490b39 	.inst	0x13490b39 ; undefined
     f38:	00001802 	udf	#6146
     f3c:	49002603 	.inst	0x49002603 ; undefined
     f40:	04000013 	add	z19.b, p0/m, z19.b, z0.b
     f44:	08030034 	stxrb	w3, w20, [x1]
     f48:	3b01213a 	.inst	0x3b01213a ; undefined
     f4c:	1821390b 	ldr	w11, 4366c <_start-0x3c994>
     f50:	18021349 	ldr	w9, 51b8 <_start-0x7ae48>
     f54:	11050000 	add	w0, w0, #0x140
     f58:	130e2501 	sbfiz	w1, w8, #18, #10
     f5c:	1b1f030b 	madd	w11, w24, wzr, w0
     f60:	1201111f 	and	wsp, w8, #0x8000000f
     f64:	00171007 	.inst	0x00171007 ; undefined
     f68:	00240600 	.inst	0x00240600 ; NYI
     f6c:	0b3e0b0b 	add	w11, w24, w30, uxtb #2
     f70:	00000803 	udf	#2051
     f74:	03001607 	.inst	0x03001607 ; undefined
     f78:	3b0b3a0e 	.inst	0x3b0b3a0e ; undefined
     f7c:	490b390b 	.inst	0x490b390b ; undefined
     f80:	08000013 	stxrb	w0, w19, [x0]
     f84:	0b0b000f 	add	w15, w0, w11
     f88:	00001349 	udf	#4937
     f8c:	3f012e09 	.inst	0x3f012e09 ; undefined
     f90:	3a0e0319 	adcs	w25, w24, w14
     f94:	390b3b0b 	strb	w11, [x24, #718]
     f98:	1113490b 	add	w11, w8, #0x4d2
     f9c:	40071201 	.inst	0x40071201 ; undefined
     fa0:	01197a18 	.inst	0x01197a18 ; undefined
     fa4:	0a000013 	and	w19, w0, w0
     fa8:	193f012e 	.inst	0x193f012e ; undefined
     fac:	0b3a0e03 	add	w3, w16, w26, uxtb #3
     fb0:	0b390b3b 	add	w27, w25, w25, uxtb #2
     fb4:	01111349 	.inst	0x01111349 ; undefined
     fb8:	18400712 	ldr	w18, 81098 <check_game+0xa0>
     fbc:	0000197a 	udf	#6522
     fc0:	00340100 	.inst	0x00340100 ; NYI
     fc4:	213a0803 	.inst	0x213a0803 ; undefined
     fc8:	390b3b01 	strb	w1, [x24, #718]
     fcc:	0213490b 	.inst	0x0213490b ; undefined
     fd0:	02000018 	.inst	0x02000018 ; undefined
     fd4:	08030005 	stxrb	w3, w5, [x0]
     fd8:	3b01213a 	.inst	0x3b01213a ; undefined
     fdc:	490b390b 	.inst	0x490b390b ; undefined
     fe0:	00180213 	.inst	0x00180213 ; undefined
     fe4:	00050300 	.inst	0x00050300 ; undefined
     fe8:	213a0e03 	.inst	0x213a0e03 ; undefined
     fec:	390b3b01 	strb	w1, [x24, #718]
     ff0:	0213490b 	.inst	0x0213490b ; undefined
     ff4:	04000018 	add	z24.b, p0/m, z24.b, z0.b
     ff8:	0b0b0024 	add	w4, w1, w11
     ffc:	0e030b3e 	.inst	0x0e030b3e ; undefined
    1000:	34050000 	cbz	w0, b000 <_start-0x75000>
    1004:	3a0e0300 	adcs	w0, w24, w14
    1008:	0b3b0121 	add	w1, w9, w27, uxtb
    100c:	13490b39 	.inst	0x13490b39 ; undefined
    1010:	00001802 	udf	#6146
    1014:	11010b06 	add	w6, w24, #0x42
    1018:	00071201 	.inst	0x00071201 ; undefined
    101c:	012e0700 	.inst	0x012e0700 ; undefined
    1020:	0e03193f 	uzp1	v31.8b, v9.8b, v3.8b
    1024:	3b01213a 	.inst	0x3b01213a ; undefined
    1028:	0621390b 	.inst	0x0621390b ; undefined
    102c:	01111927 	.inst	0x01111927 ; undefined
    1030:	18400712 	ldr	w18, 81110 <check_game+0x118>
    1034:	1301197c 	sbfx	w28, w11, #1, #6
    1038:	05080000 	.inst	0x05080000 ; undefined
    103c:	00134900 	.inst	0x00134900 ; undefined
    1040:	000f0900 	.inst	0x000f0900 ; undefined
    1044:	4908210b 	.inst	0x4908210b ; undefined
    1048:	0a000013 	and	w19, w0, w0
    104c:	0e030016 	tbl	v22.8b, {v0.16b}, v3.8b
    1050:	0b3b0b3a 	add	w26, w25, w27, uxtb #2
    1054:	13490b39 	.inst	0x13490b39 ; undefined
    1058:	2e0b0000 	ext	v0.8b, v0.8b, v11.8b, #0
    105c:	03193f01 	.inst	0x03193f01 ; undefined
    1060:	04213a0e 	eor3	z14.d, z14.d, z1.d, z16.d
    1064:	21390b3b 	.inst	0x21390b3b ; undefined
    1068:	3c192706 	str	b6, [x24], #-110
    106c:	00130119 	.inst	0x00130119 ; undefined
    1070:	012e0c00 	.inst	0x012e0c00 ; undefined
    1074:	0e03193f 	uzp1	v31.8b, v9.8b, v3.8b
    1078:	3b01213a 	.inst	0x3b01213a ; undefined
    107c:	0621390b 	.inst	0x0621390b ; undefined
    1080:	01111927 	.inst	0x01111927 ; undefined
    1084:	18400712 	ldr	w18, 81164 <check_game+0x16c>
    1088:	1301197a 	sbfx	w26, w11, #1, #6
    108c:	2e0d0000 	ext	v0.8b, v0.8b, v13.8b, #0
    1090:	03193f01 	.inst	0x03193f01 ; undefined
    1094:	01213a0e 	.inst	0x01213a0e ; undefined
    1098:	21390b3b 	.inst	0x21390b3b ; undefined
    109c:	49192707 	.inst	0x49192707 ; undefined
    10a0:	12011113 	and	w19, w8, #0x8000000f
    10a4:	7a184007 	.inst	0x7a184007 ; undefined
    10a8:	00130119 	.inst	0x00130119 ; undefined
    10ac:	00370e00 	.inst	0x00370e00 ; NYI
    10b0:	00001349 	udf	#4937
    10b4:	2501110f 	cmpge	p15.b, p4/z, z8.b, #1
    10b8:	030b130e 	.inst	0x030b130e ; undefined
    10bc:	111f1b1f 	add	wsp, w24, #0x7c6
    10c0:	10071201 	adr	x1, f300 <_start-0x70d00>
    10c4:	10000017 	adr	x23, 10c4 <_start-0x7ef3c>
    10c8:	0b0b0024 	add	w4, w1, w11
    10cc:	08030b3e 	stxrb	w3, w30, [x25]
    10d0:	18110000 	ldr	w0, 230d0 <_start-0x5cf30>
    10d4:	12000000 	and	w0, w0, #0x1
    10d8:	0b0b000f 	add	w15, w0, w11
    10dc:	26130000 	.inst	0x26130000 ; undefined
    10e0:	14000000 	b	10e0 <_start-0x7ef20>
    10e4:	193f012e 	.inst	0x193f012e ; undefined
    10e8:	0b3a0803 	add	w3, w0, w26, uxtb #2
    10ec:	0b390b3b 	add	w27, w25, w25, uxtb #2
    10f0:	01111927 	.inst	0x01111927 ; undefined
    10f4:	18400712 	ldr	w18, 811d4 <check_game+0x1dc>
    10f8:	1301197c 	sbfx	w28, w11, #1, #6
    10fc:	2e150000 	ext	v0.8b, v0.8b, v21.8b, #0
    1100:	03193f01 	.inst	0x03193f01 ; undefined
    1104:	3b0b3a08 	.inst	0x3b0b3a08 ; undefined
    1108:	270b390b 	.inst	0x270b390b ; undefined
    110c:	11134919 	add	w25, w8, #0x4d2
    1110:	40071201 	.inst	0x40071201 ; undefined
    1114:	00197a18 	.inst	0x00197a18 ; undefined
    1118:	11010000 	add	w0, w0, #0x40
    111c:	11171000 	add	w0, w0, #0x5c4
    1120:	030f1201 	.inst	0x030f1201 ; undefined
    1124:	250e1b0e 	cmpge	p14.b, p6/z, z24.b, #14
    1128:	0005130e 	.inst	0x0005130e ; undefined
    112c:	11010000 	add	w0, w0, #0x40
    1130:	11171000 	add	w0, w0, #0x5c4
    1134:	030f1201 	.inst	0x030f1201 ; undefined
    1138:	250e1b0e 	cmpge	p14.b, p6/z, z24.b, #14
    113c:	0005130e 	.inst	0x0005130e ; undefined
    1140:	11010000 	add	w0, w0, #0x40
    1144:	11171000 	add	w0, w0, #0x5c4
    1148:	030f1201 	.inst	0x030f1201 ; undefined
    114c:	250e1b0e 	cmpge	p14.b, p6/z, z24.b, #14
    1150:	0005130e 	.inst	0x0005130e ; undefined
	...

Disassembly of section .debug_aranges:

0000000000000000 <.debug_aranges>:
   0:	0000002c 	udf	#44
   4:	00000002 	udf	#2
   8:	00080000 	.inst	0x00080000 ; undefined
   c:	00000000 	udf	#0
  10:	00080800 	.inst	0x00080800 ; undefined
  14:	00000000 	udf	#0
  18:	000005e8 	udf	#1512
	...
  30:	0000001c 	udf	#28
  34:	03f80002 	.inst	0x03f80002 ; undefined
  38:	00080000 	.inst	0x00080000 ; undefined
	...
  50:	0000002c 	udf	#44
  54:	04640002 	add	z2.h, z0.h, z4.h
  58:	00080000 	.inst	0x00080000 ; undefined
  5c:	00000000 	udf	#0
  60:	00080de8 	.inst	0x00080de8 ; undefined
  64:	00000000 	udf	#0
  68:	00000a70 	udf	#2672
	...
  80:	0000002c 	udf	#44
  84:	0a2a0002 	bic	w2, w0, w10
  88:	00080000 	.inst	0x00080000 ; undefined
  8c:	00000000 	udf	#0
  90:	00081858 	.inst	0x00081858 ; undefined
  94:	00000000 	udf	#0
  98:	00000894 	udf	#2196
	...
  b0:	0000002c 	udf	#44
  b4:	101b0002 	adr	x2, 360b4 <_start-0x49f4c>
  b8:	00080000 	.inst	0x00080000 ; undefined
  bc:	00000000 	udf	#0
  c0:	000820ec 	.inst	0x000820ec ; undefined
  c4:	00000000 	udf	#0
  c8:	000001a4 	udf	#420
	...
  e0:	0000002c 	udf	#44
  e4:	12570002 	.inst	0x12570002 ; undefined
  e8:	00080000 	.inst	0x00080000 ; undefined
  ec:	00000000 	udf	#0
  f0:	00082290 	.inst	0x00082290 ; undefined
  f4:	00000000 	udf	#0
  f8:	000004e8 	udf	#1256
	...
 110:	0000002c 	udf	#44
 114:	17370002 	b	fffffffffcdc011c <e0stackend+0xfffffffffcbdd15c>
 118:	00080000 	.inst	0x00080000 ; undefined
 11c:	00000000 	udf	#0
 120:	00082778 	.inst	0x00082778 ; undefined
 124:	00000000 	udf	#0
 128:	00000108 	udf	#264
	...
 140:	0000002c 	udf	#44
 144:	18f40002 	ldr	w2, fffffffffffe8144 <e0stackend+0xffffffffffe05184>
 148:	00080000 	.inst	0x00080000 ; undefined
 14c:	00000000 	udf	#0
 150:	00082880 	.inst	0x00082880 ; undefined
 154:	00000000 	udf	#0
 158:	00000228 	udf	#552
	...
 170:	0000002c 	udf	#44
 174:	1b990002 	.inst	0x1b990002 ; undefined
 178:	00080000 	.inst	0x00080000 ; undefined
 17c:	00000000 	udf	#0
 180:	00082aa8 	.inst	0x00082aa8 ; undefined
 184:	00000000 	udf	#0
 188:	00000a24 	udf	#2596
	...
 1a0:	0000002c 	udf	#44
 1a4:	25a40002 	whilege	p2.s, w0, w4
 1a8:	00080000 	.inst	0x00080000 ; undefined
 1ac:	00000000 	udf	#0
 1b0:	000834cc 	.inst	0x000834cc ; undefined
 1b4:	00000000 	udf	#0
 1b8:	00001ae8 	udf	#6888
	...
 1d0:	0000002c 	udf	#44
 1d4:	31640002 	adds	w2, w0, #0x900, lsl #12
 1d8:	00080000 	.inst	0x00080000 ; undefined
 1dc:	00000000 	udf	#0
 1e0:	00084fb4 	.inst	0x00084fb4 ; undefined
 1e4:	00000000 	udf	#0
 1e8:	00000058 	udf	#88
	...
 200:	0000002c 	udf	#44
 204:	331a0002 	bfi	w2, w0, #6, #1
 208:	00080000 	.inst	0x00080000 ; undefined
 20c:	00000000 	udf	#0
 210:	0008500c 	.inst	0x0008500c ; undefined
 214:	00000000 	udf	#0
 218:	00000e3c 	udf	#3644
	...
 230:	0000002c 	udf	#44
 234:	39240002 	strb	w2, [x0, #2304]
 238:	00080000 	.inst	0x00080000 ; undefined
 23c:	00000000 	udf	#0
 240:	00085e50 	.inst	0x00085e50 ; undefined
 244:	00000000 	udf	#0
 248:	00000230 	udf	#560
	...
 260:	0000002c 	udf	#44
 264:	394d0002 	ldrb	w2, [x0, #832]
 268:	00080000 	.inst	0x00080000 ; undefined
 26c:	00000000 	udf	#0
 270:	00080000 	.inst	0x00080000 ; undefined
 274:	00000000 	udf	#0
 278:	000000a8 	udf	#168
	...
 290:	0000002c 	udf	#44
 294:	39760002 	ldrb	w2, [x0, #3456]
 298:	00080000 	.inst	0x00080000 ; undefined
 29c:	00000000 	udf	#0
 2a0:	00086800 	.inst	0x00086800 ; undefined
 2a4:	00000000 	udf	#0
 2a8:	00000800 	udf	#2048
	...

Disassembly of section .debug_rnglists:

0000000000000000 <.debug_rnglists>:
   0:	00000013 	udf	#19
   4:	00080005 	.inst	0x00080005 ; undefined
   8:	00000000 	udf	#0
   c:	d40ac404 	.inst	0xd40ac404 ; undefined
  10:	0bd8040b 	.inst	0x0bd8040b ; undefined
  14:	13000bdc 	sbfx	w28, w30, #0, #3
  18:	05000000 	orr	z0.s, z0.s, #0x1
  1c:	00000800 	udf	#2048
  20:	04000000 	add	z0.b, p0/m, z0.b, z0.b
  24:	058403b0 	.inst	0x058403b0 ; undefined
  28:	8c058804 	.inst	0x8c058804 ; undefined
  2c:	Address 0x2c is out of bounds.


Disassembly of section .debug_line:

0000000000000000 <.debug_line>:
       0:	0000025b 	udf	#603
       4:	00080005 	.inst	0x00080005 ; undefined
       8:	00000042 	udf	#66
       c:	fb010104 	.inst	0xfb010104 ; undefined
      10:	01000d0e 	.inst	0x01000d0e ; undefined
      14:	00010101 	.inst	0x00010101 ; undefined
      18:	00010000 	.inst	0x00010000 ; undefined
      1c:	01010100 	.inst	0x01010100 ; undefined
      20:	000a021f 	.inst	0x000a021f ; undefined
      24:	00730000 	.inst	0x00730000 ; undefined
      28:	01020000 	.inst	0x01020000 ; undefined
      2c:	060f021f 	.inst	0x060f021f ; undefined
	...
      38:	00b40000 	.inst	0x00b40000 ; undefined
      3c:	bd010000 	str	s0, [x0, #256]
      40:	01000000 	.inst	0x01000000 ; undefined
      44:	000000ca 	udf	#202
      48:	0000d000 	udf	#53248
      4c:	1b050000 	madd	w0, w0, w5, w0
      50:	00020900 	.inst	0x00020900 ; undefined
      54:	00000808 	udf	#2056
      58:	16000000 	b	fffffffff8000058 <e0stackend+0xfffffffff7e1d098>
      5c:	052f0b05 	ext	z5.b, z5.b, z24.b, #122
      60:	01052e10 	.inst	0x01052e10 ; undefined
      64:	2f23054b 	ushr	v11.2s, v10.2s, #29
      68:	052f1305 	ext	z5.b, z5.b, z24.b, #124
      6c:	27052e05 	.inst	0x27052e05 ; undefined
      70:	01040200 	.inst	0x01040200 ; undefined
      74:	2f13052e 	ushr	v14.4h, v9.4h, #13
      78:	053c0505 	ext	z5.b, z5.b, z8.b, #225
      7c:	04020027 	.inst	0x04020027 ; undefined
      80:	16052e01 	b	fffffffff814b884 <e0stackend+0xfffffffff7f688c4>
      84:	2e21052f 	uhadd	v15.8b, v9.8b, v1.8b
      88:	02003105 	.inst	0x02003105 ; undefined
      8c:	052e0104 	ext	z4.b, z4.b, z8.b, #112
      90:	04020021 	.inst	0x04020021 ; undefined
      94:	02003c01 	.inst	0x02003c01 ; undefined
      98:	2e060304 	ext	v4.8b, v24.8b, v6.8b, #0
      9c:	04040200 	.inst	0x04040200 ; undefined
      a0:	0402002e 	.inst	0x0402002e ; undefined
      a4:	01052006 	.inst	0x01052006 ; undefined
      a8:	1b052106 	madd	w6, w8, w5, w8
      ac:	3d0d0530 	str	b16, [x9, #833]
      b0:	05210c05 	ext	z5.b, z5.b, z0.b, #11
      b4:	0e052e08 	smov	w8, v16.b[2]
      b8:	2f0a052f 	ushr	v15.8b, v9.8b, #6
      bc:	210b053e 	.inst	0x210b053e ; undefined
      c0:	05210d05 	ext	z5.b, z5.b, z8.b, #11
      c4:	0d056710 	.inst	0x0d056710 ; undefined
      c8:	4b0c053c 	sub	w28, w9, w12, lsl #1
      cc:	2e110539 	.inst	0x2e110539 ; undefined
      d0:	05330c05 	ext	z5.b, z5.b, z0.b, #155
      d4:	1e052101 	.inst	0x1e052101 ; undefined
      d8:	3d0a0530 	str	b16, [x9, #641]
      dc:	3d210805 	str	b5, [x0, #2114]
      e0:	053d0b05 	ext	z5.b, z5.b, z24.b, #234
      e4:	1005210d 	adr	x13, a504 <_start-0x75afc>
      e8:	3c0d053d 	str	b29, [x9], #208
      ec:	394b0c05 	ldrb	w5, [x0, #707]
      f0:	052e1105 	ext	z5.b, z5.b, z8.b, #116
      f4:	0105330c 	.inst	0x0105330c ; undefined
      f8:	302a0521 	adr	x1, 5419d <_start-0x2be63>
      fc:	054b0705 	.inst	0x054b0705 ; undefined
     100:	0d052106 	.inst	0x0d052106 ; undefined
     104:	2e05052e 	.inst	0x2e05052e ; undefined
     108:	052f0905 	ext	z5.b, z5.b, z8.b, #122
     10c:	05052f07 	.inst	0x05052f07 ; undefined
     110:	0d053d22 	.inst	0x0d053d22 ; undefined
     114:	2e14053d 	.inst	0x2e14053d ; undefined
     118:	052e1105 	ext	z5.b, z5.b, z8.b, #116
     11c:	08054a0a 	stxrb	w5, w10, [x16]
     120:	052e7903 	.inst	0x052e7903 ; undefined
     124:	0f052e0c 	.inst	0x0f052e0c ; undefined
     128:	01040200 	.inst	0x01040200 ; undefined
     12c:	000c052e 	.inst	0x000c052e ; undefined
     130:	2e010402 	.inst	0x2e010402 ; undefined
     134:	0c030a05 	.inst	0x0c030a05 ; undefined
     138:	2e11052e 	.inst	0x2e11052e ; undefined
     13c:	052e0e05 	ext	z5.b, z5.b, z16.b, #115
     140:	01054a07 	.inst	0x01054a07 ; undefined
     144:	3023052f 	adr	x15, 461e9 <_start-0x39e17>
     148:	053d0705 	ext	z5.b, z5.b, z24.b, #233
     14c:	0d052106 	.inst	0x0d052106 ; undefined
     150:	2e05052e 	.inst	0x2e05052e ; undefined
     154:	052f0e05 	ext	z5.b, z5.b, z16.b, #123
     158:	053d3005 	tbl	z5.b, {z0.b}, z29.b
     15c:	0c053708 	.inst	0x0c053708 ; undefined
     160:	000f052e 	.inst	0x000f052e ; undefined
     164:	2e010402 	.inst	0x2e010402 ; undefined
     168:	02000c05 	.inst	0x02000c05 ; undefined
     16c:	052e0104 	ext	z4.b, z4.b, z8.b, #112
     170:	1105350a 	add	w10, w8, #0x14d
     174:	2e0e052e 	.inst	0x2e0e052e ; undefined
     178:	053d0105 	ext	z5.b, z5.b, z8.b, #232
     17c:	06052f2f 	.inst	0x06052f2f ; undefined
     180:	210b053d 	.inst	0x210b053d ; undefined
     184:	05220d05 	ext	z5.b, z5.b, z8.b, #19
     188:	0c053d08 	.inst	0x0c053d08 ; undefined
     18c:	4f0b0539 	sshr	v25.16b, v9.16b, #5
     190:	05211105 	ext	z5.b, z5.b, z8.b, #12
     194:	0d052e0f 	.inst	0x0d052e0f ; undefined
     198:	3d0c0530 	str	b16, [x9, #769]
     19c:	053d0805 	ext	z5.b, z5.b, z0.b, #234
     1a0:	0b05370c 	add	w12, w24, w5, lsl #13
     1a4:	2f090552 	ushr	v18.8b, v10.8b, #7
     1a8:	05210105 	ext	z5.b, z5.b, z8.b, #8
     1ac:	08053017 	stxrb	w5, w23, [x0]
     1b0:	3d090521 	str	b1, [x9, #577]
     1b4:	05210105 	ext	z5.b, z5.b, z8.b, #8
     1b8:	07053241 	.inst	0x07053241 ; undefined
     1bc:	2e0e0559 	.inst	0x2e0e0559 ; undefined
     1c0:	05210d05 	ext	z5.b, z5.b, z8.b, #11
     1c4:	05212f09 	tbx	z9.b, z24.b, z1.b
     1c8:	052f2e08 	tbx	z8.b, z16.b, z15.b
     1cc:	15054b0e 	b	4152e04 <e0stackend+0x3f6fe44>
     1d0:	2e0a054b 	.inst	0x2e0a054b ; undefined
     1d4:	053f0f05 	ext	z5.b, z5.b, z24.b, #251
     1d8:	15054a0d 	b	4152a0c <e0stackend+0x3f6fa4c>
     1dc:	2e13052e 	.inst	0x2e13052e ; undefined
     1e0:	05210d05 	ext	z5.b, z5.b, z8.b, #11
     1e4:	08053c11 	stxrb	w5, w17, [x0]
     1e8:	030a0522 	.inst	0x030a0522 ; undefined
     1ec:	01053c76 	.inst	0x01053c76 ; undefined
     1f0:	054a0d03 	.inst	0x054a0d03 ; undefined
     1f4:	20780309 	.inst	0x20780309 ; undefined
     1f8:	05280105 	ext	z5.b, z5.b, z8.b, #64
     1fc:	06053e3a 	.inst	0x06053e3a ; undefined
     200:	21080559 	.inst	0x21080559 ; undefined
     204:	4b210605 	sub	w5, w16, w1, uxtb #1
     208:	054b0b05 	.inst	0x054b0b05 ; undefined
     20c:	07052e09 	.inst	0x07052e09 ; undefined
     210:	3d06052f 	str	b15, [x9, #385]
     214:	053d0405 	ext	z5.b, z5.b, z0.b, #233
     218:	3c7a0309 	.inst	0x3c7a0309 ; undefined
     21c:	2f591505 	.inst	0x2f591505 ; undefined
     220:	05260805 	ext	z5.b, z5.b, z0.b, #50
     224:	01052f09 	.inst	0x01052f09 ; undefined
     228:	30290521 	adr	x1, 522cd <_start-0x2dd33>
     22c:	054b0e05 	.inst	0x054b0e05 ; undefined
     230:	0c052005 	.inst	0x0c052005 ; undefined
     234:	4a080521 	eor	w1, w9, w8, lsl #1
     238:	05303c05 	.inst	0x05303c05 ; undefined
     23c:	1f054a09 	fmadd	s9, s16, s5, s18
     240:	3c090567 	str	b7, [x11], #144
     244:	4522054b 	.inst	0x4522054b ; undefined
     248:	02001705 	.inst	0x02001705 ; undefined
     24c:	053c0104 	ext	z4.b, z4.b, z8.b, #224
     250:	4a090301 	eor	w1, w24, w9
     254:	051e0905 	mov	z5.b, p14/z, #72
     258:	03022201 	.inst	0x03022201 ; undefined
     25c:	2d010100 	stp	s0, s0, [x8, #8]
     260:	05000000 	orr	z0.s, z0.s, #0x1
     264:	25000800 	cmpge	p0.b, p2/z, z0.b, #0
     268:	04000000 	add	z0.b, p0/m, z0.b, z0.b
     26c:	0efb0101 	.inst	0x0efb0101 ; undefined
     270:	0101000d 	.inst	0x0101000d ; undefined
     274:	00000101 	udf	#257
     278:	00000100 	udf	#256
     27c:	1f010101 	fmadd	s1, s8, s1, s0
     280:	00000a01 	udf	#2561
     284:	1f010200 	fmadd	s0, s16, s1, s0
     288:	d7010f02 	.inst	0xd7010f02 ; undefined
     28c:	00000000 	udf	#0
     290:	0000037a 	udf	#890
     294:	00080005 	.inst	0x00080005 ; undefined
     298:	00000042 	udf	#66
     29c:	fb010104 	.inst	0xfb010104 ; undefined
     2a0:	01000d0e 	.inst	0x01000d0e ; undefined
     2a4:	00010101 	.inst	0x00010101 ; undefined
     2a8:	00010000 	.inst	0x00010000 ; undefined
     2ac:	01010100 	.inst	0x01010100 ; undefined
     2b0:	000a021f 	.inst	0x000a021f ; undefined
     2b4:	00730000 	.inst	0x00730000 ; undefined
     2b8:	01020000 	.inst	0x01020000 ; undefined
     2bc:	060f021f 	.inst	0x060f021f ; undefined
     2c0:	000000e4 	udf	#228
     2c4:	0000e400 	udf	#58368
     2c8:	00bd0000 	.inst	0x00bd0000 ; undefined
     2cc:	f1010000 	subs	x0, x0, #0x40
     2d0:	00000000 	udf	#0
     2d4:	000000fb 	udf	#251
     2d8:	00010800 	.inst	0x00010800 ; undefined
     2dc:	01050000 	.inst	0x01050000 ; undefined
     2e0:	e8020900 	.inst	0xe8020900 ; undefined
     2e4:	0000080d 	udf	#2061
     2e8:	03000000 	.inst	0x03000000 ; undefined
     2ec:	11050129 	add	w9, w9, #0x140
     2f0:	2e1d0530 	.inst	0x2e1d0530 ; undefined
     2f4:	02002805 	.inst	0x02002805 ; undefined
     2f8:	052e0104 	ext	z4.b, z4.b, z8.b, #112
     2fc:	0402001d 	.inst	0x0402001d ; undefined
     300:	02002e01 	.inst	0x02002e01 ; undefined
     304:	2e060304 	ext	v4.8b, v24.8b, v6.8b, #0
     308:	04040200 	.inst	0x04040200 ; undefined
     30c:	0402002e 	.inst	0x0402002e ; undefined
     310:	01052006 	.inst	0x01052006 ; undefined
     314:	06040200 	.inst	0x06040200 ; undefined
     318:	05302106 	mov	z6.q, q8
     31c:	0b053e1c 	add	w28, w16, w5, lsl #15
     320:	2029052e 	.inst	0x2029052e ; undefined
     324:	02003e05 	.inst	0x02003e05 ; undefined
     328:	052e0104 	ext	z4.b, z4.b, z8.b, #112
     32c:	0402002d 	.inst	0x0402002d ; undefined
     330:	29052e01 	stp	w1, w11, [x16, #40]
     334:	01040200 	.inst	0x01040200 ; undefined
     338:	04020020 	.inst	0x04020020 ; undefined
     33c:	002e0603 	.inst	0x002e0603 ; NYI
     340:	2e040402 	.inst	0x2e040402 ; undefined
     344:	06040200 	.inst	0x06040200 ; undefined
     348:	00010520 	.inst	0x00010520 ; undefined
     34c:	06060402 	.inst	0x06060402 ; undefined
     350:	303b0521 	adr	x1, 763f5 <_start-0x9c0b>
     354:	05590605 	mov	z5.h, p9/z, #48
     358:	0205220b 	.inst	0x0205220b ; undefined
     35c:	220c0520 	.inst	0x220c0520 ; undefined
     360:	05820f05 	and	z5.d, z5.d, #0x80ffffffffffffff
     364:	09052006 	.inst	0x09052006 ; undefined
     368:	821a053d 	.inst	0x821a053d ; undefined
     36c:	05211005 	ext	z5.b, z5.b, z0.b, #12
     370:	04058213 	.inst	0x04058213 ; undefined
     374:	4b0b0520 	sub	w0, w9, w11, lsl #1
     378:	05300c05 	ext	z5.b, z5.b, z0.b, #131
     37c:	0605820f 	.inst	0x0605820f ; undefined
     380:	3d090520 	str	b0, [x9, #577]
     384:	05821a05 	and	z5.d, z5.d, #0xe000000000003fff
     388:	13052110 	sbfx	w16, w8, #5, #4
     38c:	20040582 	.inst	0x20040582 ; undefined
     390:	054b0b05 	.inst	0x054b0b05 ; undefined
     394:	0402001b 	.inst	0x0402001b ; undefined
     398:	2e760302 	uaddl	v2.4s, v24.4h, v22.4h
     39c:	02001405 	.inst	0x02001405 ; undefined
     3a0:	053c0104 	ext	z4.b, z4.b, z8.b, #224
     3a4:	3c0d0301 	stur	b1, [x24, #208]
     3a8:	30190530 	adr	x16, 3244d <_start-0x4dbb3>
     3ac:	3001052f 	adr	x15, 2451 <_start-0x7dbaf>
     3b0:	053e2605 	.inst	0x053e2605 ; undefined
     3b4:	05053f07 	.inst	0x05053f07 ; undefined
     3b8:	2f0a053c 	ushr	v28.8b, v9.8b, #6
     3bc:	05301905 	ext	z5.b, z5.b, z8.b, #134
     3c0:	05052e06 	.inst	0x05052e06 ; undefined
     3c4:	0044054a 	.inst	0x0044054a ; undefined
     3c8:	2e010402 	.inst	0x2e010402 ; undefined
     3cc:	02003105 	.inst	0x02003105 ; undefined
     3d0:	052e0104 	ext	z4.b, z4.b, z8.b, #112
     3d4:	0402002e 	.inst	0x0402002e ; undefined
     3d8:	0b054a01 	add	w1, w16, w5, lsl #18
     3dc:	2e17052f 	.inst	0x2e17052f ; undefined
     3e0:	053d0a05 	ext	z5.b, z5.b, z16.b, #234
     3e4:	0d052f20 	.inst	0x0d052f20 ; undefined
     3e8:	4a0c052e 	eor	w14, w9, w12, lsl #1
     3ec:	02004f05 	.inst	0x02004f05 ; undefined
     3f0:	052e0104 	ext	z4.b, z4.b, z8.b, #112
     3f4:	0402003c 	.inst	0x0402003c ; undefined
     3f8:	39052e01 	strb	w1, [x16, #331]
     3fc:	01040200 	.inst	0x01040200 ; undefined
     400:	2f0b054a 	ushr	v10.8b, v10.8b, #5
     404:	052e1705 	ext	z5.b, z5.b, z24.b, #117
     408:	20053d0a 	.inst	0x20053d0a ; undefined
     40c:	2e0d052f 	.inst	0x2e0d052f ; undefined
     410:	054a0c05 	.inst	0x054a0c05 ; undefined
     414:	0402004c 	.inst	0x0402004c ; undefined
     418:	39052e01 	strb	w1, [x16, #331]
     41c:	01040200 	.inst	0x01040200 ; undefined
     420:	0036052e 	.inst	0x0036052e ; NYI
     424:	4a010402 	eor	w2, w0, w1, lsl #1
     428:	052f0b05 	ext	z5.b, z5.b, z24.b, #122
     42c:	0a052e17 	and	w23, w16, w5, lsl #11
     430:	2f20053d 	ushr	v29.2s, v9.2s, #32
     434:	052e0d05 	ext	z5.b, z5.b, z8.b, #115
     438:	4b054a0c 	sub	w12, w16, w5, lsl #18
     43c:	01040200 	.inst	0x01040200 ; undefined
     440:	0038052e 	.inst	0x0038052e ; NYI
     444:	2e010402 	.inst	0x2e010402 ; undefined
     448:	02003505 	.inst	0x02003505 ; undefined
     44c:	054a0104 	.inst	0x054a0104 ; undefined
     450:	17052f0b 	b	fffffffffc14c07c <e0stackend+0xfffffffffbf690bc>
     454:	3d0a052e 	str	b14, [x9, #641]
     458:	052f2005 	mov	z5.b, z0.b[7]
     45c:	0c052e0d 	.inst	0x0c052e0d ; undefined
     460:	004f054a 	.inst	0x004f054a ; undefined
     464:	2e010402 	.inst	0x2e010402 ; undefined
     468:	02003c05 	.inst	0x02003c05 ; undefined
     46c:	052e0104 	ext	z4.b, z4.b, z8.b, #112
     470:	04020039 	.inst	0x04020039 ; undefined
     474:	0b054a01 	add	w1, w16, w5, lsl #18
     478:	2e17052f 	.inst	0x2e17052f ; undefined
     47c:	053d0a05 	ext	z5.b, z5.b, z16.b, #234
     480:	0d052f20 	.inst	0x0d052f20 ; undefined
     484:	4a0c052e 	eor	w14, w9, w12, lsl #1
     488:	02004c05 	.inst	0x02004c05 ; undefined
     48c:	052e0104 	ext	z4.b, z4.b, z8.b, #112
     490:	04020039 	.inst	0x04020039 ; undefined
     494:	36052e01 	tbz	w1, #0, ffffffffffffaa54 <e0stackend+0xffffffffffe17a94>
     498:	01040200 	.inst	0x01040200 ; undefined
     49c:	2f0b054a 	ushr	v10.8b, v10.8b, #5
     4a0:	052e1705 	ext	z5.b, z5.b, z24.b, #117
     4a4:	19053d0a 	.inst	0x19053d0a ; undefined
     4a8:	2e2e0530 	uhadd	v16.8b, v9.8b, v14.8b
     4ac:	052e0605 	ext	z5.b, z5.b, z16.b, #113
     4b0:	0a053c05 	and	w5, w0, w5, lsl #15
     4b4:	3101052f 	adds	w15, w9, #0x41
     4b8:	052f1205 	ext	z5.b, z5.b, z16.b, #124
     4bc:	06052f02 	.inst	0x06052f02 ; undefined
     4c0:	2f0b0540 	ushr	v0.8b, v10.8b, #5
     4c4:	05200205 	ext	z5.b, z5.b, z16.b, #0
     4c8:	04020011 	.inst	0x04020011 ; undefined
     4cc:	19052203 	stlurb	w3, [x16, #82]
     4d0:	03040200 	.inst	0x03040200 ; undefined
     4d4:	00110575 	.inst	0x00110575 ; undefined
     4d8:	75030402 	.inst	0x75030402 ; undefined
     4dc:	02001905 	.inst	0x02001905 ; undefined
     4e0:	05750304 	ext	z4.b, {z24.b, z25.b}, #168
     4e4:	0402001b 	.inst	0x0402001b ; undefined
     4e8:	14056f03 	b	15c0f4 <stackend+0xb9134>
     4ec:	01040200 	.inst	0x01040200 ; undefined
     4f0:	0310053c 	.inst	0x0310053c ; undefined
     4f4:	07053c09 	.inst	0x07053c09 ; undefined
     4f8:	5806055b 	ldr	x27, c5a0 <_start-0x73a60>
     4fc:	05310d05 	ext	z5.b, z5.b, z8.b, #139
     500:	0a052004 	and	w4, w0, w5, lsl #8
     504:	90080523 	adrp	x3, 100a4000 <e0stackend+0xfec1040>
     508:	05301205 	ext	z5.b, z5.b, z16.b, #132
     50c:	15057409 	b	415d530 <e0stackend+0x3f7a570>
     510:	911d052f 	add	x15, x9, #0x741
     514:	057b0605 	ext	z5.b, {z16.b, z17.b}, #217
     518:	1d051c15 	.inst	0x1d051c15 ; undefined
     51c:	77060591 	.inst	0x77060591 ; undefined
     520:	02001d05 	.inst	0x02001d05 ; undefined
     524:	72030204 	ands	w4, w16, #0x20000000
     528:	00160520 	.inst	0x00160520 ; undefined
     52c:	3c010402 	str	b2, [x0], #16
     530:	11031105 	add	w5, w8, #0xc4
     534:	7504053c 	.inst	0x7504053c ; undefined
     538:	05210e05 	ext	z5.b, z5.b, z16.b, #11
     53c:	0531580d 	.inst	0x0531580d ; undefined
     540:	11052004 	add	w4, w0, #0x148
     544:	74170522 	.inst	0x74170522 ; undefined
     548:	05200805 	ext	z5.b, z5.b, z0.b, #2
     54c:	1c052f14 	ldr	s20, ab2c <_start-0x754d4>
     550:	76110575 	.inst	0x76110575 ; undefined
     554:	05741705 	ext	z5.b, {z24.b, z25.b}, #165
     558:	14052008 	b	148578 <stackend+0xa55b8>
     55c:	751c052f 	.inst	0x751c052f ; undefined
     560:	02001d05 	.inst	0x02001d05 ; undefined
     564:	78030204 	sturh	w4, [x16, #48]
     568:	00160574 	.inst	0x00160574 ; undefined
     56c:	3c010402 	str	b2, [x0], #16
     570:	0b031105 	add	w5, w8, w3, lsl #4
     574:	7504053c 	.inst	0x7504053c ; undefined
     578:	05210e05 	ext	z5.b, z5.b, z16.b, #11
     57c:	2905580d 	stp	w13, w22, [x0, #40]
     580:	01040200 	.inst	0x01040200 ; undefined
     584:	0026052e 	.inst	0x0026052e ; NYI
     588:	58010402 	ldr	x2, 2608 <_start-0x7d9f8>
     58c:	02004505 	.inst	0x02004505 ; undefined
     590:	052e0204 	ext	z4.b, z4.b, z16.b, #112
     594:	04020042 	.inst	0x04020042 ; undefined
     598:	16055802 	b	fffffffff81565a0 <e0stackend+0xfffffffff7f735e0>
     59c:	052e0903 	ext	z3.b, z3.b, z8.b, #114
     5a0:	1d05740c 	cpyptwn	[x12]!, [x5]!, x0!
     5a4:	82080523 	.inst	0x82080523 ; undefined
     5a8:	05211d05 	ext	z5.b, z5.b, z8.b, #15
     5ac:	18058208 	ldr	w8, b5ec <_start-0x74a14>
     5b0:	20080521 	.inst	0x20080521 ; undefined
     5b4:	05900705 	mov	z5.s, p0/z, #56
     5b8:	12053123 	and	w3, w9, #0xf80000ff
     5bc:	92160520 	and	x0, x9, #0xc0000000c00
     5c0:	05200505 	ext	z5.b, z5.b, z8.b, #1
     5c4:	10058508 	adr	x8, b664 <_start-0x7499c>
     5c8:	0f05673e 	movi	v30.2s, #0xb9, lsl #24
     5cc:	3e100575 	.inst	0x3e100575 ; undefined
     5d0:	750f0567 	.inst	0x750f0567 ; undefined
     5d4:	673e1005 	.inst	0x673e1005 ; undefined
     5d8:	b5030205 	cbnz	x5, 6618 <_start-0x799e8>
     5dc:	0e05667f 	.inst	0x0e05667f ; undefined
     5e0:	2000d503 	.inst	0x2000d503 ; undefined
     5e4:	052f0c05 	ext	z5.b, z5.b, z0.b, #123
     5e8:	01054c02 	.inst	0x01054c02 ; undefined
     5ec:	3d0c0583 	str	b3, [x12, #769]
     5f0:	4c02052f 	.inst	0x4c02052f ; undefined
     5f4:	05830105 	and	z5.d, z5.d, #0x1ff00000000
     5f8:	0c053d16 	.inst	0x0c053d16 ; undefined
     5fc:	4d02053d 	.inst	0x4d02053d ; undefined
     600:	05750705 	ext	z5.b, {z24.b, z25.b}, #169
     604:	01053109 	.inst	0x01053109 ; undefined
     608:	00020221 	.inst	0x00020221 ; undefined
     60c:	01f70101 	.inst	0x01f70101 ; undefined
     610:	00050000 	.inst	0x00050000 ; undefined
     614:	004c0008 	.inst	0x004c0008 ; undefined
     618:	01040000 	.inst	0x01040000 ; undefined
     61c:	0d0efb01 	.inst	0x0d0efb01 ; undefined
     620:	01010100 	.inst	0x01010100 ; undefined
     624:	00000001 	udf	#1
     628:	01000001 	.inst	0x01000001 ; undefined
     62c:	021f0101 	.inst	0x021f0101 ; undefined
     630:	0000000a 	udf	#10
     634:	00000073 	udf	#115
     638:	021f0102 	.inst	0x021f0102 ; undefined
     63c:	0112080f 	.inst	0x0112080f ; undefined
     640:	12000000 	and	w0, w0, #0x1
     644:	00000001 	udf	#1
     648:	000000bd 	udf	#189
     64c:	0000b401 	udf	#46081
     650:	00ca0100 	.inst	0x00ca0100 ; undefined
     654:	08000000 	stxrb	w0, w0, [x0]
     658:	00000001 	udf	#1
     65c:	000000f1 	udf	#241
     660:	0000fb00 	udf	#64256
     664:	1b050000 	madd	w0, w0, w5, w0
     668:	58020900 	ldr	x0, 4788 <_start-0x7b878>
     66c:	00000818 	udf	#2072
     670:	03000000 	.inst	0x03000000 ; undefined
     674:	05820112 	and	z18.d, z18.d, #0x1ff
     678:	05052f0c 	.inst	0x05052f0c ; undefined
     67c:	3e020530 	.inst	0x3e020530 ; undefined
     680:	20070559 	.inst	0x20070559 ; undefined
     684:	f3080b05 	.inst	0xf3080b05 ; undefined
     688:	05200205 	ext	z5.b, z5.b, z16.b, #0
     68c:	0402000a 	.inst	0x0402000a ; undefined
     690:	1f052203 	fmadd	s3, s16, s5, s8
     694:	03040200 	.inst	0x03040200 ; undefined
     698:	00140548 	.inst	0x00140548 ; undefined
     69c:	3c010402 	str	b2, [x0], #16
     6a0:	054f0805 	.inst	0x054f0805 ; undefined
     6a4:	07054b02 	.inst	0x07054b02 ; undefined
     6a8:	08110520 	stxrb	w17, w0, [x9]
     6ac:	750205f5 	.inst	0x750205f5 ; undefined
     6b0:	2f010568 	mvni	v8.2s, #0x2b
     6b4:	82911d05 	.inst	0x82911d05 ; undefined
     6b8:	05310e05 	ext	z5.b, z5.b, z16.b, #139
     6bc:	02052f05 	.inst	0x02052f05 ; undefined
     6c0:	2007053e 	.inst	0x2007053e ; undefined
     6c4:	f3080b05 	.inst	0xf3080b05 ; undefined
     6c8:	05200205 	ext	z5.b, z5.b, z16.b, #0
     6cc:	0402000a 	.inst	0x0402000a ; undefined
     6d0:	1f052203 	fmadd	s3, s16, s5, s8
     6d4:	03040200 	.inst	0x03040200 ; undefined
     6d8:	00140548 	.inst	0x00140548 ; undefined
     6dc:	3c010402 	str	b2, [x0], #16
     6e0:	054e0205 	.inst	0x054e0205 ; undefined
     6e4:	0205590f 	.inst	0x0205590f ; undefined
     6e8:	07056759 	.inst	0x07056759 ; undefined
     6ec:	080f0520 	stxrb	w15, w0, [x9]
     6f0:	590205f4 	.inst	0x590205f4 ; undefined
     6f4:	2f010559 	mvni	v25.2s, #0x2a
     6f8:	05922b05 	mov	z5.s, p2/z, #22528
     6fc:	0f053e0a 	.inst	0x0f053e0a ; undefined
     700:	8305052f 	.inst	0x8305052f ; undefined
     704:	05590b05 	mov	z5.h, p9/z, #88
     708:	05598305 	.inst	0x05598305 ; undefined
     70c:	2b052101 	adds	w1, w8, w5, lsl #8
     710:	3e0a053d 	.inst	0x3e0a053d ; undefined
     714:	052f0f05 	ext	z5.b, z5.b, z24.b, #123
     718:	0b058305 	.inst	0x0b058305 ; undefined
     71c:	83050559 	.inst	0x83050559 ; undefined
     720:	21010559 	.inst	0x21010559 ; undefined
     724:	053e2205 	mov	z5.h, z16.h[7]
     728:	673d4b02 	.inst	0x673d4b02 ; undefined
     72c:	05210105 	ext	z5.b, z5.b, z8.b, #8
     730:	07053e22 	.inst	0x07053e22 ; undefined
     734:	0a052f4e 	and	w14, w26, w5, lsl #11
     738:	2f070521 	mvni	v1.2s, #0xe9
     73c:	212f0905 	.inst	0x212f0905 ; undefined
     740:	052e0805 	ext	z5.b, z5.b, z0.b, #114
     744:	052f2f0c 	tbx	z12.b, z24.b, z15.b
     748:	10053c16 	adr	x22, aec8 <_start-0x75138>
     74c:	4d08052e 	.inst	0x4d08052e ; undefined
     750:	053d1005 	ext	z5.b, z5.b, z0.b, #236
     754:	3c79030a 	.inst	0x3c79030a ; undefined
     758:	052e0f05 	ext	z5.b, z5.b, z24.b, #115
     75c:	2e09030c 	ext	v12.8b, v24.8b, v9.8b, #0
     760:	05200305 	ext	z5.b, z5.b, z24.b, #0
     764:	04020002 	.inst	0x04020002 ; undefined
     768:	1b052103 	madd	w3, w8, w5, w8
     76c:	03040200 	.inst	0x03040200 ; undefined
     770:	0015059d 	.inst	0x0015059d ; undefined
     774:	3c010402 	str	b2, [x0], #16
     778:	054f0905 	.inst	0x054f0905 ; undefined
     77c:	07053e03 	.inst	0x07053e03 ; undefined
     780:	20060567 	.inst	0x20060567 ; undefined
     784:	05340805 	ext	z5.b, z5.b, z0.b, #162
     788:	0e053017 	tbx	v23.8b, {v0.16b, v1.16b}, v5.8b
     78c:	200c053c 	.inst	0x200c053c ; undefined
     790:	05211705 	ext	z5.b, z5.b, z24.b, #13
     794:	0c053c0e 	.inst	0x0c053c0e ; undefined
     798:	21040520 	.inst	0x21040520 ; undefined
     79c:	670e0559 	.inst	0x670e0559 ; undefined
     7a0:	05830405 	and	z5.d, z5.d, #0xffffffff00000001
     7a4:	14055c01 	b	1577a8 <stackend+0xb47e8>
     7a8:	2f02053d 	mvni	v29.2s, #0x49
     7ac:	053f0105 	ext	z5.b, z5.b, z8.b, #248
     7b0:	02053f0a 	.inst	0x02053f0a ; undefined
     7b4:	3d0f0530 	str	b16, [x9, #961]
     7b8:	05300605 	ext	z5.b, z5.b, z16.b, #129
     7bc:	0205210d 	.inst	0x0205210d ; undefined
     7c0:	83070521 	.inst	0x83070521 ; undefined
     7c4:	052f0805 	ext	z5.b, z5.b, z0.b, #122
     7c8:	06052107 	.inst	0x06052107 ; undefined
     7cc:	3d04053d 	str	b29, [x9, #257]
     7d0:	2f13054b 	ushr	v11.4h, v10.4h, #13
     7d4:	05210f05 	ext	z5.b, z5.b, z24.b, #11
     7d8:	05832104 	and	z4.d, z4.d, #0x1ff0000000
     7dc:	07052f0c 	.inst	0x07052f0c ; undefined
     7e0:	3d13053d 	str	b29, [x9, #1217]
     7e4:	053d1d05 	ext	z5.b, z5.b, z8.b, #239
     7e8:	1c053d05 	ldr	s5, af88 <_start-0x75078>
     7ec:	4b12055b 	sub	w27, w10, w18, lsl #1
     7f0:	053d1c05 	ext	z5.b, z5.b, z0.b, #239
     7f4:	0b053d04 	add	w4, w8, w5, lsl #15
     7f8:	053c6d03 	uzp2	z3.b, z8.b, z28.b
     7fc:	3c160302 	stur	b2, [x24, #-160]
     800:	2101054b 	.inst	0x2101054b ; undefined
     804:	01000302 	.inst	0x01000302 ; undefined
     808:	0000b301 	udf	#45825
     80c:	08000500 	stxrb	w0, w0, [x8]
     810:	00005100 	udf	#20736
     814:	01010400 	.inst	0x01010400 ; undefined
     818:	000d0efb 	.inst	0x000d0efb ; undefined
     81c:	01010101 	.inst	0x01010101 ; undefined
     820:	01000000 	.inst	0x01000000 ; undefined
     824:	01010000 	.inst	0x01010000 ; undefined
     828:	0a021f01 	and	w1, w24, w2, lsl #7
     82c:	73000000 	.inst	0x73000000 ; undefined
     830:	02000000 	.inst	0x02000000 ; undefined
     834:	0f021f01 	.inst	0x0f021f01 ; undefined
     838:	00012209 	.inst	0x00012209 ; undefined
     83c:	01220000 	.inst	0x01220000 ; undefined
     840:	bd000000 	str	s0, [x0]
     844:	01000000 	.inst	0x01000000 ; undefined
     848:	000000b4 	udf	#180
     84c:	0000f101 	udf	#61697
     850:	01290000 	.inst	0x01290000 ; undefined
     854:	ca000000 	eor	x0, x0, x0
     858:	00000000 	udf	#0
     85c:	00000136 	udf	#310
     860:	0000fb00 	udf	#64256
     864:	51050000 	sub	w0, w0, #0x140
     868:	ec020900 	.inst	0xec020900 ; undefined
     86c:	00000820 	udf	#2080
     870:	19000000 	stlurb	w0, [x0]
     874:	05910e05 	mov	z5.s, p1/z, #112
     878:	16053c12 	b	fffffffff814f8c0 <e0stackend+0xfffffffff7f6c900>
     87c:	2e1a052e 	.inst	0x2e1a052e ; undefined
     880:	052e1e05 	ext	z5.b, z5.b, z16.b, #119
     884:	26052e22 	.inst	0x26052e22 ; undefined
     888:	2e2a052e 	uhadd	v14.8b, v9.8b, v10.8b
     88c:	052e2e05 	tbx	z5.b, z16.b, z14.b
     890:	16052f01 	b	fffffffff814c494 <e0stackend+0xfffffffff7f694d4>
     894:	4c13052f 	.inst	0x4c13052f ; undefined
     898:	304b0305 	adr	x5, 968f9 <stack+0x3939>
     89c:	054d5921 	.inst	0x054d5921 ; undefined
     8a0:	03054c0b 	.inst	0x03054c0b ; undefined
     8a4:	5b0d05d7 	.inst	0x5b0d05d7 ; undefined
     8a8:	05670205 	ext	z5.b, {z16.b, z17.b}, #56
     8ac:	02055909 	.inst	0x02055909 ; undefined
     8b0:	59030567 	.inst	0x59030567 ; undefined
     8b4:	230a055a 	.inst	0x230a055a ; undefined
     8b8:	02210105 	.inst	0x02210105 ; undefined
     8bc:	01010003 	.inst	0x01010003 ; undefined
     8c0:	0000016e 	udf	#366
     8c4:	00080005 	.inst	0x00080005 ; undefined
     8c8:	00000047 	udf	#71
     8cc:	fb010104 	.inst	0xfb010104 ; undefined
     8d0:	01000d0e 	.inst	0x01000d0e ; undefined
     8d4:	00010101 	.inst	0x00010101 ; undefined
     8d8:	00010000 	.inst	0x00010000 ; undefined
     8dc:	01010100 	.inst	0x01010100 ; undefined
     8e0:	000a021f 	.inst	0x000a021f ; undefined
     8e4:	00730000 	.inst	0x00730000 ; undefined
     8e8:	01020000 	.inst	0x01020000 ; undefined
     8ec:	070f021f 	.inst	0x070f021f ; undefined
     8f0:	00000146 	udf	#326
     8f4:	00014600 	.inst	0x00014600 ; undefined
     8f8:	01080000 	.inst	0x01080000 ; undefined
     8fc:	f1000000 	subs	x0, x0, #0x0
     900:	00000000 	udf	#0
     904:	000000ca 	udf	#202
     908:	0000d000 	udf	#53248
     90c:	00b40000 	.inst	0x00b40000 ; undefined
     910:	05010000 	orr	z0.s, z0.s, #0x1
     914:	02090012 	.inst	0x02090012 ; undefined
     918:	00082290 	.inst	0x00082290 ; undefined
     91c:	00000000 	udf	#0
     920:	05011e03 	orr	z3.b, z3.b, #0x20
     924:	0b054e06 	add	w6, w16, w5, lsl #19
     928:	2002052f 	.inst	0x2002052f ; undefined
     92c:	02001305 	.inst	0x02001305 ; undefined
     930:	05220304 	ext	z4.b, z4.b, z24.b, #16
     934:	04020021 	.inst	0x04020021 ; undefined
     938:	14058e03 	b	164144 <stackend+0xc1184>
     93c:	01040200 	.inst	0x01040200 ; undefined
     940:	4002053c 	.inst	0x4002053c ; undefined
     944:	05781005 	ext	z5.b, {z0.b, z1.b}, #196
     948:	05675f03 	.inst	0x05675f03 ; undefined
     94c:	053f6a09 	uzp1	z9.b, z16.b, z31.b
     950:	05223c07 	.inst	0x05223c07 ; undefined
     954:	14052006 	b	14896c <stackend+0xa59ac>
     958:	9e04052f 	.inst	0x9e04052f ; undefined
     95c:	055f1105 	mov	z5.h, p15/z, #-120
     960:	03057610 	.inst	0x03057610 ; undefined
     964:	4c07053d 	.inst	0x4c07053d ; undefined
     968:	05200605 	ext	z5.b, z5.b, z16.b, #1
     96c:	0a053108 	and	w8, w8, w5, lsl #12
     970:	231d0521 	.inst	0x231d0521 ; undefined
     974:	05900905 	mov	z5.s, p0/z, #72
     978:	05322e08 	tbx	z8.b, z16.b, z18.b
     97c:	3c79030f 	.inst	0x3c79030f ; undefined
     980:	054f0605 	.inst	0x054f0605 ; undefined
     984:	04020009 	.inst	0x04020009 ; undefined
     988:	04052501 	.inst	0x04052501 ; undefined
     98c:	01040200 	.inst	0x01040200 ; undefined
     990:	0011052f 	.inst	0x0011052f ; undefined
     994:	5a010402 	.inst	0x5a010402 ; undefined
     998:	055a1005 	mov	z5.h, p10/z, #-128
     99c:	07053d03 	.inst	0x07053d03 ; undefined
     9a0:	2006054b 	.inst	0x2006054b ; undefined
     9a4:	4b310405 	sub	w5, w0, w17, uxtb #1
     9a8:	05204c05 	uzp2	p5.b, p0.b, p0.b
     9ac:	05679e04 	rbit	z4.h, p7/m, z16.h
     9b0:	16054b12 	b	fffffffff81535f8 <e0stackend+0xfffffffff7f70638>
     9b4:	91110520 	add	x0, x9, #0x441
     9b8:	4b770305 	.inst	0x4b770305 ; undefined
     9bc:	054b0c05 	.inst	0x054b0c05 ; undefined
     9c0:	3e052003 	.inst	0x3e052003 ; undefined
     9c4:	03040200 	.inst	0x03040200 ; undefined
     9c8:	00040523 	.inst	0x00040523 ; undefined
     9cc:	90030402 	adrp	x2, 6080000 <e0stackend+0x5e9d040>
     9d0:	02002205 	.inst	0x02002205 ; undefined
     9d4:	05630304 	ext	z4.b, {z24.b, z25.b}, #24
     9d8:	04020015 	.inst	0x04020015 ; undefined
     9dc:	03053c01 	.inst	0x03053c01 ; undefined
     9e0:	03020542 	.inst	0x03020542 ; undefined
     9e4:	054a7fb9 	.inst	0x054a7fb9 ; undefined
     9e8:	00cb0321 	.inst	0x00cb0321 ; undefined
     9ec:	3e070520 	.inst	0x3e070520 ; undefined
     9f0:	05ca0605 	.inst	0x05ca0605 ; undefined
     9f4:	0205310a 	.inst	0x0205310a ; undefined
     9f8:	8309054c 	.inst	0x8309054c ; undefined
     9fc:	05210105 	ext	z5.b, z5.b, z8.b, #8
     a00:	0c052f11 	.inst	0x0c052f11 ; undefined
     a04:	3007052f 	adr	x15, eaa9 <_start-0x71557>
     a08:	2f0205c9 	mvni	v9.2s, #0x4e
     a0c:	054b0605 	.inst	0x054b0605 ; undefined
     a10:	09052f0a 	.inst	0x09052f0a ; undefined
     a14:	8301054c 	.inst	0x8301054c ; undefined
     a18:	052f1c05 	ext	z5.b, z5.b, z0.b, #127
     a1c:	06053e07 	.inst	0x06053e07 ; undefined
     a20:	310a0585 	adds	w5, w12, #0x281
     a24:	054e0205 	.inst	0x054e0205 ; undefined
     a28:	01058309 	.inst	0x01058309 ; undefined
     a2c:	0002023d 	.inst	0x0002023d ; undefined
     a30:	00cc0101 	.inst	0x00cc0101 ; undefined
     a34:	00050000 	.inst	0x00050000 ; undefined
     a38:	00420008 	.inst	0x00420008 ; undefined
     a3c:	01040000 	.inst	0x01040000 ; undefined
     a40:	0d0efb01 	.inst	0x0d0efb01 ; undefined
     a44:	01010100 	.inst	0x01010100 ; undefined
     a48:	00000001 	udf	#1
     a4c:	01000001 	.inst	0x01000001 ; undefined
     a50:	021f0101 	.inst	0x021f0101 ; undefined
     a54:	0000000a 	udf	#10
     a58:	00000073 	udf	#115
     a5c:	021f0102 	.inst	0x021f0102 ; undefined
     a60:	0153060f 	.inst	0x0153060f ; undefined
     a64:	53000000 	ubfx	w0, w0, #0, #1
     a68:	00000001 	udf	#1
     a6c:	000000ca 	udf	#202
     a70:	00016800 	.inst	0x00016800 ; undefined
     a74:	00b40000 	.inst	0x00b40000 ; undefined
     a78:	f1010000 	subs	x0, x0, #0x40
     a7c:	00000000 	udf	#0
     a80:	09003b05 	.inst	0x09003b05 ; undefined
     a84:	08277802 	.inst	0x08277802 ; undefined
     a88:	00000000 	udf	#0
     a8c:	012e0300 	.inst	0x012e0300 ; undefined
     a90:	054c0c05 	.inst	0x054c0c05 ; undefined
     a94:	1e052005 	.inst	0x1e052005 ; undefined
     a98:	03040200 	.inst	0x03040200 ; undefined
     a9c:	00090521 	.inst	0x00090521 ; undefined
     aa0:	2f030402 	mvni	v2.2s, #0x60
     aa4:	02001c05 	.inst	0x02001c05 ; undefined
     aa8:	052f0304 	ext	z4.b, z4.b, z24.b, #120
     aac:	04020016 	.inst	0x04020016 ; undefined
     ab0:	09052f03 	.inst	0x09052f03 ; undefined
     ab4:	03040200 	.inst	0x03040200 ; undefined
     ab8:	0019054b 	.inst	0x0019054b ; undefined
     abc:	61030402 	.inst	0x61030402 ; undefined
     ac0:	02001305 	.inst	0x02001305 ; undefined
     ac4:	053c0104 	ext	z4.b, z4.b, z8.b, #224
     ac8:	01055105 	.inst	0x01055105 ; undefined
     acc:	033d0521 	.inst	0x033d0521 ; undefined
     ad0:	1a053c0c 	.inst	0x1a053c0c ; undefined
     ad4:	300c054b 	adr	x11, 18b7d <_start-0x67483>
     ad8:	05200505 	ext	z5.b, z5.b, z8.b, #1
     adc:	04020009 	.inst	0x04020009 ; undefined
     ae0:	19052103 	stlurb	w3, [x8, #82]
     ae4:	03040200 	.inst	0x03040200 ; undefined
     ae8:	0013052d 	.inst	0x0013052d ; undefined
     aec:	3c010402 	str	b2, [x0], #16
     af0:	054d1805 	.inst	0x054d1805 ; undefined
     af4:	05052f12 	.inst	0x05052f12 ; undefined
     af8:	0105674b 	.inst	0x0105674b ; undefined
     afc:	00030221 	.inst	0x00030221 ; undefined
     b00:	01140101 	.inst	0x01140101 ; undefined
     b04:	00050000 	.inst	0x00050000 ; undefined
     b08:	00470008 	.inst	0x00470008 ; undefined
     b0c:	01040000 	.inst	0x01040000 ; undefined
     b10:	0d0efb01 	.inst	0x0d0efb01 ; undefined
     b14:	01010100 	.inst	0x01010100 ; undefined
     b18:	00000001 	udf	#1
     b1c:	01000001 	.inst	0x01000001 ; undefined
     b20:	021f0101 	.inst	0x021f0101 ; undefined
     b24:	0000000a 	udf	#10
     b28:	00000073 	udf	#115
     b2c:	021f0102 	.inst	0x021f0102 ; undefined
     b30:	0173070f 	.inst	0x0173070f ; undefined
     b34:	73000000 	.inst	0x73000000 ; undefined
     b38:	00000001 	udf	#1
     b3c:	000000ca 	udf	#202
     b40:	0000f100 	udf	#61696
     b44:	01290000 	.inst	0x01290000 ; undefined
     b48:	fb000000 	.inst	0xfb000000 ; undefined
     b4c:	00000000 	udf	#0
     b50:	000000b4 	udf	#180
     b54:	00170501 	.inst	0x00170501 ; undefined
     b58:	28800209 	stp	w9, w0, [x16], #0
     b5c:	00000008 	udf	#8
     b60:	25030000 	cmpge	p0.b, p0/z, z0.b, #3
     b64:	2f080501 	ushr	v1.8b, v8.8b, #8
     b68:	4b3e0205 	sub	w5, w16, w30, uxtb
     b6c:	314b4b5c 	adds	w28, w26, #0x2d2, lsl #12
     b70:	0c054c4b 	.inst	0x0c054c4b ; undefined
     b74:	3e02054b 	.inst	0x3e02054b ; undefined
     b78:	054b5a4b 	.inst	0x054b5a4b ; undefined
     b7c:	0f052201 	.inst	0x0f052201 ; undefined
     b80:	2f0c053d 	ushr	v29.8b, v9.8b, #4
     b84:	3d300205 	str	b5, [x16, #3072]
     b88:	05210b05 	ext	z5.b, z5.b, z24.b, #10
     b8c:	13052002 	sbfx	w2, w0, #5, #4
     b90:	03040200 	.inst	0x03040200 ; undefined
     b94:	00080523 	.inst	0x00080523 ; undefined
     b98:	3c030402 	str	b2, [x0], #48
     b9c:	02000305 	.inst	0x02000305 ; undefined
     ba0:	00220304 	.inst	0x00220304 ; NYI
     ba4:	67030402 	.inst	0x67030402 ; undefined
     ba8:	03040200 	.inst	0x03040200 ; undefined
     bac:	001a053d 	.inst	0x001a053d ; undefined
     bb0:	03030402 	.inst	0x03030402 ; undefined
     bb4:	14054a79 	b	153598 <stackend+0xb05d8>
     bb8:	01040200 	.inst	0x01040200 ; undefined
     bbc:	0302053c 	.inst	0x0302053c ; undefined
     bc0:	05213c0a 	.inst	0x05213c0a ; undefined
     bc4:	0f052101 	.inst	0x0f052101 ; undefined
     bc8:	2f0c053d 	ushr	v29.8b, v9.8b, #4
     bcc:	3d300205 	str	b5, [x16, #3072]
     bd0:	05220b05 	ext	z5.b, z5.b, z24.b, #18
     bd4:	13052002 	sbfx	w2, w0, #5, #4
     bd8:	03040200 	.inst	0x03040200 ; undefined
     bdc:	00080523 	.inst	0x00080523 ; undefined
     be0:	3c030402 	str	b2, [x0], #48
     be4:	02000305 	.inst	0x02000305 ; undefined
     be8:	00220304 	.inst	0x00220304 ; NYI
     bec:	67030402 	.inst	0x67030402 ; undefined
     bf0:	03040200 	.inst	0x03040200 ; undefined
     bf4:	001a053d 	.inst	0x001a053d ; undefined
     bf8:	03030402 	.inst	0x03030402 ; undefined
     bfc:	14054a79 	b	1535e0 <stackend+0xb0620>
     c00:	01040200 	.inst	0x01040200 ; undefined
     c04:	0302053c 	.inst	0x0302053c ; undefined
     c08:	05213c09 	.inst	0x05213c09 ; undefined
     c0c:	053f2101 	mov	z1.b, z8.b[15]
     c10:	01053102 	.inst	0x01053102 ; undefined
     c14:	00030221 	.inst	0x00030221 ; undefined
     c18:	02970101 	.inst	0x02970101 ; undefined
     c1c:	00050000 	.inst	0x00050000 ; undefined
     c20:	00470008 	.inst	0x00470008 ; undefined
     c24:	01040000 	.inst	0x01040000 ; undefined
     c28:	0d0efb01 	.inst	0x0d0efb01 ; undefined
     c2c:	01010100 	.inst	0x01010100 ; undefined
     c30:	00000001 	udf	#1
     c34:	01000001 	.inst	0x01000001 ; undefined
     c38:	021f0101 	.inst	0x021f0101 ; undefined
     c3c:	0000000a 	udf	#10
     c40:	00000073 	udf	#115
     c44:	021f0102 	.inst	0x021f0102 ; undefined
     c48:	017f070f 	.inst	0x017f070f ; undefined
     c4c:	7f000000 	.inst	0x7f000000 ; undefined
     c50:	00000001 	udf	#1
     c54:	000000bd 	udf	#189
     c58:	0000b401 	udf	#46081
     c5c:	01850100 	.inst	0x01850100 ; undefined
     c60:	8e010000 	.inst	0x8e010000 ; undefined
     c64:	00000001 	udf	#1
     c68:	000000d0 	udf	#208
     c6c:	004b0500 	.inst	0x004b0500 ; undefined
     c70:	2aa80209 	orn	w9, w16, w8, asr #0
     c74:	00000008 	udf	#8
     c78:	21030000 	.inst	0x21030000 ; undefined
     c7c:	4b0c0501 	sub	w1, w8, w12, lsl #1
     c80:	05751905 	ext	z5.b, {z8.b, z9.b}, #174
     c84:	1505ac0c 	b	416bcb4 <e0stackend+0x3f88cf4>
     c88:	740c054b 	.inst	0x740c054b ; undefined
     c8c:	052f1205 	ext	z5.b, z5.b, z16.b, #124
     c90:	0a053c0d 	and	w13, w0, w5, lsl #15
     c94:	3d170520 	str	b0, [x9, #1473]
     c98:	053c0a05 	ext	z5.b, z5.b, z16.b, #226
     c9c:	13053d03 	sbfx	w3, w8, #5, #11
     ca0:	30090574 	adr	x20, 12d4d <_start-0x6d2b3>
     ca4:	053d1005 	ext	z5.b, z5.b, z0.b, #236
     ca8:	0c052e09 	.inst	0x0c052e09 ; undefined
     cac:	740a052f 	.inst	0x740a052f ; undefined
     cb0:	052f1205 	ext	z5.b, z5.b, z16.b, #124
     cb4:	0a053c0d 	and	w13, w0, w5, lsl #15
     cb8:	3d180520 	str	b0, [x9, #1537]
     cbc:	053c0a05 	ext	z5.b, z5.b, z16.b, #226
     cc0:	1f053d03 	fmadd	s3, s8, s5, s15
     cc4:	2f010574 	mvni	v20.2s, #0x2b
     cc8:	32031205 	orr	w5, w16, #0xe0000003
     ccc:	2f03053c 	mvni	v28.2s, #0x69
     cd0:	67676767 	.inst	0x67676767 ; undefined
     cd4:	67020567 	.inst	0x67020567 ; undefined
     cd8:	05414c05 	eor	z5.h, z5.h, #0x80
     cdc:	3a054d28 	.inst	0x3a054d28 ; undefined
     ce0:	203d053c 	.inst	0x203d053c ; undefined
     ce4:	052e0c05 	ext	z5.b, z5.b, z0.b, #115
     ce8:	0c05230e 	.inst	0x0c05230e ; undefined
     cec:	2f280574 	ushr	v20.2s, v11.2s, #24
     cf0:	052e0305 	ext	z5.b, z5.b, z24.b, #112
     cf4:	1b057426 	madd	w6, w1, w5, w29
     cf8:	2306052e 	.inst	0x2306052e ; undefined
     cfc:	053d3505 	.inst	0x053d3505 ; undefined
     d00:	5a053c4a 	.inst	0x5a053c4a ; undefined
     d04:	2005052e 	.inst	0x2005052e ; undefined
     d08:	05745a05 	.inst	0x05745a05 ; undefined
     d0c:	3505201f 	cbnz	wzr, b10c <_start-0x74ef4>
     d10:	3c4a0531 	ldr	b17, [x9], #160
     d14:	05200505 	ext	z5.b, z5.b, z8.b, #1
     d18:	1f05744a 	fmadd	s10, s2, s5, s29
     d1c:	25030520 	cmpge	p0.b, p1/z, z9.b, #3
     d20:	05742c05 	tbx	z5.h, z0.h, z20.h
     d24:	03052e1d 	.inst	0x03052e1d ; undefined
     d28:	742c0521 	.inst	0x742c0521 ; undefined
     d2c:	052e1d05 	ext	z5.b, z5.b, z8.b, #119
     d30:	26052306 	.inst	0x26052306 ; undefined
     d34:	3c37053d 	.inst	0x3c37053d ; undefined
     d38:	052e4505 	zip2	p5.b, p8.b, p14.b
     d3c:	03052e53 	.inst	0x03052e53 ; undefined
     d40:	74530520 	.inst	0x74530520 ; undefined
     d44:	05201b05 	ext	z5.b, z5.b, z24.b, #6
     d48:	26052601 	.inst	0x26052601 ; undefined
     d4c:	3c37051e 	.inst	0x3c37051e ; undefined
     d50:	052e4505 	zip2	p5.b, p8.b, p14.b
     d54:	45052003 	.inst	0x45052003 ; undefined
     d58:	201b0574 	.inst	0x201b0574 ; undefined
     d5c:	05220105 	ext	z5.b, z5.b, z8.b, #16
     d60:	08053e26 	stxrb	w5, w6, [x17]
     d64:	00090531 	.inst	0x00090531 ; undefined
     d68:	20010402 	.inst	0x20010402 ; undefined
     d6c:	02002105 	.inst	0x02002105 ; undefined
     d70:	05820104 	and	z4.d, z4.d, #0x1ff
     d74:	04020009 	.inst	0x04020009 ; undefined
     d78:	08052e01 	stxrb	w5, w1, [x16]
     d7c:	8206052f 	.inst	0x8206052f ; undefined
     d80:	05210905 	ext	z5.b, z5.b, z8.b, #10
     d84:	1b052101 	madd	w1, w8, w5, w8
     d88:	2f0e0530 	ushr	v16.8b, v9.8b, #2
     d8c:	05822605 	and	z5.d, z5.d, #0xf0001fffffffffff
     d90:	07052e0b 	.inst	0x07052e0b ; undefined
     d94:	210a053c 	.inst	0x210a053c ; undefined
     d98:	05220105 	ext	z5.b, z5.b, z8.b, #16
     d9c:	0b05301b 	add	w27, w0, w5, lsl #12
     da0:	8223052f 	.inst	0x8223052f ; undefined
     da4:	052e0705 	ext	z5.b, z5.b, z24.b, #113
     da8:	0105210a 	.inst	0x0105210a ; undefined
     dac:	302e0522 	adr	x2, 5ce51 <_start-0x231af>
     db0:	053e0805 	ext	z5.b, z5.b, z0.b, #242
     db4:	04020009 	.inst	0x04020009 ; undefined
     db8:	21052001 	.inst	0x21052001 ; undefined
     dbc:	01040200 	.inst	0x01040200 ; undefined
     dc0:	00090582 	.inst	0x00090582 ; undefined
     dc4:	2e010402 	.inst	0x2e010402 ; undefined
     dc8:	052f0305 	ext	z5.b, z5.b, z24.b, #120
     dcc:	0105741b 	.inst	0x0105741b ; undefined
     dd0:	3e3b052f 	.inst	0x3e3b052f ; undefined
     dd4:	055a0805 	mov	z5.h, p10/z, #64
     dd8:	1a052003 	.inst	0x1a052003 ; undefined
     ddc:	03040200 	.inst	0x03040200 ; undefined
     de0:	00050521 	.inst	0x00050521 ; undefined
     de4:	3c030402 	str	b2, [x0], #48
     de8:	02001705 	.inst	0x02001705 ; undefined
     dec:	05490304 	.inst	0x05490304 ; undefined
     df0:	0402000e 	.inst	0x0402000e ; undefined
     df4:	01053c01 	.inst	0x01053c01 ; undefined
     df8:	4c2e054d 	.inst	0x4c2e054d ; undefined
     dfc:	054b0905 	.inst	0x054b0905 ; undefined
     e00:	08052105 	stxrb	w5, w5, [x8]
     e04:	3a0a0559 	.inst	0x3a0a0559 ; undefined
     e08:	054e0105 	.inst	0x054e0105 ; undefined
     e0c:	09054d45 	.inst	0x09054d45 ; undefined
     e10:	2106056a 	.inst	0x2106056a ; undefined
     e14:	053d0405 	ext	z5.b, z5.b, z0.b, #233
     e18:	07054c0e 	.inst	0x07054c0e ; undefined
     e1c:	2f04053c 	mvni	v28.2s, #0x89
     e20:	5a080505 	.inst	0x5a080505 ; undefined
     e24:	224b8308 	.inst	0x224b8308 ; undefined
     e28:	224b6708 	.inst	0x224b6708 ; undefined
     e2c:	054b8308 	.inst	0x054b8308 ; undefined
     e30:	05052216 	.inst	0x05052216 ; undefined
     e34:	223d4a08 	.inst	0x223d4a08 ; undefined
     e38:	0317053d 	.inst	0x0317053d ; undefined
     e3c:	10052069 	adr	x9, b248 <_start-0x74db8>
     e40:	2e0b053c 	.inst	0x2e0b053c ; undefined
     e44:	19030905 	.inst	0x19030905 ; undefined
     e48:	2401054a 	cmphs	p10.b, p1/z, z10.b, z1.b
     e4c:	053e3105 	tbl	z5.b, {z8.b}, z30.b
     e50:	0591a102 	.inst	0x0591a102 ; undefined
     e54:	19059201 	stlurb	w1, [x16, #89]
     e58:	053c2903 	tbl	z3.b, {z8.b, z9.b}, z28.b
     e5c:	05052207 	.inst	0x05052207 ; undefined
     e60:	2f090558 	ushr	v24.8b, v10.8b, #7
     e64:	05210105 	ext	z5.b, z5.b, z8.b, #8
     e68:	07053018 	.inst	0x07053018 ; undefined
     e6c:	58050522 	ldr	x2, af10 <_start-0x750f0>
     e70:	052f0905 	ext	z5.b, z5.b, z8.b, #122
     e74:	16052101 	b	fffffffff8149278 <e0stackend+0xfffffffff7f662b8>
     e78:	2f130530 	ushr	v16.4h, v9.4h, #13
     e7c:	052e2205 	mov	z5.h, z16.h[3]
     e80:	03052e11 	.inst	0x03052e11 ; undefined
     e84:	2101053d 	.inst	0x2101053d ; undefined
     e88:	05301405 	ext	z5.b, z5.b, z0.b, #133
     e8c:	1f053d09 	fmadd	s9, s8, s5, s15
     e90:	01040200 	.inst	0x01040200 ; undefined
     e94:	00210520 	.inst	0x00210520 ; NYI
     e98:	3c010402 	str	b2, [x0], #16
     e9c:	02001f05 	.inst	0x02001f05 ; undefined
     ea0:	05200104 	ext	z4.b, z4.b, z8.b, #0
     ea4:	04020032 	.inst	0x04020032 ; undefined
     ea8:	03052001 	.inst	0x03052001 ; undefined
     eac:	2101052f 	.inst	0x2101052f ; undefined
     eb0:	01000302 	.inst	0x01000302 ; undefined
     eb4:	00054d01 	.inst	0x00054d01 ; undefined
     eb8:	08000500 	stxrb	w0, w0, [x8]
     ebc:	00005100 	udf	#20736
     ec0:	01010400 	.inst	0x01010400 ; undefined
     ec4:	000d0efb 	.inst	0x000d0efb ; undefined
     ec8:	01010101 	.inst	0x01010101 ; undefined
     ecc:	01000000 	.inst	0x01000000 ; undefined
     ed0:	01010000 	.inst	0x01010000 ; undefined
     ed4:	0a021f01 	and	w1, w24, w2, lsl #7
     ed8:	73000000 	.inst	0x73000000 ; undefined
     edc:	02000000 	.inst	0x02000000 ; undefined
     ee0:	0f021f01 	.inst	0x0f021f01 ; undefined
     ee4:	00019909 	.inst	0x00019909 ; undefined
     ee8:	01990000 	.inst	0x01990000 ; undefined
     eec:	bd000000 	str	s0, [x0]
     ef0:	01000000 	.inst	0x01000000 ; undefined
     ef4:	000000f1 	udf	#241
     ef8:	0000b400 	udf	#46080
     efc:	00fb0100 	.inst	0x00fb0100 ; undefined
     f00:	a3000000 	.inst	0xa3000000 ; undefined
     f04:	00000001 	udf	#1
     f08:	000000ca 	udf	#202
     f0c:	00010800 	.inst	0x00010800 ; undefined
     f10:	01050000 	.inst	0x01050000 ; undefined
     f14:	cc020900 	.inst	0xcc020900 ; undefined
     f18:	00000834 	udf	#2100
     f1c:	03000000 	.inst	0x03000000 ; undefined
     f20:	0f05011b 	.inst	0x0f05011b ; undefined
     f24:	6806054b 	.inst	0x6806054b ; undefined
     f28:	05210b05 	ext	z5.b, z5.b, z24.b, #10
     f2c:	15052002 	b	4148f34 <e0stackend+0x3f65f74>
     f30:	90060521 	adrp	x1, c0a4000 <e0stackend+0xbec1040>
     f34:	052f1305 	ext	z5.b, z5.b, z24.b, #124
     f38:	1a05d70b 	.inst	0x1a05d70b ; undefined
     f3c:	900b0522 	adrp	x2, 160a4000 <e0stackend+0x15ec1040>
     f40:	3006053d 	adr	x29, cfe5 <_start-0x7301b>
     f44:	053d0d05 	ext	z5.b, z5.b, z8.b, #235
     f48:	0d05d713 	.inst	0x0d05d713 ; undefined
     f4c:	002105d7 	.inst	0x002105d7 ; NYI
     f50:	03020402 	.inst	0x03020402 ; undefined
     f54:	14054a75 	b	153928 <stackend+0xb0968>
     f58:	01040200 	.inst	0x01040200 ; undefined
     f5c:	0309053c 	.inst	0x0309053c ; undefined
     f60:	01053c0e 	.inst	0x01053c0e ; undefined
     f64:	0f053221 	.inst	0x0f053221 ; undefined
     f68:	6806054b 	.inst	0x6806054b ; undefined
     f6c:	05210b05 	ext	z5.b, z5.b, z24.b, #10
     f70:	15052002 	b	4148f78 <e0stackend+0x3f65fb8>
     f74:	90060521 	adrp	x1, c0a4000 <e0stackend+0xbec1040>
     f78:	05321a05 	ext	z5.b, z5.b, z16.b, #150
     f7c:	4105900b 	.inst	0x4105900b ; undefined
     f80:	01040200 	.inst	0x01040200 ; undefined
     f84:	0030053c 	.inst	0x0030053c ; NYI
     f88:	90010402 	adrp	x2, 2080000 <e0stackend+0x1e9d040>
     f8c:	053d1905 	ext	z5.b, z5.b, z8.b, #238
     f90:	04020021 	.inst	0x04020021 ; undefined
     f94:	9e7a0302 	.inst	0x9e7a0302 ; undefined
     f98:	02001405 	.inst	0x02001405 ; undefined
     f9c:	053c0104 	ext	z4.b, z4.b, z8.b, #224
     fa0:	3c090309 	stur	b9, [x24, #144]
     fa4:	7a030b05 	.inst	0x7a030b05 ; undefined
     fa8:	27010520 	.inst	0x27010520 ; undefined
     fac:	21060530 	.inst	0x21060530 ; undefined
     fb0:	210f052f 	.inst	0x210f052f ; undefined
     fb4:	053e0b05 	ext	z5.b, z5.b, z24.b, #242
     fb8:	06052002 	.inst	0x06052002 ; undefined
     fbc:	3d120521 	str	b1, [x9, #1153]
     fc0:	052e1705 	ext	z5.b, z5.b, z24.b, #117
     fc4:	0568081a 	ext	z26.b, {z0.b, z1.b}, #66
     fc8:	3405900b 	cbz	w11, c1c8 <_start-0x73e38>
     fcc:	01040200 	.inst	0x01040200 ; undefined
     fd0:	0023052e 	.inst	0x0023052e ; NYI
     fd4:	90010402 	adrp	x2, 2080000 <e0stackend+0x1e9d040>
     fd8:	052f0805 	ext	z5.b, z5.b, z0.b, #122
     fdc:	21059f09 	.inst	0x21059f09 ; undefined
     fe0:	02040200 	.inst	0x02040200 ; undefined
     fe4:	052e7a03 	.inst	0x052e7a03 ; undefined
     fe8:	04020014 	.inst	0x04020014 ; undefined
     fec:	05053c01 	.inst	0x05053c01 ; undefined
     ff0:	053c0a03 	ext	z3.b, z3.b, z16.b, #226
     ff4:	04020027 	.inst	0x04020027 ; undefined
     ff8:	09053c01 	.inst	0x09053c01 ; undefined
     ffc:	21010591 	.inst	0x21010591 ; undefined
    1000:	2f0d0533 	ushr	v19.8b, v9.8b, #3
    1004:	054b0605 	.inst	0x054b0605 ; undefined
    1008:	02053d0b 	.inst	0x02053d0b ; undefined
    100c:	211b0520 	.inst	0x211b0520 ; undefined
    1010:	05751805 	ext	z5.b, {z0.b, z1.b}, #174
    1014:	18057515 	ldr	w21, beb4 <_start-0x7414c>
    1018:	75170575 	.inst	0x75170575 ; undefined
    101c:	05750c05 	ext	z5.b, {z0.b, z1.b}, #171
    1020:	28052003 	stnp	w3, w8, [x0, #40]
    1024:	03040200 	.inst	0x03040200 ; undefined
    1028:	00230521 	.inst	0x00230521 ; NYI
    102c:	3c030402 	str	b2, [x0], #48
    1030:	02002205 	.inst	0x02002205 ; undefined
    1034:	058f0304 	.inst	0x058f0304 ; undefined
    1038:	04020019 	.inst	0x04020019 ; undefined
    103c:	18053c01 	ldr	w1, b7bc <_start-0x74844>
    1040:	02040200 	.inst	0x02040200 ; undefined
    1044:	001a0541 	.inst	0x001a0541 ; undefined
    1048:	91020402 	add	x2, x0, #0x81
    104c:	02001d05 	.inst	0x02001d05 ; undefined
    1050:	05910204 	mov	z4.s, p1/z, #16
    1054:	04020027 	.inst	0x04020027 ; undefined
    1058:	90730302 	adrp	x2, e6061000 <e0stackend+0xe5e7e040>
    105c:	02001805 	.inst	0x02001805 ; undefined
    1060:	053c0104 	ext	z4.b, z4.b, z8.b, #224
    1064:	3c110309 	stur	b9, [x24, #-240]
    1068:	33210105 	.inst	0x33210105 ; undefined
    106c:	053e0e05 	ext	z5.b, z5.b, z16.b, #243
    1070:	0b053c06 	add	w6, w0, w5, lsl #15
    1074:	74020534 	.inst	0x74020534 ; undefined
    1078:	75080905 	.inst	0x75080905 ; undefined
    107c:	05210105 	ext	z5.b, z5.b, z8.b, #8
    1080:	12053016 	and	w22, w0, #0xf80000ff
    1084:	8228052f 	.inst	0x8228052f ; undefined
    1088:	02003305 	.inst	0x02003305 ; undefined
    108c:	052e0104 	ext	z4.b, z4.b, z8.b, #112
    1090:	04020028 	.inst	0x04020028 ; undefined
    1094:	02008201 	.inst	0x02008201 ; undefined
    1098:	2e060304 	ext	v4.8b, v24.8b, v6.8b, #0
    109c:	04040200 	.inst	0x04040200 ; undefined
    10a0:	0402002e 	.inst	0x0402002e ; undefined
    10a4:	01052006 	.inst	0x01052006 ; undefined
    10a8:	06040200 	.inst	0x06040200 ; undefined
    10ac:	13052106 	sbfx	w6, w8, #5, #4
    10b0:	340e0530 	cbz	w16, 1d154 <_start-0x62eac>
    10b4:	053c0605 	ext	z5.b, z5.b, z16.b, #225
    10b8:	06052f23 	.inst	0x06052f23 ; undefined
    10bc:	21250574 	.inst	0x21250574 ; undefined
    10c0:	05740805 	ext	z5.b, {z0.b, z1.b}, #162
    10c4:	06052126 	.inst	0x06052126 ; undefined
    10c8:	21270574 	.inst	0x21270574 ; undefined
    10cc:	05740805 	ext	z5.b, {z0.b, z1.b}, #162
    10d0:	06052128 	.inst	0x06052128 ; undefined
    10d4:	231c0574 	.inst	0x231c0574 ; undefined
    10d8:	831f0583 	.inst	0x831f0583 ; undefined
    10dc:	05831e05 	and	z5.d, z5.d, #0xffffffffe0003fff
    10e0:	19058321 	stlurb	w1, [x25, #88]
    10e4:	84040583 	ld1sb	{z3.s}, p1/z, [x12, z4.s, uxtw]
    10e8:	053d1505 	ext	z5.b, z5.b, z8.b, #237
    10ec:	26057406 	.inst	0x26057406 ; undefined
    10f0:	2905f321 	stp	w1, w28, [x25, #44]
    10f4:	d72805d7 	.inst	0xd72805d7 ; undefined
    10f8:	05d72b05 	mov	z5.d, p7/z, #22528
    10fc:	1f05d80a 	fmsub	s10, s0, s5, s22
    1100:	9f0a0574 	.inst	0x9f0a0574 ; undefined
    1104:	05742005 	mov	z5.s, z0.s[6]
    1108:	080c030e 	stxrb	w12, w14, [x24]
    110c:	74050512 	.inst	0x74050512 ; undefined
    1110:	42030531 	.inst	0x42030531 ; undefined
    1114:	05320105 	ext	z5.b, z5.b, z8.b, #144
    1118:	17053f1d 	b	fffffffffc150d8c <e0stackend+0xfffffffffbf6ddcc>
    111c:	2e1b053d 	.inst	0x2e1b053d ; undefined
    1120:	05740605 	ext	z5.b, {z16.b, z17.b}, #161
    1124:	1b052117 	madd	w23, w8, w5, w8
    1128:	7406052e 	.inst	0x7406052e ; undefined
    112c:	05271805 	ext	z5.b, z5.b, z0.b, #62
    1130:	07052e2b 	.inst	0x07052e2b ; undefined
    1134:	21180574 	.inst	0x21180574 ; undefined
    1138:	052e2b05 	tbl	z5.b, {z24.b, z25.b}, z14.b
    113c:	19057408 	cpyfptwn	[x8]!, [x5]!, x0!
    1140:	2e2c0521 	uhadd	v1.8b, v9.8b, v12.8b
    1144:	05740605 	ext	z5.b, {z16.b, z17.b}, #161
    1148:	200b0305 	.inst	0x200b0305 ; undefined
    114c:	05500d05 	mov	z5.h, p0/z, #104
    1150:	03052e1f 	.inst	0x03052e1f ; undefined
    1154:	220c0583 	.inst	0x220c0583 ; undefined
    1158:	052e1e05 	ext	z5.b, z5.b, z16.b, #119
    115c:	74090306 	.inst	0x74090306 ; undefined
    1160:	0d030705 	.inst	0x0d030705 ; undefined
    1164:	d708053c 	.inst	0xd708053c ; undefined
    1168:	05d70605 	mov	z5.d, p7/z, #48
    116c:	0b05d707 	.inst	0x0b05d707 ; undefined
    1170:	82090541 	.inst	0x82090541 ; undefined
    1174:	17030a05 	b	fffffffffc0c3988 <e0stackend+0xfffffffffbee09c8>
    1178:	741f052e 	.inst	0x741f052e ; undefined
    117c:	059f0a05 	mov	z5.s, p15/z, #80
    1180:	1f057420 	fmadd	s0, s1, s5, s29
    1184:	02051308 	.inst	0x02051308 ; undefined
    1188:	ae0c052e 	.inst	0xae0c052e ; undefined
    118c:	052e2305 	mov	z5.h, z24.h[3]
    1190:	14058301 	b	161d94 <stackend+0xbedd4>
    1194:	330e052f 	bfi	w15, w9, #18, #2
    1198:	053c0605 	ext	z5.b, z5.b, z16.b, #225
    119c:	06052f23 	.inst	0x06052f23 ; undefined
    11a0:	212f0574 	.inst	0x212f0574 ; undefined
    11a4:	05740805 	ext	z5.b, {z0.b, z1.b}, #162
    11a8:	06052128 	.inst	0x06052128 ; undefined
    11ac:	21210574 	.inst	0x21210574 ; undefined
    11b0:	052e0805 	ext	z5.b, z5.b, z0.b, #114
    11b4:	06058323 	.inst	0x06058323 ; undefined
    11b8:	820e032e 	.inst	0x820e032e ; undefined
    11bc:	05210d05 	ext	z5.b, z5.b, z8.b, #11
    11c0:	1f05820b 	fmsub	s11, s16, s5, s0
    11c4:	2e020531 	.inst	0x2e020531 ; undefined
    11c8:	05ae0c05 	uzp2	z5.q, z0.q, z14.q
    11cc:	0c052e23 	.inst	0x0c052e23 ; undefined
    11d0:	2e1f0583 	.inst	0x2e1f0583 ; undefined
    11d4:	05760c05 	ext	z5.b, {z0.b, z1.b}, #179
    11d8:	01054a23 	.inst	0x01054a23 ; undefined
    11dc:	0e053f84 	umov	w4, v28.b[2]
    11e0:	3c060541 	str	b1, [x10], #96
    11e4:	052f0e05 	ext	z5.b, z5.b, z16.b, #123
    11e8:	13052e05 	sbfx	w5, w16, #5, #7
    11ec:	2007052f 	.inst	0x2007052f ; undefined
    11f0:	05360305 	ext	z5.b, z5.b, z24.b, #176
    11f4:	00e30304 	.inst	0x00e30304 ; undefined
    11f8:	03013002 	.inst	0x03013002 ; undefined
    11fc:	2f207fa0 	.inst	0x2f207fa0 ; undefined
    1200:	0522d722 	mov	z2.b, p5/m, z25.b
    1204:	0405d70d 	mad	z13.b, p5/m, z5.b, z24.b
    1208:	00050520 	.inst	0x00050520 ; undefined
    120c:	21030402 	.inst	0x21030402 ; undefined
    1210:	02001d05 	.inst	0x02001d05 ; undefined
    1214:	05e30304 	.inst	0x05e30304 ; undefined
    1218:	04020016 	.inst	0x04020016 ; undefined
    121c:	32053c01 	orr	w1, w0, #0xf80007ff
    1220:	740e053f 	.inst	0x740e053f ; undefined
    1224:	05204e05 	.inst	0x05204e05 ; undefined
    1228:	1f05740e 	fmadd	s14, s0, s5, s29
    122c:	74070575 	.inst	0x74070575 ; undefined
    1230:	05310e05 	ext	z5.b, z5.b, z16.b, #139
    1234:	50052005 	adr	x5, b636 <_start-0x749ca>
    1238:	03040200 	.inst	0x03040200 ; undefined
    123c:	004c0521 	.inst	0x004c0521 ; undefined
    1240:	2e030402 	.inst	0x2e030402 ; undefined
    1244:	02005005 	.inst	0x02005005 ; undefined
    1248:	05740304 	ext	z4.b, {z24.b, z25.b}, #160
    124c:	04020010 	.inst	0x04020010 ; undefined
    1250:	50052e03 	adr	x3, b812 <_start-0x747ee>
    1254:	03040200 	.inst	0x03040200 ; undefined
    1258:	0027052e 	.inst	0x0027052e ; NYI
    125c:	20030402 	.inst	0x20030402 ; undefined
    1260:	02003905 	.inst	0x02003905 ; undefined
    1264:	05910304 	mov	z4.s, p1/z, #24
    1268:	04020006 	.inst	0x04020006 ; undefined
    126c:	1d052e03 	.inst	0x1d052e03 ; undefined
    1270:	03040200 	.inst	0x03040200 ; undefined
    1274:	001705e2 	.inst	0x001705e2 ; undefined
    1278:	3c010402 	str	b2, [x0], #16
    127c:	05431f05 	eor	z5.d, z5.d, #0xffffffffe03fffff
    1280:	05228304 	lasta	b4, p0, z24.b
    1284:	1f05d729 	fmsub	s9, s25, s5, s21
    1288:	75040582 	.inst	0x75040582 ; undefined
    128c:	d7290524 	.inst	0xd7290524 ; undefined
    1290:	05821f05 	and	z5.d, z5.d, #0xe03fffffffffffff
    1294:	2a057504 	orr	w4, w8, w5, lsl #29
    1298:	74080523 	.inst	0x74080523 ; undefined
    129c:	05221605 	ext	z5.b, z5.b, z16.b, #21
    12a0:	07054a08 	.inst	0x07054a08 ; undefined
    12a4:	3405053c 	cbz	w28, b348 <_start-0x74cb8>
    12a8:	05d72005 	mov	z5.d, p7/z, #0, lsl #8
    12ac:	820d0304 	.inst	0x820d0304 ; undefined
    12b0:	d81b0505 	prfm	pldl3strm, 37350 <_start-0x48cb0>
    12b4:	24230405 	cmphs	p5.b, p1/z, z0.b, #12
    12b8:	05224cd8 	.inst	0x05224cd8 ; undefined
    12bc:	0d05d726 	.inst	0x0d05d726 ; undefined
    12c0:	21150574 	.inst	0x21150574 ; undefined
    12c4:	054a0705 	.inst	0x054a0705 ; undefined
    12c8:	20053c06 	.inst	0x20053c06 ; undefined
    12cc:	03040534 	.inst	0x03040534 ; undefined
    12d0:	1b05820c 	msub	w12, w16, w5, w0
    12d4:	05207603 	trn2	z3.b, z16.b, z0.b
    12d8:	0b052e1f 	add	wzr, w16, w5, lsl #11
    12dc:	34200574 	cbz	w20, 41388 <_start-0x3ec78>
    12e0:	05860405 	.inst	0x05860405 ; undefined
    12e4:	04051f05 	.inst	0x04051f05 ; undefined
    12e8:	29052221 	stp	w1, w8, [x17, #40]
    12ec:	821f05d7 	.inst	0x821f05d7 ; undefined
    12f0:	25750405 	whilelt	p5.h, w0, w21
    12f4:	25240205 	whilege	p5.b, w16, w4
    12f8:	054c0b05 	.inst	0x054c0b05 ; undefined
    12fc:	03052002 	.inst	0x03052002 ; undefined
    1300:	03040200 	.inst	0x03040200 ; undefined
    1304:	00210521 	.inst	0x00210521 ; NYI
    1308:	08030402 	stxrb	w3, w2, [x0]
    130c:	00140573 	.inst	0x00140573 ; undefined
    1310:	3c010402 	str	b2, [x0], #16
    1314:	313f0205 	adds	w5, w16, #0xfc0
    1318:	3f210105 	.inst	0x3f210105 ; undefined
    131c:	052f0805 	ext	z5.b, z5.b, z0.b, #122
    1320:	0a052e06 	and	w6, w16, w5, lsl #11
    1324:	3c05053d 	str	b29, [x9], #80
    1328:	05300e05 	ext	z5.b, z5.b, z16.b, #131
    132c:	08053c06 	stxrb	w5, w6, [x0]
    1330:	052e0e03 	ext	z3.b, z3.b, z16.b, #115
    1334:	09057402 	.inst	0x09057402 ; undefined
    1338:	18059108 	ldr	w8, c558 <_start-0x73aa8>
    133c:	05206f03 	uzp2	z3.b, z24.b, z0.b
    1340:	20120301 	.inst	0x20120301 ; undefined
    1344:	5b0b0531 	.inst	0x5b0b0531 ; undefined
    1348:	05200205 	ext	z5.b, z5.b, z16.b, #0
    134c:	0605220f 	.inst	0x0605220f ; undefined
    1350:	30170574 	adr	x20, 2f3fd <_start-0x50c03>
    1354:	05833305 	and	z5.d, z5.d, #0x7fffffc000000
    1358:	3e053c43 	.inst	0x3e053c43 ; undefined
    135c:	2e33052e 	uhadd	v14.8b, v9.8b, v19.8b
    1360:	05201a05 	ext	z5.b, z5.b, z16.b, #6
    1364:	16057717 	b	fffffffff815efc0 <e0stackend+0xfffffffff7f7c000>
    1368:	83150583 	.inst	0x83150583 ; undefined
    136c:	052e1105 	ext	z5.b, z5.b, z8.b, #116
    1370:	1b057514 	madd	w20, w8, w5, w29
    1374:	751a0575 	.inst	0x751a0575 ; undefined
    1378:	75752205 	.inst	0x75752205 ; undefined
    137c:	05770405 	ext	z5.b, {z0.b, z1.b}, #185
    1380:	2105ca0d 	.inst	0x2105ca0d ; undefined
    1384:	02040200 	.inst	0x02040200 ; undefined
    1388:	053c6c03 	uzp2	z3.b, z0.b, z28.b
    138c:	04020014 	.inst	0x04020014 ; undefined
    1390:	09053c01 	.inst	0x09053c01 ; undefined
    1394:	053c1803 	ext	z3.b, z3.b, z0.b, #230
    1398:	05302101 	mov	z1.q, q8
    139c:	15052f18 	b	414cffc <e0stackend+0x3f6a03c>
    13a0:	75010575 	.inst	0x75010575 ; undefined
    13a4:	05414a05 	eor	z5.s, z5.s, #0xff8000ff
    13a8:	05216702 	zip2	z2.b, z24.b, z1.b
    13ac:	2d052f01 	stp	s1, s11, [x24, #40]
    13b0:	4b020530 	sub	w16, w9, w2, lsl #1
    13b4:	2f010521 	mvni	v1.2s, #0x29
    13b8:	052f3005 	tbl	z5.b, {z0.b}, z15.b
    13bc:	05214b02 	.inst	0x05214b02 ; undefined
    13c0:	18052f01 	ldr	w1, b9a0 <_start-0x74660>
    13c4:	2f02052f 	mvni	v15.2s, #0x49
    13c8:	2f010521 	mvni	v1.2s, #0x29
    13cc:	13020535 	sbfiz	w21, w9, #30, #2
    13d0:	2f010521 	mvni	v1.2s, #0x29
    13d4:	13020522 	sbfiz	w2, w9, #30, #2
    13d8:	2f010521 	mvni	v1.2s, #0x29
    13dc:	05222e05 	tbx	z5.b, z16.b, z2.b
    13e0:	05213d02 	.inst	0x05213d02 ; undefined
    13e4:	50052f01 	adr	x1, b9c6 <_start-0x7463a>
    13e8:	59020530 	.inst	0x59020530 ; undefined
    13ec:	2f010521 	mvni	v1.2s, #0x29
    13f0:	2f020533 	mvni	v19.2s, #0x49
    13f4:	01052121 	.inst	0x01052121 ; undefined
    13f8:	02053021 	.inst	0x02053021 ; undefined
    13fc:	01052113 	.inst	0x01052113 ; undefined
    1400:	00010221 	.inst	0x00010221 ; undefined
    1404:	006b0101 	.inst	0x006b0101 ; undefined
    1408:	00050000 	.inst	0x00050000 ; undefined
    140c:	00330008 	.inst	0x00330008 ; NYI
    1410:	01040000 	.inst	0x01040000 ; undefined
    1414:	0d0efb01 	.inst	0x0d0efb01 ; undefined
    1418:	01010100 	.inst	0x01010100 ; undefined
    141c:	00000001 	udf	#1
    1420:	01000001 	.inst	0x01000001 ; undefined
    1424:	021f0101 	.inst	0x021f0101 ; undefined
    1428:	0000000a 	udf	#10
    142c:	00000073 	udf	#115
    1430:	021f0102 	.inst	0x021f0102 ; undefined
    1434:	01a9030f 	.inst	0x01a9030f ; undefined
    1438:	a9000000 	stp	x0, x0, [x0]
    143c:	00000001 	udf	#1
    1440:	000000bd 	udf	#189
    1444:	001c0501 	.inst	0x001c0501 ; undefined
    1448:	4fb40209 	fmlal	v9.4s, v16.4h, v4.h[3]
    144c:	00000008 	udf	#8
    1450:	18030000 	ldr	w0, 7450 <_start-0x78bb0>
    1454:	221e0501 	.inst	0x221e0501 ; undefined
    1458:	05581805 	mov	z5.h, p8/z, #-64
    145c:	01052f0c 	.inst	0x01052f0c ; undefined
    1460:	2f1b0521 	ushr	v1.4h, v9.4h, #5
    1464:	05221e05 	ext	z5.b, z5.b, z16.b, #23
    1468:	0c055818 	.inst	0x0c055818 ; undefined
    146c:	2101052f 	.inst	0x2101052f ; undefined
    1470:	01000202 	.inst	0x01000202 ; undefined
    1474:	00037e01 	.inst	0x00037e01 ; undefined
    1478:	08000500 	stxrb	w0, w0, [x8]
    147c:	00003d00 	udf	#15616
    1480:	01010400 	.inst	0x01010400 ; undefined
    1484:	000d0efb 	.inst	0x000d0efb ; undefined
    1488:	01010101 	.inst	0x01010101 ; undefined
    148c:	01000000 	.inst	0x01000000 ; undefined
    1490:	01010000 	.inst	0x01010000 ; undefined
    1494:	0a021f01 	and	w1, w24, w2, lsl #7
    1498:	73000000 	.inst	0x73000000 ; undefined
    149c:	02000000 	.inst	0x02000000 ; undefined
    14a0:	0f021f01 	.inst	0x0f021f01 ; undefined
    14a4:	0001b405 	.inst	0x0001b405 ; undefined
    14a8:	01b40000 	.inst	0x01b40000 ; undefined
    14ac:	b4000000 	cbz	x0, 14ac <_start-0x7eb54>
    14b0:	01000000 	.inst	0x01000000 ; undefined
    14b4:	000000bd 	udf	#189
    14b8:	0000ca01 	udf	#51713
    14bc:	14050000 	b	1414bc <stackend+0x9e4fc>
    14c0:	0c020900 	.inst	0x0c020900 ; undefined
    14c4:	00000850 	udf	#2128
    14c8:	17000000 	b	fffffffffc0014c8 <e0stackend+0xfffffffffbe1e508>
    14cc:	052f0405 	ext	z5.b, z5.b, z0.b, #121
    14d0:	04020010 	.inst	0x04020010 ; undefined
    14d4:	29053c01 	stp	w1, w15, [x0, #40]
    14d8:	02040200 	.inst	0x02040200 ; undefined
    14dc:	3d04053c 	str	b28, [x9, #257]
    14e0:	02001005 	.inst	0x02001005 ; undefined
    14e4:	053c0104 	ext	z4.b, z4.b, z8.b, #224
    14e8:	0402002f 	.inst	0x0402002f ; undefined
    14ec:	04053c02 	.inst	0x04053c02 ; undefined
    14f0:	0010053d 	.inst	0x0010053d ; undefined
    14f4:	3c010402 	str	b2, [x0], #16
    14f8:	02002f05 	.inst	0x02002f05 ; undefined
    14fc:	053c0204 	ext	z4.b, z4.b, z16.b, #224
    1500:	01053d09 	.inst	0x01053d09 ; undefined
    1504:	313c0521 	adds	w1, w9, #0xf01
    1508:	054b0605 	.inst	0x054b0605 ; undefined
    150c:	0705220f 	.inst	0x0705220f ; undefined
    1510:	001f0530 	.inst	0x001f0530 ; undefined
    1514:	20020402 	.inst	0x20020402 ; undefined
    1518:	02000e05 	.inst	0x02000e05 ; undefined
    151c:	054a0104 	.inst	0x054a0104 ; undefined
    1520:	04020013 	.inst	0x04020013 ; undefined
    1524:	07053c01 	.inst	0x07053c01 ; undefined
    1528:	210d053d 	.inst	0x210d053d ; undefined
    152c:	213c0705 	.inst	0x213c0705 ; undefined
    1530:	4b750505 	.inst	0x4b750505 ; undefined
    1534:	02000905 	.inst	0x02000905 ; undefined
    1538:	053c0104 	ext	z4.b, z4.b, z8.b, #224
    153c:	04020014 	.inst	0x04020014 ; undefined
    1540:	10053c02 	adr	x2, bcc0 <_start-0x74340>
    1544:	0402003d 	.inst	0x0402003d ; undefined
    1548:	003c0601 	.inst	0x003c0601 ; NYI
    154c:	2e020402 	.inst	0x2e020402 ; undefined
    1550:	04040200 	.inst	0x04040200 ; undefined
    1554:	00070520 	.inst	0x00070520 ; undefined
    1558:	06040402 	.inst	0x06040402 ; undefined
    155c:	0010052e 	.inst	0x0010052e ; undefined
    1560:	3c040402 	str	b2, [x0], #64
    1564:	02000a05 	.inst	0x02000a05 ; undefined
    1568:	052e0404 	ext	z4.b, z4.b, z0.b, #113
    156c:	04020004 	.inst	0x04020004 ; undefined
    1570:	0b052104 	add	w4, w8, w5, lsl #8
    1574:	053c7a03 	.inst	0x053c7a03 ; undefined
    1578:	3c090306 	stur	b6, [x24, #144]
    157c:	052f0105 	ext	z5.b, z5.b, z8.b, #120
    1580:	04053f1f 	.inst	0x04053f1f ; undefined
    1584:	3d07054b 	str	b11, [x10, #449]
    1588:	053d0605 	ext	z5.b, z5.b, z16.b, #233
    158c:	02053c09 	.inst	0x02053c09 ; undefined
    1590:	4b010530 	sub	w16, w9, w1, lsl #1
    1594:	053f2805 	tbl	z5.b, {z0.b, z1.b}, z31.b
    1598:	03054b0e 	.inst	0x03054b0e ; undefined
    159c:	002c052e 	.inst	0x002c052e ; NYI
    15a0:	20030402 	.inst	0x20030402 ; undefined
    15a4:	02002f05 	.inst	0x02002f05 ; undefined
    15a8:	053c0304 	ext	z4.b, z4.b, z24.b, #224
    15ac:	04020024 	.inst	0x04020024 ; undefined
    15b0:	1f053c03 	fmadd	s3, s0, s5, s15
    15b4:	01040200 	.inst	0x01040200 ; undefined
    15b8:	3d0a053c 	str	b28, [x9, #641]
    15bc:	05210105 	ext	z5.b, z5.b, z8.b, #8
    15c0:	0b053147 	add	w7, w10, w5, lsl #12
    15c4:	11052f4b 	add	w11, w26, #0x14b
    15c8:	2005052f 	.inst	0x2005052f ; undefined
    15cc:	02003605 	.inst	0x02003605 ; undefined
    15d0:	05200304 	ext	z4.b, z4.b, z24.b, #0
    15d4:	0402002b 	.inst	0x0402002b ; undefined
    15d8:	31053c03 	adds	w3, w0, #0x14f
    15dc:	03040200 	.inst	0x03040200 ; undefined
    15e0:	002f053c 	.inst	0x002f053c ; NYI
    15e4:	20030402 	.inst	0x20030402 ; undefined
    15e8:	02001f05 	.inst	0x02001f05 ; undefined
    15ec:	05200304 	ext	z4.b, z4.b, z24.b, #0
    15f0:	0402001a 	.inst	0x0402001a ; undefined
    15f4:	0c053c01 	.inst	0x0c053c01 ; undefined
    15f8:	2101054b 	.inst	0x2101054b ; undefined
    15fc:	05305d05 	.inst	0x05305d05 ; undefined
    1600:	1005761a 	adr	x26, c4c0 <_start-0x73b40>
    1604:	2f08059e 	ushr	v30.8b, v12.8b, #8
    1608:	05671905 	ext	z5.b, {z8.b, z9.b}, #62
    160c:	08059e10 	stlxrb	w5, w16, [x16]
    1610:	6719052f 	.inst	0x6719052f ; undefined
    1614:	059e1005 	mov	z5.s, p14/z, #-128
    1618:	19052f08 	.inst	0x19052f08 ; undefined
    161c:	e4100567 	.inst	0xe4100567 ; undefined
    1620:	67300305 	.inst	0x67300305 ; undefined
    1624:	05663a05 	.inst	0x05663a05 ; undefined
    1628:	09056603 	.inst	0x09056603 ; undefined
    162c:	05144402 	mov	z2.b, p4/m, #32
    1630:	13052e06 	sbfx	w6, w16, #5, #7
    1634:	01040200 	.inst	0x01040200 ; undefined
    1638:	0003052e 	.inst	0x0003052e ; undefined
    163c:	4f010402 	movi	v2.4s, #0x20
    1640:	051c0e05 	mov	z5.b, p12/z, #112
    1644:	18052e0b 	ldr	w11, bc04 <_start-0x743fc>
    1648:	01040200 	.inst	0x01040200 ; undefined
    164c:	0003052e 	.inst	0x0003052e ; undefined
    1650:	4e010402 	dup	v2.16b, v0.b[0]
    1654:	051d0e05 	mov	z5.b, p13/z, #112
    1658:	18052e0b 	ldr	w11, bc18 <_start-0x743e8>
    165c:	01040200 	.inst	0x01040200 ; undefined
    1660:	0003052e 	.inst	0x0003052e ; undefined
    1664:	4d010402 	.inst	0x4d010402 ; undefined
    1668:	051e0e05 	mov	z5.b, p14/z, #112
    166c:	18052e0b 	ldr	w11, bc2c <_start-0x743d4>
    1670:	01040200 	.inst	0x01040200 ; undefined
    1674:	0003052e 	.inst	0x0003052e ; undefined
    1678:	4c010402 	.inst	0x4c010402 ; undefined
    167c:	01052006 	.inst	0x01052006 ; undefined
    1680:	55052106 	.inst	0x55052106 ; undefined
    1684:	67070540 	.inst	0x67070540 ; undefined
    1688:	052f2f2f 	tbx	z15.b, z25.b, z15.b
    168c:	08052f03 	stxrb	w5, w3, [x24]
    1690:	922e054c 	and	x12, x10, #0xc0000000c0000
    1694:	052e3305 	tbl	z5.b, {z24.b}, z14.b
    1698:	03052e28 	.inst	0x03052e28 ; undefined
    169c:	2e4f052e 	fmaxnmp	v14.4h, v9.4h, v15.4h
    16a0:	052e5405 	trn2	p5.b, p0.b, p14.b
    16a4:	06052e03 	.inst	0x06052e03 ; undefined
    16a8:	59050576 	.inst	0x59050576 ; undefined
    16ac:	743a055b 	.inst	0x743a055b ; undefined
    16b0:	05820505 	and	z5.d, z5.d, #0x1ffffffffff
    16b4:	0505904e 	.inst	0x0505904e ; undefined
    16b8:	90610582 	adrp	x2, c20b1000 <e0stackend+0xc1ece040>
    16bc:	05580505 	mov	z5.h, p8/z, #40
    16c0:	4caf0803 	.inst	0x4caf0803 ; undefined
    16c4:	05210105 	ext	z5.b, z5.b, z8.b, #8
    16c8:	07053038 	.inst	0x07053038 ; undefined
    16cc:	2f2f2f59 	.inst	0x2f2f2f59 ; undefined
    16d0:	052f1105 	ext	z5.b, z5.b, z8.b, #124
    16d4:	0c052003 	.inst	0x0c052003 ; undefined
    16d8:	58080521 	ldr	x1, 1177c <_start-0x6e884>
    16dc:	052f1305 	ext	z5.b, z5.b, z24.b, #124
    16e0:	31054a0b 	adds	w11, w16, #0x152
    16e4:	ac07052f 	stnp	q15, q1, [x9, #224]
    16e8:	052e4005 	zip1	p5.b, p0.b, p14.b
    16ec:	07057445 	.inst	0x07057445 ; undefined
    16f0:	750a052e 	.inst	0x750a052e ; undefined
    16f4:	083d0905 	.inst	0x083d0905 ; undefined
    16f8:	02080577 	.inst	0x02080577 ; undefined
    16fc:	2305142d 	.inst	0x2305142d ; undefined
    1700:	02040200 	.inst	0x02040200 ; undefined
    1704:	053c7603 	trn2	z3.b, z16.b, z28.b
    1708:	0402001a 	.inst	0x0402001a ; undefined
    170c:	09053c01 	.inst	0x09053c01 ; undefined
    1710:	054a0d03 	.inst	0x054a0d03 ; undefined
    1714:	0505222f 	.inst	0x0505222f ; undefined
    1718:	2e3e05ac 	uhadd	v12.8b, v13.8b, v30.8b
    171c:	05744305 	.inst	0x05744305 ; undefined
    1720:	05752e05 	tbx	z5.h, z16.h, z21.h
    1724:	0c054b06 	.inst	0x0c054b06 ; undefined
    1728:	43030538 	.inst	0x43030538 ; undefined
    172c:	2101054b 	.inst	0x2101054b ; undefined
    1730:	05306005 	zip1	z5.b, z0.b, z16.b
    1734:	11057503 	add	w3, w8, #0x15d
    1738:	2003054b 	.inst	0x2003054b ; undefined
    173c:	05210c05 	ext	z5.b, z5.b, z0.b, #11
    1740:	07055808 	.inst	0x07055808 ; undefined
    1744:	910c052f 	add	x15, x9, #0x301
    1748:	052f2005 	mov	z5.b, z0.b[7]
    174c:	07055824 	.inst	0x07055824 ; undefined
    1750:	75220574 	.inst	0x75220574 ; undefined
    1754:	f3580705 	.inst	0xf3580705 ; undefined
    1758:	02002305 	.inst	0x02002305 ; undefined
    175c:	7a030204 	sbcs	w4, w16, w3
    1760:	001a053c 	.inst	0x001a053c ; undefined
    1764:	3c010402 	str	b2, [x0], #16
    1768:	09030305 	.inst	0x09030305 ; undefined
    176c:	01054c4a 	.inst	0x01054c4a ; undefined
    1770:	31330521 	adds	w1, w9, #0xcc1
    1774:	054c1105 	.inst	0x054c1105 ; undefined
    1778:	0f052003 	.inst	0x0f052003 ; undefined
    177c:	03040200 	.inst	0x03040200 ; undefined
    1780:	000a0521 	.inst	0x000a0521 ; undefined
    1784:	4a030402 	eor	w2, w0, w3, lsl #1
    1788:	02000805 	.inst	0x02000805 ; undefined
    178c:	052f0304 	ext	z4.b, z4.b, z24.b, #120
    1790:	0402000c 	.inst	0x0402000c ; undefined
    1794:	09054a03 	.inst	0x09054a03 ; undefined
    1798:	03040200 	.inst	0x03040200 ; undefined
    179c:	0022052f 	.inst	0x0022052f ; NYI
    17a0:	2b030402 	adds	w2, w0, w3, lsl #1
    17a4:	02001a05 	.inst	0x02001a05 ; undefined
    17a8:	053c0104 	ext	z4.b, z4.b, z8.b, #224
    17ac:	01054f03 	.inst	0x01054f03 ; undefined
    17b0:	302f0521 	adr	x1, 5f855 <_start-0x207ab>
    17b4:	2f590705 	.inst	0x2f590705 ; undefined
    17b8:	2f2f2f2f 	.inst	0x2f2f2f2f ; undefined
    17bc:	05300605 	ext	z5.b, z5.b, z16.b, #129
    17c0:	055b3d05 	mov	z5.h, p11/z, #-6144
    17c4:	07054e06 	.inst	0x07054e06 ; undefined
    17c8:	3d2f053d 	str	b29, [x9, #3009]
    17cc:	05580505 	mov	z5.h, p8/z, #40
    17d0:	42052e47 	.inst	0x42052e47 ; undefined
    17d4:	2e05054a 	.inst	0x2e05054a ; undefined
    17d8:	4e070575 	dup	v21.16b, v11.b[3]
    17dc:	053d2e05 	tbx	z5.b, z16.b, z29.b
    17e0:	44056605 	.inst	0x44056605 ; undefined
    17e4:	583f052e 	ldr	x14, 7f888 <_start-0x778>
    17e8:	752e0505 	.inst	0x752e0505 ; undefined
    17ec:	053f0305 	ext	z5.b, z5.b, z24.b, #248
    17f0:	03024d01 	.inst	0x03024d01 ; undefined
    17f4:	d0010100 	adrp	x0, 2023000 <e0stackend+0x1e40040>
    17f8:	05000000 	orr	z0.s, z0.s, #0x1
    17fc:	2a000800 	orr	w0, w0, w0, lsl #2
    1800:	04000000 	add	z0.b, p0/m, z0.b, z0.b
    1804:	0efb0101 	.inst	0x0efb0101 ; undefined
    1808:	0101000d 	.inst	0x0101000d ; undefined
    180c:	00000101 	udf	#257
    1810:	00000100 	udf	#256
    1814:	1f010101 	fmadd	s1, s8, s1, s0
    1818:	00000a01 	udf	#2561
    181c:	1f010200 	fmadd	s0, s16, s1, s0
    1820:	bb020f02 	.inst	0xbb020f02 ; undefined
    1824:	00000001 	udf	#1
    1828:	000001bb 	udf	#443
    182c:	02090000 	.inst	0x02090000 ; undefined
    1830:	00085e50 	.inst	0x00085e50 ; undefined
    1834:	00000000 	udf	#0
    1838:	21010a03 	.inst	0x21010a03 ; undefined
    183c:	22212221 	.inst	0x22212221 ; undefined
    1840:	21212123 	.inst	0x21212123 ; undefined
    1844:	21212121 	.inst	0x21212121 ; undefined
    1848:	21212121 	.inst	0x21212121 ; undefined
    184c:	21212121 	.inst	0x21212121 ; undefined
    1850:	21212121 	.inst	0x21212121 ; undefined
    1854:	21212121 	.inst	0x21212121 ; undefined
    1858:	21212121 	.inst	0x21212121 ; undefined
    185c:	22212121 	.inst	0x22212121 ; undefined
    1860:	21212327 	.inst	0x21212327 ; undefined
    1864:	23212121 	.inst	0x23212121 ; undefined
    1868:	21212121 	.inst	0x21212121 ; undefined
    186c:	21212121 	.inst	0x21212121 ; undefined
    1870:	21212121 	.inst	0x21212121 ; undefined
    1874:	21212121 	.inst	0x21212121 ; undefined
    1878:	21212121 	.inst	0x21212121 ; undefined
    187c:	21212121 	.inst	0x21212121 ; undefined
    1880:	21212121 	.inst	0x21212121 ; undefined
    1884:	21212121 	.inst	0x21212121 ; undefined
    1888:	21212121 	.inst	0x21212121 ; undefined
    188c:	21212121 	.inst	0x21212121 ; undefined
    1890:	21212121 	.inst	0x21212121 ; undefined
    1894:	21222121 	.inst	0x21222121 ; undefined
    1898:	21201103 	.inst	0x21201103 ; undefined
    189c:	21212121 	.inst	0x21212121 ; undefined
    18a0:	21212121 	.inst	0x21212121 ; undefined
    18a4:	21212121 	.inst	0x21212121 ; undefined
    18a8:	22212121 	.inst	0x22212121 ; undefined
    18ac:	24212221 	cmplo	p1.b, p0/z, z17.b, #4
    18b0:	24212326 	cmplo	p6.b, p0/z, z25.b, #4
    18b4:	21212421 	.inst	0x21212421 ; undefined
    18b8:	21212121 	.inst	0x21212121 ; undefined
    18bc:	21212121 	.inst	0x21212121 ; undefined
    18c0:	21212121 	.inst	0x21212121 ; undefined
    18c4:	03022221 	.inst	0x03022221 ; undefined
    18c8:	63010100 	.inst	0x63010100 ; undefined
    18cc:	05000000 	orr	z0.s, z0.s, #0x1
    18d0:	2a000800 	orr	w0, w0, w0, lsl #2
    18d4:	04000000 	add	z0.b, p0/m, z0.b, z0.b
    18d8:	0efb0101 	.inst	0x0efb0101 ; undefined
    18dc:	0101000d 	.inst	0x0101000d ; undefined
    18e0:	00000101 	udf	#257
    18e4:	00000100 	udf	#256
    18e8:	1f010101 	fmadd	s1, s8, s1, s0
    18ec:	00000a01 	udf	#2561
    18f0:	1f010200 	fmadd	s0, s16, s1, s0
    18f4:	c1020f02 	.inst	0xc1020f02 ; undefined
    18f8:	00000001 	udf	#1
    18fc:	000001c1 	udf	#449
    1900:	02090000 	.inst	0x02090000 ; undefined
    1904:	00080000 	.inst	0x00080000 ; undefined
    1908:	00000000 	udf	#0
    190c:	21012303 	.inst	0x21012303 ; undefined
    1910:	22212321 	.inst	0x22212321 ; undefined
    1914:	22212221 	.inst	0x22212221 ; undefined
    1918:	22232124 	.inst	0x22232124 ; undefined
    191c:	21232121 	.inst	0x21232121 ; undefined
    1920:	21212623 	.inst	0x21212623 ; undefined
    1924:	21212121 	.inst	0x21212121 ; undefined
    1928:	23212121 	.inst	0x23212121 ; undefined
    192c:	000c0221 	.inst	0x000c0221 ; undefined
    1930:	00ab0101 	.inst	0x00ab0101 ; undefined
    1934:	00050000 	.inst	0x00050000 ; undefined
    1938:	002a0008 	.inst	0x002a0008 ; NYI
    193c:	01040000 	.inst	0x01040000 ; undefined
    1940:	0d0efb01 	.inst	0x0d0efb01 ; undefined
    1944:	01010100 	.inst	0x01010100 ; undefined
    1948:	00000001 	udf	#1
    194c:	01000001 	.inst	0x01000001 ; undefined
    1950:	011f0101 	.inst	0x011f0101 ; undefined
    1954:	0000000a 	udf	#10
    1958:	021f0102 	.inst	0x021f0102 ; undefined
    195c:	01c8020f 	.inst	0x01c8020f ; undefined
    1960:	c8000000 	stxr	w0, x0, [x0]
    1964:	00000001 	udf	#1
    1968:	00020900 	.inst	0x00020900 ; undefined
    196c:	00000868 	udf	#2152
    1970:	03000000 	.inst	0x03000000 ; undefined
    1974:	21210109 	.inst	0x21210109 ; undefined
    1978:	21212121 	.inst	0x21212121 ; undefined
    197c:	21212121 	.inst	0x21212121 ; undefined
    1980:	21212121 	.inst	0x21212121 ; undefined
    1984:	200b0321 	.inst	0x200b0321 ; undefined
    1988:	e908e921 	.inst	0xe908e921 ; undefined
    198c:	ea08e908 	ands	x8, x8, x8, lsl #58
    1990:	21212121 	.inst	0x21212121 ; undefined
    1994:	21212121 	.inst	0x21212121 ; undefined
    1998:	21212121 	.inst	0x21212121 ; undefined
    199c:	03212121 	.inst	0x03212121 ; undefined
    19a0:	e921200b 	.inst	0xe921200b ; undefined
    19a4:	e908e908 	.inst	0xe908e908 ; undefined
    19a8:	2121ea08 	.inst	0x2121ea08 ; undefined
    19ac:	21212121 	.inst	0x21212121 ; undefined
    19b0:	21212121 	.inst	0x21212121 ; undefined
    19b4:	21212121 	.inst	0x21212121 ; undefined
    19b8:	200b0321 	.inst	0x200b0321 ; undefined
    19bc:	e908e921 	.inst	0xe908e921 ; undefined
    19c0:	ea08e908 	ands	x8, x8, x8, lsl #58
    19c4:	21212121 	.inst	0x21212121 ; undefined
    19c8:	21212121 	.inst	0x21212121 ; undefined
    19cc:	21212121 	.inst	0x21212121 ; undefined
    19d0:	03212121 	.inst	0x03212121 ; undefined
    19d4:	e921200b 	.inst	0xe921200b ; undefined
    19d8:	e908e908 	.inst	0xe908e908 ; undefined
    19dc:	01002002 	.inst	0x01002002 ; undefined
    19e0:	Address 0x19e0 is out of bounds.


Disassembly of section .debug_str:

0000000000000000 <.debug_str>:
   0:	726f6873 	.inst	0x726f6873 ; undefined
   4:	6e692074 	usubl2	v20.4s, v3.8h, v9.8h
   8:	69730074 	ldpsw	x20, x0, [x3, #-104]
   c:	745f657a 	.inst	0x745f657a ; undefined
  10:	5f736900 	.inst	0x5f736900 ; undefined
  14:	00786548 	.inst	0x00786548 ; undefined
  18:	61746572 	.inst	0x61746572 ; undefined
  1c:	6e007272 	ext	v18.16b, v19.16b, v0.16b, #14
  20:	7a737765 	.inst	0x7a737765 ; undefined
  24:	6e656c00 	umin	v0.8h, v0.8h, v5.8h
  28:	00637253 	.inst	0x00637253 ; undefined
  2c:	746e6975 	.inst	0x746e6975 ; undefined
  30:	00745f38 	.inst	0x00745f38 ; undefined
  34:	74697773 	.inst	0x74697773 ; undefined
  38:	6e5f6863 	.inst	0x6e5f6863 ; undefined
  3c:	65626d75 	fnmls	z21.h, p3/m, z11.h, z2.h
  40:	6f6c0072 	mla	v18.8h, v3.8h, v12.h[2]
  44:	6c20676e 	stnp	d14, d25, [x27, #-512]
  48:	20676e6f 	.inst	0x20676e6f ; undefined
  4c:	00746e69 	.inst	0x00746e69 ; undefined
  50:	74726170 	.inst	0x74726170 ; undefined
  54:	6e656c00 	umin	v0.8h, v0.8h, v5.8h
  58:	00736544 	.inst	0x00736544 ; undefined
  5c:	676e6f6c 	.inst	0x676e6f6c ; undefined
  60:	756f6420 	.inst	0x756f6420 ; undefined
  64:	00656c62 	.inst	0x00656c62 ; undefined
  68:	73726170 	.inst	0x73726170 ; undefined
  6c:	68635f65 	.inst	0x68635f65 ; undefined
  70:	615f7261 	.inst	0x615f7261 ; undefined
  74:	75007272 	.inst	0x75007272 ; undefined
  78:	6769736e 	.inst	0x6769736e ; undefined
  7c:	2064656e 	.inst	0x2064656e ; undefined
  80:	72616863 	.inst	0x72616863 ; undefined
  84:	67736d00 	.inst	0x67736d00 ; undefined
  88:	006e656c 	.inst	0x006e656c ; undefined
  8c:	726f6873 	.inst	0x726f6873 ; undefined
  90:	6e752074 	usubl2	v20.4s, v3.8h, v21.8h
  94:	6e676973 	.inst	0x6e676973 ; undefined
  98:	69206465 	stgp	x5, x25, [x3, #-1024]
  9c:	6900746e 	stgp	x14, x29, [x3]
  a0:	6d655f73 	ldp	d19, d23, [x27, #-432]
  a4:	00797470 	.inst	0x00797470 ; undefined
  a8:	63727473 	.inst	0x63727473 ; undefined
  ac:	73007970 	.inst	0x73007970 ; undefined
  b0:	6c667274 	ldnp	d20, d28, [x19, #-416]
  b4:	00687375 	.inst	0x00687375 ; undefined
  b8:	676e6f6c 	.inst	0x676e6f6c ; undefined
  bc:	736e7520 	.inst	0x736e7520 ; undefined
  c0:	656e6769 	fnmls	z9.h, p1/m, z27.h, z14.h
  c4:	6e692064 	usubl2	v4.4s, v3.8h, v9.8h
  c8:	65680074 	fmla	z20.h, p0/m, z3.h, z8.h
  cc:	72747378 	.inst	0x72747378 ; undefined
  d0:	5f6f745f 	sqshl	d31, d2, #47
  d4:	00746e69 	.inst	0x00746e69 ; undefined
  d8:	73726170 	.inst	0x73726170 ; undefined
  dc:	72747365 	.inst	0x72747365 ; undefined
  e0:	00676e69 	.inst	0x00676e69 ; undefined
  e4:	63727473 	.inst	0x63727473 ; undefined
  e8:	7300706d 	.inst	0x7300706d ; undefined
  ec:	6d637274 	ldp	d20, d28, [x19, #-464]
  f0:	65725f70 	fnmla	z16.h, p7/m, z27.h, z18.h
  f4:	73690074 	.inst	0x73690074 ; undefined
  f8:	67656e5f 	.inst	0x67656e5f ; undefined
  fc:	72617500 	.inst	0x72617500 ; undefined
 100:	75705f74 	.inst	0x75705f74 ; undefined
 104:	73006374 	.inst	0x73006374 ; undefined
 108:	6e697274 	uabdl2	v20.4s, v19.8h, v9.8h
 10c:	6e6f6367 	rsubhn2	v7.8h, v27.4s, v15.4s
 110:	00746163 	.inst	0x00746163 ; undefined
 114:	20554e47 	.inst	0x20554e47 ; undefined
 118:	20373143 	.inst	0x20373143 ; undefined
 11c:	332e3231 	.inst	0x332e3231 ; undefined
 120:	3220312e 	orr	w14, w9, #0x1fff
 124:	30333230 	adr	x16, 66769 <_start-0x19897>
 128:	20363236 	.inst	0x20363236 ; undefined
 12c:	70636d2d 	adr	x13, c6ed3 <stackend+0x23f13>
 130:	6f633d75 	.inst	0x6f633d75 ; undefined
 134:	78657472 	.inst	0x78657472 ; undefined
 138:	3237612d 	orr	w13, w9, #0xfffffe03
 13c:	736d2d20 	.inst	0x736d2d20 ; undefined
 140:	63697274 	.inst	0x63697274 ; undefined
 144:	6c612d74 	ldnp	d20, d11, [x11, #-496]
 148:	206e6769 	.inst	0x206e6769 ; undefined
 14c:	65676d2d 	fnmls	z13.h, p3/m, z9.h, z7.h
 150:	6172656e 	.inst	0x6172656e ; undefined
 154:	65722d6c 	fmls	z12.h, p3/m, z11.h, z18.h
 158:	6f2d7367 	.inst	0x6f2d7367 ; undefined
 15c:	20796c6e 	.inst	0x20796c6e ; undefined
 160:	696c6d2d 	ldpsw	x13, x27, [x9, #-160]
 164:	656c7474 	fnmls	z20.h, p5/m, z3.h, z12.h
 168:	646e652d 	.inst	0x646e652d ; undefined
 16c:	206e6169 	.inst	0x206e6169 ; undefined
 170:	62616d2d 	.inst	0x62616d2d ; undefined
 174:	706c3d69 	adr	x9, d8923 <stackend+0x35963>
 178:	2d203436 	stp	s22, s13, [x1, #-256]
 17c:	662d2067 	.inst	0x662d2067 ; undefined
 180:	65657266 	fnmls	z6.h, p4/m, z19.h, z5.h
 184:	6e617473 	uabd	v19.8h, v3.8h, v1.8h
 188:	676e6964 	.inst	0x676e6964 ; undefined
 18c:	6e662d20 	uqsub	v0.8h, v9.8h, v6.8h
 190:	75622d6f 	.inst	0x75622d6f ; undefined
 194:	69746c69 	ldpsw	x9, x27, [x3, #-96]
 198:	6175006e 	.inst	0x6175006e ; undefined
 19c:	705f7472 	adr	x18, bf02b <stackend+0x1c06b>
 1a0:	746e6972 	.inst	0x746e6972 ; undefined
 1a4:	61670066 	.inst	0x61670066 ; undefined
 1a8:	0073656d 	.inst	0x0073656d ; undefined
 1ac:	63656863 	.inst	0x63656863 ; undefined
 1b0:	61675f6b 	.inst	0x61675f6b ; undefined
 1b4:	5300656d 	ubfx	w13, w11, #0, #26
 1b8:	00646e65 	.inst	0x00646e65 ; undefined
 1bc:	6c706552 	ldnp	d18, d25, [x10, #-256]
 1c0:	65720079 	fmla	z25.h, p0/m, z3.h, z18.h
 1c4:	74657263 	.inst	0x74657263 ; undefined
 1c8:	64697400 	.inst	0x64697400 ; undefined
 1cc:	63735f31 	.inst	0x63735f31 ; undefined
 1d0:	0065726f 	.inst	0x0065726f ; undefined
 1d4:	32646974 	.inst	0x32646974 ; undefined
 1d8:	766f6d5f 	.inst	0x766f6d5f ; undefined
 1dc:	75710065 	.inst	0x75710065 ; undefined
 1e0:	73007469 	.inst	0x73007469 ; undefined
 1e4:	705f7465 	adr	x5, bf073 <stackend+0x1c0b3>
 1e8:	0079616c 	.inst	0x0079616c ; undefined
 1ec:	656d6167 	fnmls	z7.h, p0/m, z11.h, z13.h
 1f0:	006f6e5f 	.inst	0x006f6e5f ; undefined
 1f4:	65636552 	fnmls	z18.h, p1/m, z10.h, z3.h
 1f8:	00657669 	.inst	0x00657669 ; undefined
 1fc:	72706572 	.inst	0x72706572 ; undefined
 200:	00317465 	.inst	0x00317465 ; NYI
 204:	746e6975 	.inst	0x746e6975 ; undefined
 208:	745f3233 	.inst	0x745f3233 ; undefined
 20c:	6c756600 	ldnp	d0, d25, [x16, #-176]
 210:	6c705f6c 	ldnp	d12, d23, [x27, #-256]
 214:	57007961 	.inst	0x57007961 ; undefined
 218:	73496f68 	.inst	0x73496f68 ; undefined
 21c:	6c756600 	ldnp	d0, d25, [x16, #-176]
 220:	61675f6c 	.inst	0x61675f6c ; undefined
 224:	7600656d 	.inst	0x7600656d ; undefined
 228:	6f746369 	umlsl2	v9.4s, v27.8h, v4.h[3]
 22c:	65720072 	fmla	z18.h, p0/m, z3.h, z18.h
 230:	74657270 	.inst	0x74657270 ; undefined
 234:	6d616700 	ldp	d0, d25, [x24, #-496]
 238:	72657365 	.inst	0x72657365 ; undefined
 23c:	00726576 	.inst	0x00726576 ; undefined
 240:	63746572 	.inst	0x63746572 ; undefined
 244:	00726168 	.inst	0x00726168 ; undefined
 248:	69676552 	ldpsw	x18, x25, [x10, #-200]
 24c:	72657473 	.inst	0x72657473 ; undefined
 250:	72007341 	ands	w1, w26, #0x1fffffff
 254:	74657365 	.inst	0x74657365 ; undefined
 258:	6d61675f 	ldp	d31, d25, [x26, #-496]
 25c:	65720065 	fmla	z5.h, p0/m, z3.h, z18.h
 260:	74657270 	.inst	0x74657270 ; undefined
 264:	69740032 	ldpsw	x18, x0, [x1, #-96]
 268:	6d5f3164 	ldp	d4, d12, [x11, #496]
 26c:	0065766f 	.inst	0x0065766f ; undefined
 270:	32646974 	.inst	0x32646974 ; undefined
 274:	6f63735f 	fcmla	v31.8h, v26.8h, v3.h[1], #270
 278:	63006572 	.inst	0x63006572 ; undefined
 27c:	675f7275 	.inst	0x675f7275 ; undefined
 280:	00656d61 	.inst	0x00656d61 ; undefined
 284:	31646974 	adds	w20, w11, #0x91a, lsl #12
 288:	64697400 	.inst	0x64697400 ; undefined
 28c:	69730032 	ldpsw	x18, x0, [x1, #-104]
 290:	70756e67 	adr	x7, eb05f <stackend+0x4809f>
 294:	65695900 	fnmla	z0.h, p6/m, z8.h, z9.h
 298:	7000646c 	adr	x12, f27 <_start-0x7f0d9>
 29c:	65737261 	fnmls	z1.h, p4/m, z19.h, z19.h
 2a0:	6168635f 	.inst	0x6168635f ; undefined
 2a4:	72615f72 	.inst	0x72615f72 ; undefined
 2a8:	00796172 	.inst	0x00796172 ; undefined
 2ac:	5f746572 	.inst	0x5f746572 ; undefined
 2b0:	65646f63 	fnmls	z3.h, p3/m, z27.h, z4.h
 2b4:	54794d00 	b.eq	f2c54 <stackend+0x4fc94>  // b.none
 2b8:	73006469 	.inst	0x73006469 ; undefined
 2bc:	5f646e65 	.inst	0x5f646e65 ; undefined
 2c0:	73726966 	.inst	0x73726966 ; undefined
 2c4:	65725f74 	fnmla	z20.h, p7/m, z27.h, z18.h
 2c8:	76656963 	.inst	0x76656963 ; undefined
 2cc:	65735f65 	fnmla	z5.h, p7/m, z27.h, z19.h
 2d0:	646e6f63 	.inst	0x646e6f63 ; undefined
 2d4:	6d6f6300 	ldp	d0, d24, [x24, #-272]
 2d8:	646e616d 	.inst	0x646e616d ; undefined
 2dc:	6e61635f 	rsubhn2	v31.8h, v26.4s, v1.4s
 2e0:	78450064 	ldurh	w4, [x3, #80]
 2e4:	75007469 	.inst	0x75007469 ; undefined
 2e8:	5f646573 	.inst	0x5f646573 ; undefined
 2ec:	676e656c 	.inst	0x676e656c ; undefined
 2f0:	61006874 	.inst	0x61006874 ; undefined
 2f4:	6e736772 	umax	v18.8h, v27.8h, v19.8h
 2f8:	6572006f 	fmla	z15.h, p0/m, z3.h, z18.h
 2fc:	76656963 	.inst	0x76656963 ; undefined
 300:	69665f65 	ldpsw	x5, x23, [x27, #-208]
 304:	5f747372 	sqdmlsl	s18, h27, v4.h[3]
 308:	646e6573 	.inst	0x646e6573 ; undefined
 30c:	6365735f 	.inst	0x6365735f ; undefined
 310:	00646e6f 	.inst	0x00646e6f ; undefined
 314:	74726175 	.inst	0x74726175 ; undefined
 318:	7465675f 	.inst	0x7465675f ; undefined
 31c:	796d0063 	ldrh	w3, [x3, #5760]
 320:	00646974 	.inst	0x00646974 ; undefined
 324:	6d6d6f63 	ldp	d3, d27, [x27, #-304]
 328:	5f646e61 	.inst	0x5f646e61 ; undefined
 32c:	676e656c 	.inst	0x676e656c ; undefined
 330:	6b006874 	subs	w20, w3, w0, lsl #26
 334:	65735f32 	fnmla	z18.h, p7/m, z25.h, z19.h
 338:	7265646e 	.inst	0x7265646e ; undefined
 33c:	756f6300 	.inst	0x756f6300 ; undefined
 340:	7265746e 	.inst	0x7265746e ; undefined
 344:	5f326b00 	.inst	0x5f326b00 ; undefined
 348:	65636572 	fnmls	z18.h, p1/m, z11.h, z3.h
 34c:	72657669 	.inst	0x72657669 ; undefined
 350:	67726100 	.inst	0x67726100 ; undefined
 354:	65720073 	fmla	z19.h, p0/m, z3.h, z18.h
 358:	76656963 	.inst	0x76656963 ; undefined
 35c:	61745f65 	.inst	0x61745f65 ; undefined
 360:	43006b73 	.inst	0x43006b73 ; undefined
 364:	74616572 	.inst	0x74616572 ; undefined
 368:	67724165 	.inst	0x67724165 ; undefined
 36c:	736d0073 	.inst	0x736d0073 ; undefined
 370:	70657267 	adr	x7, cb1bf <stackend+0x281ff>
 374:	4300796c 	.inst	0x4300796c ; undefined
 378:	74616572 	.inst	0x74616572 ; undefined
 37c:	67724165 	.inst	0x67724165 ; undefined
 380:	73655473 	.inst	0x73655473 ; undefined
 384:	61750074 	.inst	0x61750074 ; undefined
 388:	705f7472 	adr	x18, bf217 <stackend+0x1c257>
 38c:	00737475 	.inst	0x00737475 ; undefined
 390:	6d6d6f63 	ldp	d3, d27, [x27, #-304]
 394:	00646e61 	.inst	0x00646e61 ; undefined
 398:	69616d6b 	ldpsw	x11, x27, [x11, #-248]
 39c:	6e49006e 	.inst	0x6e49006e ; undefined
 3a0:	79537469 	ldrh	w9, [x3, #2490]
 3a4:	61750073 	.inst	0x61750073 ; undefined
 3a8:	695f7472 	ldpsw	x18, x29, [x3, #248]
 3ac:	0074696e 	.inst	0x0074696e ; undefined
 3b0:	43415453 	.inst	0x43415453 ; undefined
 3b4:	4c455f4b 	.inst	0x4c455f4b ; undefined
 3b8:	54535f30 	bc.eq	a6f9c <stackend+0x3fdc>  // bc.none
 3bc:	00545241 	.inst	0x00545241 ; undefined
 3c0:	6e72654b 	umax	v11.8h, v10.8h, v18.8h
 3c4:	72436c65 	.inst	0x72436c65 ; undefined
 3c8:	65746165 	fnmls	z5.h, p0/m, z11.h, z20.h
 3cc:	72617500 	.inst	0x72617500 ; undefined
 3d0:	6f635f74 	.inst	0x6f635f74 ; undefined
 3d4:	6769666e 	.inst	0x6769666e ; undefined
 3d8:	646e615f 	.inst	0x646e615f ; undefined
 3dc:	616e655f 	.inst	0x616e655f ; undefined
 3e0:	00656c62 	.inst	0x00656c62 ; undefined
 3e4:	65646461 	fnmls	z1.h, p1/m, z3.h, z4.h
 3e8:	69750072 	ldpsw	x18, x0, [x3, #-88]
 3ec:	6d006132 	stp	d18, d24, [x9]
 3f0:	7a736773 	.inst	0x7a736773 ; undefined
 3f4:	64697000 	.inst	0x64697000 ; undefined
 3f8:	6d616e5f 	ldp	d31, d27, [x18, #-496]
 3fc:	74007365 	.inst	0x74007365 ; undefined
 400:	735f6469 	.inst	0x735f6469 ; undefined
 404:	44007274 	sqrdmlah	z20.b, z19.b, z0.b
 408:	67657265 	.inst	0x67657265 ; undefined
 40c:	65747369 	fnmls	z9.h, p4/m, z27.h, z20.h
 410:	65730072 	fmla	z18.h, p0/m, z3.h, z19.h
 414:	736d646e 	.inst	0x736d646e ; undefined
 418:	75660067 	.inst	0x75660067 ; undefined
 41c:	6974636e 	ldpsw	x14, x24, [x27, #-96]
 420:	74506e6f 	.inst	0x74506e6f ; undefined
 424:	65670072 	fmla	z18.h, p0/m, z3.h, z7.h
 428:	69745f74 	ldpsw	x20, x23, [x27, #-96]
 42c:	4c72656d 	.inst	0x4c72656d ; undefined
 430:	7473004f 	.inst	0x7473004f ; undefined
 434:	00747261 	.inst	0x00747261 ; undefined
 438:	7361654d 	.inst	0x7361654d ; undefined
 43c:	5f657275 	sqdmlsl	s21, h19, v5.h[2]
 440:	656d6f73 	fnmls	z19.h, p3/m, z27.h, z13.h
 444:	6e696874 	.inst	0x6e696874 ; undefined
 448:	616c5f67 	.inst	0x616c5f67 ; undefined
 44c:	72656772 	.inst	0x72656772 ; undefined
 450:	61654d00 	.inst	0x61654d00 ; undefined
 454:	65727573 	fnmls	z19.h, p5/m, z11.h, z18.h
 458:	6c756d5f 	ldnp	d31, d27, [x10, #-176]
 45c:	6c706974 	ldnp	d20, d26, [x11, #-256]
 460:	69745f65 	ldpsw	x5, x23, [x27, #-96]
 464:	0073656d 	.inst	0x0073656d ; undefined
 468:	79616c70 	ldrh	w16, [x3, #4278]
 46c:	00317265 	.inst	0x00317265 ; NYI
 470:	73726966 	.inst	0x73726966 ; undefined
 474:	61745f74 	.inst	0x61745f74 ; undefined
 478:	74006b73 	.inst	0x74006b73 ; undefined
 47c:	5f747365 	sqdmlsl	s5, h27, v4.h[3]
 480:	656d616e 	fnmls	z14.h, p0/m, z11.h, z13.h
 484:	76726573 	.inst	0x76726573 ; undefined
 488:	70007265 	adr	x5, 12d7 <_start-0x7ed29>
 48c:	6579616c 	fnmls	z12.h, p0/m, z11.h, z25.h
 490:	6d003272 	stp	d18, d12, [x19]
 494:	6d616e79 	ldp	d25, d27, [x19, #-496]
 498:	6c700065 	ldnp	d5, d0, [x3, #-256]
 49c:	725f7961 	.inst	0x725f7961 ; undefined
 4a0:	47007465 	.inst	0x47007465 ; undefined
 4a4:	5f4f4950 	.inst	0x5f4f4950 ; undefined
 4a8:	55504e49 	.inst	0x55504e49 ; undefined
 4ac:	50470054 	adr	x20, 8e4b6 <PROCS+0x6cbe>
 4b0:	505f4f49 	adr	x9, bee9a <stackend+0x1beda>
 4b4:	55005044 	.inst	0x55005044 ; undefined
 4b8:	5f545241 	.inst	0x5f545241 ; undefined
 4bc:	555f5243 	.inst	0x555f5243 ; undefined
 4c0:	45545241 	ssubwb	z1.h, z18.h, z20.b
 4c4:	4155004e 	.inst	0x4155004e ; undefined
 4c8:	4c5f5452 	.inst	0x4c5f5452 ; undefined
 4cc:	5f485243 	.inst	0x5f485243 ; undefined
 4d0:	004e4550 	.inst	0x004e4550 ; undefined
 4d4:	4d495453 	.inst	0x4d495453 ; undefined
 4d8:	495f5245 	.inst	0x495f5245 ; undefined
 4dc:	7300544e 	.inst	0x7300544e ; undefined
 4e0:	69747465 	ldpsw	x5, x29, [x3, #-96]
 4e4:	5300676e 	ubfx	w14, w27, #0, #26
 4e8:	454d4954 	uaddwb	z20.h, z10.h, z13.b
 4ec:	32435f52 	.inst	0x32435f52 ; undefined
 4f0:	6e697500 	uabd	v0.8h, v8.8h, v9.8h
 4f4:	5f343674 	.inst	0x5f343674 ; undefined
 4f8:	41550074 	.inst	0x41550074 ; undefined
 4fc:	435f5452 	.inst	0x435f5452 ; undefined
 500:	54525f52 	bc.cs	a50e8 <stackend+0x2128>  // bc.hs, bc.nlast
 504:	61750053 	.inst	0x61750053 ; undefined
 508:	665f7472 	.inst	0x665f7472 ; undefined
 50c:	616d726f 	.inst	0x616d726f ; undefined
 510:	72705f74 	.inst	0x72705f74 ; undefined
 514:	00746e69 	.inst	0x00746e69 ; undefined
 518:	54524155 	bc.pl	a4d40 <stackend+0x1d80>  // bc.nfrst
 51c:	004b4c43 	.inst	0x004b4c43 ; undefined
 520:	54524155 	bc.pl	a4d48 <stackend+0x1d88>  // bc.nfrst
 524:	5f52435f 	.inst	0x5f52435f ; undefined
 528:	00455852 	.inst	0x00455852 ; undefined
 52c:	69736572 	ldpsw	x18, x25, [x11, #-104]
 530:	726f7473 	.inst	0x726f7473 ; undefined
 534:	74657300 	.inst	0x74657300 ; undefined
 538:	675f7075 	.inst	0x675f7075 ; undefined
 53c:	006f6970 	.inst	0x006f6970 ; undefined
 540:	54524155 	bc.pl	a4d68 <stackend+0x1da8>  // bc.nfrst
 544:	5242495f 	.inst	0x5242495f ; undefined
 548:	41550044 	.inst	0x41550044 ; undefined
 54c:	4c5f5452 	.inst	0x4c5f5452 ; undefined
 550:	5f485243 	.inst	0x5f485243 ; undefined
 554:	004e4546 	.inst	0x004e4546 ; undefined
 558:	4d495453 	.inst	0x4d495453 ; undefined
 55c:	435f5245 	.inst	0x435f5245 ; undefined
 560:	55004f4c 	.inst	0x55004f4c ; undefined
 564:	5f545241 	.inst	0x5f545241 ; undefined
 568:	5f005244 	fmls	h4, h18, v0.h[0]
 56c:	5f72675f 	.inst	0x5f72675f ; undefined
 570:	7366666f 	.inst	0x7366666f ; undefined
 574:	52415500 	.inst	0x52415500 ; undefined
 578:	434c5f54 	.inst	0x434c5f54 ; undefined
 57c:	455f4852 	uaddwb	z18.h, z2.h, z31.b
 580:	73005350 	.inst	0x73005350 ; undefined
 584:	656d6974 	fnmls	z20.h, p2/m, z11.h, z13.h
 588:	61775f72 	.inst	0x61775f72 ; undefined
 58c:	5500656b 	.inst	0x5500656b ; undefined
 590:	5f545241 	.inst	0x5f545241 ; undefined
 594:	525f5246 	.inst	0x525f5246 ; undefined
 598:	00454658 	.inst	0x00454658 ; undefined
 59c:	54524155 	bc.pl	a4dc4 <stackend+0x1e04>  // bc.nfrst
 5a0:	5f52465f 	.inst	0x5f52465f ; undefined
 5a4:	46465852 	.inst	0x46465852 ; undefined
 5a8:	46504700 	.inst	0x46504700 ; undefined
 5ac:	5f4c4553 	.inst	0x5f4c4553 ; undefined
 5b0:	5346464f 	.inst	0x5346464f ; undefined
 5b4:	00535445 	.inst	0x00535445 ; undefined
 5b8:	706d6f63 	adr	x3, db3a7 <stackend+0x383e7>
 5bc:	5f657261 	sqdmlsl	s1, h19, v5.h[2]
 5c0:	6d697473 	ldp	d19, d29, [x3, #-368]
 5c4:	5f007265 	.inst	0x5f007265 ; undefined
 5c8:	5f72765f 	sqshl	d31, d18, #50
 5cc:	00706f74 	.inst	0x00706f74 ; undefined
 5d0:	6d697473 	ldp	d19, d29, [x3, #-368]
 5d4:	735f7265 	.inst	0x735f7265 ; undefined
 5d8:	7a6f6f6e 	.inst	0x7a6f6f6e ; undefined
 5dc:	41550065 	.inst	0x41550065 ; undefined
 5e0:	4c5f5452 	.inst	0x4c5f5452 ; undefined
 5e4:	5f485243 	.inst	0x5f485243 ; undefined
 5e8:	32505453 	.inst	0x32505453 ; undefined
 5ec:	765f5f00 	.inst	0x765f5f00 ; undefined
 5f0:	696c5f61 	ldpsw	x1, x23, [x27, #-160]
 5f4:	47007473 	.inst	0x47007473 ; undefined
 5f8:	5f4f4950 	.inst	0x5f4f4950 ; undefined
 5fc:	00505550 	.inst	0x00505550 ; undefined
 600:	66696873 	.inst	0x66696873 ; undefined
 604:	50470074 	adr	x20, 8e612 <PROCS+0x6e1a>
 608:	505f4f49 	adr	x9, beff2 <stackend+0x1c032>
 60c:	505f5055 	adr	x21, bf016 <stackend+0x1c056>
 610:	435f4e44 	.inst	0x435f4e44 ; undefined
 614:	4c52544e 	.inst	0x4c52544e ; undefined
 618:	46464f5f 	.inst	0x46464f5f ; undefined
 61c:	53544553 	.inst	0x53544553 ; undefined
 620:	52415500 	.inst	0x52415500 ; undefined
 624:	42465f54 	.inst	0x42465f54 ; undefined
 628:	5f004452 	.inst	0x5f004452 ; undefined
 62c:	5f72675f 	.inst	0x5f72675f ; undefined
 630:	00706f74 	.inst	0x00706f74 ; undefined
 634:	656e696c 	fnmls	z12.h, p2/m, z11.h, z14.h
 638:	735f5f00 	.inst	0x735f5f00 ; undefined
 63c:	6b636174 	.inst	0x6b636174 ; undefined
 640:	5f534300 	.inst	0x5f534300 ; undefined
 644:	5500304d 	.inst	0x5500304d ; undefined
 648:	33545241 	.inst	0x33545241 ; undefined
 64c:	5341425f 	.inst	0x5341425f ; undefined
 650:	53430045 	.inst	0x53430045 ; undefined
 654:	00334d5f 	.inst	0x00334d5f ; NYI
 658:	74726175 	.inst	0x74726175 ; undefined
 65c:	7374635f 	.inst	0x7374635f ; undefined
 660:	49504700 	.inst	0x49504700 ; undefined
 664:	554f5f4f 	.inst	0x554f5f4f ; undefined
 668:	54555054 	bc.mi	ab070 <stackend+0x80b0>  // bc.first
 66c:	52415500 	.inst	0x52415500 ; undefined
 670:	52435f54 	.inst	0x52435f54 ; undefined
 674:	5354435f 	.inst	0x5354435f ; undefined
 678:	47004e45 	.inst	0x47004e45 ; undefined
 67c:	5f4f4950 	.inst	0x5f4f4950 ; undefined
 680:	45534142 	saddwb	z2.h, z10.h, z19.b
 684:	75616200 	.inst	0x75616200 ; undefined
 688:	74617264 	.inst	0x74617264 ; undefined
 68c:	74730065 	.inst	0x74730065 ; undefined
 690:	72656d69 	.inst	0x72656d69 ; undefined
 694:	7465675f 	.inst	0x7465675f ; undefined
 698:	53006968 	ubfx	w8, w11, #0, #27
 69c:	454d4954 	uaddwb	z20.h, z10.h, z13.b
 6a0:	48435f52 	ldxrh	w18, [x26]
 6a4:	54530049 	b.ls	a66ac <stackend+0x36ec>  // b.plast
 6a8:	52454d49 	.inst	0x52454d49 ; undefined
 6ac:	0030435f 	.inst	0x0030435f ; NYI
 6b0:	4d495453 	.inst	0x4d495453 ; undefined
 6b4:	435f5245 	.inst	0x435f5245 ; undefined
 6b8:	41550031 	.inst	0x41550031 ; undefined
 6bc:	4c5f5452 	.inst	0x4c5f5452 ; undefined
 6c0:	5f485243 	.inst	0x5f485243 ; undefined
 6c4:	4e454c57 	.inst	0x4e454c57 ; undefined
 6c8:	4749485f 	.inst	0x4749485f ; undefined
 6cc:	54530048 	b.hi	a66d4 <stackend+0x3714>  // b.pmore
 6d0:	52454d49 	.inst	0x52454d49 ; undefined
 6d4:	0033435f 	.inst	0x0033435f ; NYI
 6d8:	74617473 	.inst	0x74617473 ; undefined
 6dc:	47007375 	.inst	0x47007375 ; undefined
 6e0:	5f4f4950 	.inst	0x5f4f4950 ; undefined
 6e4:	46544c41 	.inst	0x46544c41 ; undefined
 6e8:	4700304e 	.inst	0x4700304e ; undefined
 6ec:	5f4f4950 	.inst	0x5f4f4950 ; undefined
 6f0:	46544c41 	.inst	0x46544c41 ; undefined
 6f4:	4700324e 	.inst	0x4700324e ; undefined
 6f8:	5f4f4950 	.inst	0x5f4f4950 ; undefined
 6fc:	46544c41 	.inst	0x46544c41 ; undefined
 700:	4700334e 	.inst	0x4700334e ; undefined
 704:	5f4f4950 	.inst	0x5f4f4950 ; undefined
 708:	46544c41 	.inst	0x46544c41 ; undefined
 70c:	7300354e 	.inst	0x7300354e ; undefined
 710:	00327074 	.inst	0x00327074 ; NYI
 714:	6d697473 	ldp	d19, d29, [x3, #-368]
 718:	675f7265 	.inst	0x675f7265 ; undefined
 71c:	6f6c7465 	uqshl	v5.2d, v3.2d, #44
 720:	49545300 	.inst	0x49545300 ; undefined
 724:	5f52454d 	.inst	0x5f52454d ; undefined
 728:	4f4f4e53 	.inst	0x4f4f4e53 ; undefined
 72c:	4700455a 	.inst	0x4700455a ; undefined
 730:	5f4f4950 	.inst	0x5f4f4950 ; undefined
 734:	454e4f4e 	uaddwt	z14.h, z26.h, z14.b
 738:	49545300 	.inst	0x49545300 ; undefined
 73c:	5f52454d 	.inst	0x5f52454d ; undefined
 740:	6c005343 	stnp	d3, d20, [x26]
 744:	5f656e69 	.inst	0x5f656e69 ; undefined
 748:	74726175 	.inst	0x74726175 ; undefined
 74c:	41550073 	.inst	0x41550073 ; undefined
 750:	465f5452 	.inst	0x465f5452 ; undefined
 754:	4d4d0052 	.inst	0x4d4d0052 ; undefined
 758:	425f4f49 	.inst	0x425f4f49 ; undefined
 75c:	00455341 	.inst	0x00455341 ; undefined
 760:	74726175 	.inst	0x74726175 ; undefined
 764:	6378725f 	.inst	0x6378725f ; undefined
 768:	52415500 	.inst	0x52415500 ; undefined
 76c:	52465f54 	.inst	0x52465f54 ; undefined
 770:	5354435f 	.inst	0x5354435f ; undefined
 774:	52415500 	.inst	0x52415500 ; undefined
 778:	52465f54 	.inst	0x52465f54 ; undefined
 77c:	4658545f 	.inst	0x4658545f ; undefined
 780:	41550045 	.inst	0x41550045 ; undefined
 784:	465f5452 	.inst	0x465f5452 ; undefined
 788:	58545f52 	ldr	x18, a9370 <stackend+0x63b0>
 78c:	43004646 	.inst	0x43004646 ; undefined
 790:	314d5f53 	adds	w19, w26, #0x357, lsl #12
 794:	5f534300 	.inst	0x5f534300 ; undefined
 798:	4700324d 	.inst	0x4700324d ; undefined
 79c:	5f4f4950 	.inst	0x5f4f4950 ; undefined
 7a0:	46544c41 	.inst	0x46544c41 ; undefined
 7a4:	4700314e 	.inst	0x4700314e ; undefined
 7a8:	5f4f4950 	.inst	0x5f4f4950 ; undefined
 7ac:	46544c41 	.inst	0x46544c41 ; undefined
 7b0:	5500344e 	.inst	0x5500344e ; undefined
 7b4:	5f545241 	.inst	0x5f545241 ; undefined
 7b8:	4852434c 	ldxrh	w12, [x26]
 7bc:	52415500 	.inst	0x52415500 ; undefined
 7c0:	52435f54 	.inst	0x52435f54 ; undefined
 7c4:	5354525f 	.inst	0x5354525f ; undefined
 7c8:	55004e45 	.inst	0x55004e45 ; undefined
 7cc:	5f545241 	.inst	0x5f545241 ; undefined
 7d0:	545f5243 	b.cc	bf218 <stackend+0x1c258>  // b.lo, b.ul, b.last
 7d4:	5f004558 	.inst	0x5f004558 ; undefined
 7d8:	756e675f 	.inst	0x756e675f ; undefined
 7dc:	61765f63 	.inst	0x61765f63 ; undefined
 7e0:	73696c5f 	.inst	0x73696c5f ; undefined
 7e4:	5f5f0074 	.inst	0x5f5f0074 ; undefined
 7e8:	6f5f7276 	fcmla	v22.8h, v19.8h, v31.h[0], #270
 7ec:	00736666 	.inst	0x00736666 ; undefined
 7f0:	64756162 	.inst	0x64756162 ; undefined
 7f4:	7669645f 	.inst	0x7669645f ; undefined
 7f8:	726f7369 	.inst	0x726f7369 ; undefined
 7fc:	72617500 	.inst	0x72617500 ; undefined
 800:	75705f74 	.inst	0x75705f74 ; undefined
 804:	55006c74 	.inst	0x55006c74 ; undefined
 808:	5f545241 	.inst	0x5f545241 ; undefined
 80c:	4c5f5243 	.inst	0x4c5f5243 ; undefined
 810:	63004542 	.inst	0x63004542 ; undefined
 814:	74735f72 	.inst	0x74735f72 ; undefined
 818:	00657461 	.inst	0x00657461 ; undefined
 81c:	54524155 	bc.pl	a5044 <stackend+0x2084>  // bc.nfrst
 820:	0052435f 	.inst	0x0052435f ; undefined
 824:	54524155 	bc.pl	a504c <stackend+0x208c>  // bc.nfrst
 828:	52434c5f 	.inst	0x52434c5f ; undefined
 82c:	4c575f48 	.inst	0x4c575f48 ; undefined
 830:	4c5f4e45 	.inst	0x4c5f4e45 ; undefined
 834:	6200574f 	.inst	0x6200574f ; undefined
 838:	006e656c 	.inst	0x006e656c ; undefined
 83c:	54524155 	bc.pl	a5064 <stackend+0x20a4>  // bc.nfrst
 840:	41425f30 	.inst	0x41425f30 ; undefined
 844:	65004553 	.inst	0x65004553 ; undefined
 848:	7974706d 	ldrh	w13, [x3, #6712]
 84c:	6d657449 	ldp	d9, d29, [x2, #-432]
 850:	6e614800 	uqxtn2	v0.8h, v0.4s
 854:	00656c64 	.inst	0x00656c64 ; undefined
 858:	5f646974 	.inst	0x5f646974 ; undefined
 85c:	74736564 	.inst	0x74736564 ; undefined
 860:	72637300 	.inst	0x72637300 ; undefined
 864:	6b636950 	.inst	0x6b636950 ; undefined
 868:	69727000 	ldpsw	x0, x28, [x0, #-112]
 86c:	7469726f 	.inst	0x7469726f ; undefined
 870:	61770079 	.inst	0x61770079 ; undefined
 874:	6e697469 	uabd	v9.8h, v3.8h, v9.8h
 878:	65735f67 	fnmla	z7.h, p7/m, z27.h, z19.h
 87c:	7000646e 	adr	x14, 150b <_start-0x7eaf5>
 880:	74617473 	.inst	0x74617473 ; undefined
 884:	61770065 	.inst	0x61770065 ; undefined
 888:	6e697469 	uabd	v9.8h, v3.8h, v9.8h
 88c:	65725f67 	fnmla	z7.h, p7/m, z27.h, z18.h
 890:	76656963 	.inst	0x76656963 ; undefined
 894:	61745f65 	.inst	0x61745f65 ; undefined
 898:	63006c69 	.inst	0x63006c69 ; undefined
 89c:	49727275 	.inst	0x49727275 ; undefined
 8a0:	006d6574 	.inst	0x006d6574 ; undefined
 8a4:	65637845 	fnmls	z5.h, p6/m, z2.h, z3.h
 8a8:	6f697470 	uqshl	v16.2d, v3.2d, #41
 8ac:	7473006e 	.inst	0x7473006e ; undefined
 8b0:	706b6361 	adr	x1, d751f <stackend+0x3455f>
 8b4:	746e696f 	.inst	0x746e696f ; undefined
 8b8:	63007265 	.inst	0x63007265 ; undefined
 8bc:	65727275 	fnmls	z21.h, p4/m, z19.h, z18.h
 8c0:	6d5f6461 	ldp	d1, d25, [x3, #496]
 8c4:	6d006773 	stp	d19, d25, [x27]
 8c8:	61737365 	.inst	0x61737365 ; undefined
 8cc:	45006567 	.inst	0x45006567 ; undefined
 8d0:	00544958 	.inst	0x00544958 ; undefined
 8d4:	434f4c42 	.inst	0x434f4c42 ; undefined
 8d8:	5f44454b 	.inst	0x5f44454b ; undefined
 8dc:	55455551 	.inst	0x55455551 ; undefined
 8e0:	694b0045 	ldpsw	x5, x0, [x2, #88]
 8e4:	70006c6c 	adr	x12, 1673 <_start-0x7e98d>
 8e8:	6e657261 	uabdl2	v1.4s, v19.8h, v5.8h
 8ec:	72700074 	.inst	0x72700074 ; undefined
 8f0:	7365636f 	.inst	0x7365636f ; undefined
 8f4:	656e0073 	fmla	z19.h, p0/m, z3.h, z14.h
 8f8:	74497478 	.inst	0x74497478 ; undefined
 8fc:	53006d65 	ubfx	w5, w11, #0, #28
 900:	4b434154 	sub	w20, w10, w3, lsr #16
 904:	52415453 	.inst	0x52415453 ; undefined
 908:	61770054 	.inst	0x61770054 ; undefined
 90c:	6e697469 	uabd	v9.8h, v3.8h, v9.8h
 910:	65725f67 	fnmla	z7.h, p7/m, z27.h, z18.h
 914:	76656963 	.inst	0x76656963 ; undefined
 918:	65685f65 	fnmla	z5.h, p7/m, z27.h, z8.h
 91c:	68006461 	.inst	0x68006461 ; undefined
 920:	5f706165 	.inst	0x5f706165 ; undefined
 924:	657a6973 	fnmls	z19.h, p2/m, z11.h, z26.h
 928:	50794d00 	adr	x0, f32ca <stackend+0x5030a>
 92c:	726f6972 	.inst	0x726f6972 ; undefined
 930:	00797469 	.inst	0x00797469 ; undefined
 934:	434f5250 	.inst	0x434f5250 ; undefined
 938:	63730053 	.inst	0x63730053 ; undefined
 93c:	68635372 	.inst	0x68635372 ; undefined
 940:	6c756465 	ldnp	d5, d25, [x3, #-176]
 944:	73650065 	.inst	0x73650065 ; undefined
 948:	6c655f72 	ldnp	d18, d23, [x27, #-432]
 94c:	656d0031 	fmla	z17.h, p0/m, z1.h, z13.h
 950:	67617373 	.inst	0x67617373 ; undefined
 954:	65725f65 	fnmla	z5.h, p7/m, z27.h, z18.h
 958:	76656963 	.inst	0x76656963 ; undefined
 95c:	77006465 	.inst	0x77006465 ; undefined
 960:	69746961 	ldpsw	x1, x26, [x11, #-96]
 964:	725f676e 	.inst	0x725f676e ; undefined
 968:	796c7065 	ldrh	w5, [x3, #5688]
 96c:	50794d00 	adr	x0, f330e <stackend+0x5034e>
 970:	6e657261 	uabdl2	v1.4s, v19.8h, v5.8h
 974:	64695474 	.inst	0x64695474 ; undefined
 978:	6e657300 	uabdl2	v0.4s, v24.8h, v5.8h
 97c:	5f726564 	.inst	0x5f726564 ; undefined
 980:	00646974 	.inst	0x00646974 ; undefined
 984:	72727563 	.inst	0x72727563 ; undefined
 988:	5f646165 	.inst	0x5f646165 ; undefined
 98c:	7373656d 	.inst	0x7373656d ; undefined
 990:	5f656761 	.inst	0x5f656761 ; undefined
 994:	676e656c 	.inst	0x676e656c ; undefined
 998:	73006874 	.inst	0x73006874 ; undefined
 99c:	5f646e65 	.inst	0x5f646e65 ; undefined
 9a0:	706c6568 	adr	x8, d964f <stackend+0x3668f>
 9a4:	66007265 	.inst	0x66007265 ; undefined
 9a8:	74636e75 	.inst	0x74636e75 ; undefined
 9ac:	006e6f69 	.inst	0x006e6f69 ; undefined
 9b0:	64616564 	.inst	0x64616564 ; undefined
 9b4:	61657200 	.inst	0x61657200 ; undefined
 9b8:	69007964 	stgp	x4, x30, [x11]
 9bc:	7265736e 	.inst	0x7265736e ; undefined
 9c0:	45520074 	saddlb	z20.h, z3.b, z18.b
 9c4:	5f594441 	.inst	0x5f594441 ; undefined
 9c8:	55455551 	.inst	0x55455551 ; undefined
 9cc:	65720045 	fmla	z5.h, p0/m, z2.h, z18.h
 9d0:	6c796c70 	ldnp	d16, d27, [x3, #-112]
 9d4:	70006e65 	adr	x5, 17a3 <_start-0x7e85d>
 9d8:	6e657261 	uabdl2	v1.4s, v19.8h, v5.8h
 9dc:	64697074 	.inst	0x64697074 ; undefined
 9e0:	70657200 	adr	x0, cb823 <stackend+0x28863>
 9e4:	625f796c 	.inst	0x625f796c ; undefined
 9e8:	65666675 	fnmls	z21.h, p1/m, z19.h, z6.h
 9ec:	656c5f72 	fnmla	z18.h, p7/m, z27.h, z12.h
 9f0:	6572006e 	fmla	z14.h, p0/m, z3.h, z18.h
 9f4:	74736967 	.inst	0x74736967 ; undefined
 9f8:	61767265 	.inst	0x61767265 ; undefined
 9fc:	7365756c 	.inst	0x7365756c ; undefined
 a00:	73656d00 	.inst	0x73656d00 ; undefined
 a04:	65676173 	fnmls	z19.h, p0/m, z11.h, z7.h
 a08:	6e65735f 	uabdl2	v31.4s, v26.8h, v5.8h
 a0c:	61530074 	.inst	0x61530074 ; undefined
 a10:	71006576 	subs	w22, w11, #0x19
 a14:	65756575 	fnmls	z21.h, p1/m, z11.h, z21.h
 a18:	626e755f 	.inst	0x626e755f ; undefined
 a1c:	6b636f6c 	.inst	0x6b636f6c ; undefined
 a20:	63657200 	.inst	0x63657200 ; undefined
 a24:	65766569 	fnmls	z9.h, p1/m, z11.h, z22.h
 a28:	6c65685f 	ldnp	d31, d26, [x2, #-432]
 a2c:	00726570 	.inst	0x00726570 ; undefined
 a30:	69676542 	ldpsw	x2, x25, [x10, #-200]
 a34:	7562006e 	.inst	0x7562006e ; undefined
 a38:	7000706d 	adr	x13, 1847 <_start-0x7e7b9>
 a3c:	696f7063 	ldpsw	x3, x28, [x3, #-136]
 a40:	7265746e 	.inst	0x7265746e ; undefined
 a44:	70657200 	adr	x0, cb887 <stackend+0x288c7>
 a48:	625f796c 	.inst	0x625f796c ; undefined
 a4c:	65666675 	fnmls	z21.h, p1/m, z19.h, z6.h
 a50:	65720072 	fmla	z18.h, p0/m, z3.h, z18.h
 a54:	5f796c70 	.inst	0x5f796c70 ; undefined
 a58:	706c6568 	adr	x8, d9707 <stackend+0x36747>
 a5c:	53007265 	ubfx	w5, w19, #0, #29
 a60:	49545359 	.inst	0x49545359 ; undefined
 a64:	435f454d 	.inst	0x435f454d ; undefined
 a68:	59530033 	ldapurh	w19, [x1, #-208]
 a6c:	4d495453 	.inst	0x4d495453 ; undefined
 a70:	48435f45 	ldxrh	w5, [x26]
 a74:	59530049 	ldapurh	w9, [x2, #-208]
 a78:	4d495453 	.inst	0x4d495453 ; undefined
 a7c:	31435f45 	adds	w5, w26, #0xd7, lsl #12
 a80:	53595300 	.inst	0x53595300 ; undefined
 a84:	454d4954 	uaddwb	z20.h, z10.h, z13.b
 a88:	0032435f 	.inst	0x0032435f ; NYI
 a8c:	54535953 	bc.cc	a75b4 <stackend+0x45f4>  // bc.lo, bc.ul, bc.last
 a90:	5f454d49 	.inst	0x5f454d49 ; undefined
 a94:	004f4c43 	.inst	0x004f4c43 ; undefined
 a98:	54535953 	bc.cc	a75c0 <stackend+0x4600>  // bc.lo, bc.ul, bc.last
 a9c:	52454d49 	.inst	0x52454d49 ; undefined
 aa0:	5341425f 	.inst	0x5341425f ; undefined
 aa4:	59530045 	ldapurh	w5, [x2, #-208]
 aa8:	4d495453 	.inst	0x4d495453 ; undefined
 aac:	30435f45 	adr	x5, 87695 <STIMER_INT+0x19>
 ab0:	53595300 	.inst	0x53595300 ; undefined
 ab4:	454d4954 	uaddwb	z20.h, z10.h, z13.b
 ab8:	0053435f 	.inst	0x0053435f ; undefined
 abc:	5f746567 	.inst	0x5f746567 ; undefined
 ac0:	656d6974 	fnmls	z20.h, p2/m, z11.h, z13.h
 ac4:	00494872 	.inst	0x00494872 ; undefined
 ac8:	6e697270 	uabdl2	v16.4s, v19.8h, v9.8h
 acc:	73745f74 	.inst	0x73745f74 ; undefined
 ad0:	64656570 	.inst	0x64656570 ; undefined
 ad4:	6c6f6300 	ldnp	d0, d24, [x24, #-272]
 ad8:	006e6d75 	.inst	0x006e6d75 ; undefined
 adc:	706d6574 	adr	x20, db78b <stackend+0x387cb>
 ae0:	65646300 	fnmls	z0.h, p0/m, z24.h, z4.h
 ae4:	6d007473 	stp	d19, d29, [x3]
 ae8:	70636d65 	adr	x5, c7897 <stackend+0x248d7>
 aec:	72700079 	.inst	0x72700079 ; undefined
 af0:	5f746e69 	.inst	0x5f746e69 ; undefined
 af4:	74697773 	.inst	0x74697773 ; undefined
 af8:	72006863 	ands	w3, w3, #0x7ffffff
 afc:	70657473 	adr	x19, cb98b <stackend+0x289cb>
 b00:	65747300 	fnmls	z0.h, p4/m, z24.h, z20.h
 b04:	6d003270 	stp	d16, d12, [x19]
 b08:	65736d65 	fnmls	z5.h, p3/m, z11.h, z19.h
 b0c:	666f0074 	.inst	0x666f0074 ; undefined
 b10:	74657366 	.inst	0x74657366 ; undefined
 b14:	69727000 	ldpsw	x0, x28, [x0, #-112]
 b18:	745f746e 	.inst	0x745f746e ; undefined
 b1c:	00656d69 	.inst	0x00656d69 ; undefined
 b20:	326c6f63 	.inst	0x326c6f63 ; undefined
 b24:	74736300 	.inst	0x74736300 ; undefined
 b28:	70007065 	adr	x5, 1937 <_start-0x7e6c9>
 b2c:	746e6972 	.inst	0x746e6972 ; undefined
 b30:	74736d5f 	.inst	0x74736d5f ; undefined
 b34:	00656d69 	.inst	0x00656d69 ; undefined
 b38:	6e656c61 	umin	v1.8h, v3.8h, v5.8h
 b3c:	776f7200 	.inst	0x776f7200 ; undefined
 b40:	72700032 	.inst	0x72700032 ; undefined
 b44:	5f746e69 	.inst	0x5f746e69 ; undefined
 b48:	736e6573 	.inst	0x736e6573 ; undefined
 b4c:	0073726f 	.inst	0x0073726f ; undefined
 b50:	736e6573 	.inst	0x736e6573 ; undefined
 b54:	705f726f 	adr	x15, bf9a3 <stackend+0x1c9e3>
 b58:	00687375 	.inst	0x00687375 ; undefined
 b5c:	65736162 	fnmls	z2.h, p0/m, z11.h, z19.h
 b60:	6d736100 	ldp	d0, d24, [x8, #-208]
 b64:	2f00532e 	.inst	0x2f00532e ; undefined
 b68:	72657355 	.inst	0x72657355 ; undefined
 b6c:	61642f73 	.inst	0x61642f73 ; undefined
 b70:	6c796372 	ldnp	d18, d24, [x27, #-112]
 b74:	4c2f7569 	.inst	0x4c2f7569 ; undefined
 b78:	61726269 	.inst	0x61726269 ; undefined
 b7c:	432f7972 	.inst	0x432f7972 ; undefined
 b80:	64756f6c 	.inst	0x64756f6c ; undefined
 b84:	726f7453 	.inst	0x726f7453 ; undefined
 b88:	2f656761 	.inst	0x2f656761 ; undefined
 b8c:	44656e4f 	.inst	0x44656e4f ; undefined
 b90:	65766972 	fnmls	z18.h, p2/m, z11.h, z22.h
 b94:	696e552d 	ldpsw	x13, x21, [x9, #-144]
 b98:	73726576 	.inst	0x73726576 ; undefined
 b9c:	6f797469 	uqshl	v9.2d, v3.2d, #57
 ba0:	74615766 	.inst	0x74615766 ; undefined
 ba4:	6f6c7265 	fcmla	v5.8h, v19.8h, v12.h[1], #270
 ba8:	2d302f6f 	stp	s15, s11, [x27, #-128]
 bac:	76696e55 	.inst	0x76696e55 ; undefined
 bb0:	69737265 	ldpsw	x5, x28, [x19, #-104]
 bb4:	342f7974 	cbz	w20, 5fae0 <_start-0x20520>
 bb8:	53432f41 	.inst	0x53432f41 ; undefined
 bbc:	2f323534 	ursra	v20.2s, v9.2s, #14
 bc0:	35347363 	cbnz	w3, 69a2c <_start-0x165d4>
 bc4:	72742d32 	.inst	0x72742d32 ; undefined
 bc8:	736e6961 	.inst	0x736e6961 ; undefined
 bcc:	00326b2f 	.inst	0x00326b2f ; NYI
 bd0:	20554e47 	.inst	0x20554e47 ; undefined
 bd4:	32205341 	orr	w1, w26, #0x1fffff
 bd8:	2e30342e 	cmhi	v14.8b, v1.8b, v16.8b
 bdc:	6f620030 	mla	v16.8h, v1.8h, v2.h[2]
 be0:	532e746f 	.inst	0x532e746f ; undefined
 be4:	63657600 	.inst	0x63657600 ; undefined
 be8:	2e726f74 	umin	v20.4h, v27.4h, v18.4h
 bec:	Address 0xbec is out of bounds.


Disassembly of section .debug_line_str:

0000000000000000 <.debug_line_str>:
   0:	74737563 	.inst	0x74737563 ; undefined
   4:	2e727473 	uabd	v19.4h, v3.4h, v18.4h
   8:	552f0063 	.inst	0x552f0063 ; undefined
   c:	73726573 	.inst	0x73726573 ; undefined
  10:	7261642f 	.inst	0x7261642f ; undefined
  14:	696c7963 	ldpsw	x3, x30, [x11, #-160]
  18:	694c2f75 	ldpsw	x21, x11, [x27, #96]
  1c:	72617262 	.inst	0x72617262 ; undefined
  20:	6c432f79 	ldnp	d25, d11, [x27, #48]
  24:	5364756f 	.inst	0x5364756f ; undefined
  28:	61726f74 	.inst	0x61726f74 ; undefined
  2c:	4f2f6567 	.inst	0x4f2f6567 ; undefined
  30:	7244656e 	.inst	0x7244656e ; undefined
  34:	2d657669 	ldp	s9, s29, [x19, #-216]
  38:	76696e55 	.inst	0x76696e55 ; undefined
  3c:	69737265 	ldpsw	x5, x28, [x19, #-104]
  40:	666f7974 	.inst	0x666f7974 ; undefined
  44:	65746157 	fnmls	z23.h, p0/m, z10.h, z20.h
  48:	6f6f6c72 	.inst	0x6f6f6c72 ; undefined
  4c:	552d302f 	.inst	0x552d302f ; undefined
  50:	6576696e 	fnmls	z14.h, p2/m, z11.h, z22.h
  54:	74697372 	.inst	0x74697372 ; undefined
  58:	41342f79 	.inst	0x41342f79 ; undefined
  5c:	3453432f 	cbz	w15, a68c0 <stackend+0x3900>
  60:	632f3235 	.inst	0x632f3235 ; undefined
  64:	32353473 	orr	w19, w3, #0x1fff800
  68:	6172742d 	.inst	0x6172742d ; undefined
  6c:	2f736e69 	.inst	0x2f736e69 ; undefined
  70:	2f00326b 	.inst	0x2f00326b ; undefined
  74:	72657355 	.inst	0x72657355 ; undefined
  78:	61642f73 	.inst	0x61642f73 ; undefined
  7c:	6c796372 	ldnp	d18, d24, [x27, #-112]
  80:	622f7569 	.inst	0x622f7569 ; undefined
  84:	782f6e69 	.inst	0x782f6e69 ; undefined
  88:	2f766564 	.inst	0x2f766564 ; undefined
  8c:	2f62696c 	umlsl	v12.4s, v11.4h, v2.h[6]
  90:	2f636367 	umlsl	v7.4s, v27.4h, v3.h[2]
  94:	63726161 	.inst	0x63726161 ; undefined
  98:	2d343668 	stp	s8, s13, [x19, #-96]
  9c:	656e6f6e 	fnmls	z14.h, p3/m, z27.h, z14.h
  a0:	666c652d 	.inst	0x666c652d ; undefined
  a4:	2e32312f 	usubw	v15.8h, v9.8h, v18.8b
  a8:	2f312e33 	.inst	0x2f312e33 ; undefined
  ac:	6c636e69 	ldnp	d9, d27, [x19, #-464]
  b0:	00656475 	.inst	0x00656475 ; undefined
  b4:	64647473 	.inst	0x64647473 ; undefined
  b8:	682e6665 	.inst	0x682e6665 ; undefined
  bc:	64747300 	.inst	0x64747300 ; undefined
  c0:	2d746e69 	ldp	s9, s27, [x19, #-96]
  c4:	2e636367 	rsubhn	v7.4h, v27.4s, v3.4s
  c8:	70720068 	adr	x8, e40d7 <stackend+0x41117>
  cc:	00682e69 	.inst	0x00682e69 ; undefined
  d0:	6c697475 	ldnp	d21, d29, [x3, #-368]
  d4:	6400682e 	.inst	0x6400682e ; undefined
  d8:	67756265 	.inst	0x67756265 ; undefined
  dc:	6e697270 	uabdl2	v16.4s, v19.8h, v9.8h
  e0:	00632e74 	.inst	0x00632e74 ; undefined
  e4:	656d6167 	fnmls	z7.h, p0/m, z11.h, z13.h
  e8:	76726573 	.inst	0x76726573 ; undefined
  ec:	632e7265 	.inst	0x632e7265 ; undefined
  f0:	73797300 	.inst	0x73797300 ; undefined
  f4:	6c6c6163 	ldnp	d3, d24, [x11, #-320]
  f8:	6e00682e 	ext	v14.16b, v1.16b, v0.16b, #13
  fc:	73656d61 	.inst	0x73656d61 ; undefined
 100:	65767265 	fnmls	z5.h, p4/m, z19.h, z22.h
 104:	00682e72 	.inst	0x00682e72 ; undefined
 108:	74737563 	.inst	0x74737563 ; undefined
 10c:	2e727473 	uabd	v19.4h, v3.4h, v18.4h
 110:	326b0068 	.inst	0x326b0068 ; undefined
 114:	6d69745f 	ldp	d31, d29, [x2, #-368]
 118:	65745f65 	fnmla	z5.h, p7/m, z27.h, z20.h
 11c:	2e737473 	uabd	v19.4h, v3.4h, v19.4h
 120:	616d0063 	.inst	0x616d0063 ; undefined
 124:	632e6e69 	.inst	0x632e6e69 ; undefined
 128:	6d616700 	ldp	d0, d25, [x24, #-496]
 12c:	72657365 	.inst	0x72657365 ; undefined
 130:	2e726576 	umax	v22.4h, v11.4h, v18.4h
 134:	326b0068 	.inst	0x326b0068 ; undefined
 138:	6d69745f 	ldp	d31, d29, [x2, #-368]
 13c:	65745f65 	fnmla	z5.h, p7/m, z27.h, z20.h
 140:	2e737473 	uabd	v19.4h, v3.4h, v19.4h
 144:	616e0068 	.inst	0x616e0068 ; undefined
 148:	6573656d 	fnmls	z13.h, p1/m, z11.h, z19.h
 14c:	72657672 	.inst	0x72657672 ; undefined
 150:	7000632e 	adr	x14, db7 <_start-0x7f249>
 154:	6f667265 	fcmla	v5.8h, v19.8h, v6.h[1], #270
 158:	6e616d72 	umin	v18.8h, v11.8h, v1.8h
 15c:	656d6563 	fnmls	z3.h, p1/m, z11.h, z13.h
 160:	72757361 	.inst	0x72757361 ; undefined
 164:	00632e65 	.inst	0x00632e65 ; undefined
 168:	74737973 	.inst	0x74737973 ; undefined
 16c:	72656d69 	.inst	0x72656d69 ; undefined
 170:	7000682e 	adr	x14, e77 <_start-0x7f189>
 174:	65636f72 	fnmls	z18.h, p3/m, z27.h, z3.h
 178:	73657373 	.inst	0x73657373 ; undefined
 17c:	7200632e 	ands	w14, w25, #0x1ffffff
 180:	632e6970 	.inst	0x632e6970 ; undefined
 184:	64747300 	.inst	0x64747300 ; undefined
 188:	2e677261 	uabdl	v1.4s, v19.4h, v7.4h
 18c:	623c0068 	.inst	0x623c0068 ; undefined
 190:	746c6975 	.inst	0x746c6975 ; undefined
 194:	3e6e692d 	.inst	0x3e6e692d ; undefined
 198:	73797300 	.inst	0x73797300 ; undefined
 19c:	6c6c6163 	ldnp	d3, d24, [x11, #-320]
 1a0:	6100632e 	.inst	0x6100632e ; undefined
 1a4:	682e6d73 	.inst	0x682e6d73 ; undefined
 1a8:	73797300 	.inst	0x73797300 ; undefined
 1ac:	656d6974 	fnmls	z20.h, p2/m, z11.h, z13.h
 1b0:	00632e72 	.inst	0x00632e72 ; undefined
 1b4:	6c697475 	ldnp	d21, d29, [x3, #-368]
 1b8:	6100632e 	.inst	0x6100632e ; undefined
 1bc:	532e6d73 	.inst	0x532e6d73 ; undefined
 1c0:	6f6f6200 	umlsl2	v0.4s, v16.8h, v15.h[2]
 1c4:	00532e74 	.inst	0x00532e74 ; undefined
 1c8:	74636576 	.inst	0x74636576 ; undefined
 1cc:	532e726f 	.inst	0x532e726f ; undefined
	...

Disassembly of section .comment:

0000000000000000 <.comment>:
   0:	3a434347 	ccmn	w26, w3, #0x7, mi	// mi = first
   4:	72412820 	.inst	0x72412820 ; undefined
   8:	4e47206d 	.inst	0x4e47206d ; undefined
   c:	6f542055 	umlal2	v21.4s, v2.8h, v4.h[1]
  10:	68636c6f 	.inst	0x68636c6f ; undefined
  14:	206e6961 	.inst	0x206e6961 ; undefined
  18:	332e3231 	.inst	0x332e3231 ; undefined
  1c:	6c65522e 	ldnp	d14, d20, [x17, #-432]
  20:	42282031 	.inst	0x42282031 ; undefined
  24:	646c6975 	.inst	0x646c6975 ; undefined
  28:	6d726120 	ldp	d0, d24, [x9, #-224]
  2c:	2e32312d 	usubw	v13.8h, v9.8h, v18.8b
  30:	29293533 	stp	w19, w13, [x9, #-184]
  34:	2e323120 	usubw	v0.8h, v9.8h, v18.8b
  38:	20312e33 	.inst	0x20312e33 ; undefined
  3c:	33323032 	.inst	0x33323032 ; undefined
  40:	36323630 	tbz	w16, #6, 4704 <_start-0x7b8fc>
	...

Disassembly of section .debug_frame:

0000000000000000 <.debug_frame>:
   0:	0000000c 	udf	#12
   4:	ffffffff 	.inst	0xffffffff ; undefined
   8:	78040001 	sturh	w1, [x0, #64]
   c:	001f0c1e 	.inst	0x001f0c1e ; undefined
  10:	0000001c 	udf	#28
  14:	00000000 	udf	#0
  18:	00080800 	.inst	0x00080800 ; undefined
  1c:	00000000 	udf	#0
  20:	00000028 	udf	#40
  24:	00000000 	udf	#0
  28:	48100e41 	stxrh	w16, w1, [x18]
  2c:	0000000e 	udf	#14
  30:	0000001c 	udf	#28
  34:	00000000 	udf	#0
  38:	00080828 	.inst	0x00080828 ; undefined
  3c:	00000000 	udf	#0
  40:	00000078 	udf	#120
  44:	00000000 	udf	#0
  48:	5c100e41 	ldr	d1, 20210 <_start-0x5fdf0>
  4c:	0000000e 	udf	#14
  50:	00000024 	udf	#36
  54:	00000000 	udf	#0
  58:	000808a0 	.inst	0x000808a0 ; undefined
  5c:	00000000 	udf	#0
  60:	00000098 	udf	#152
  64:	00000000 	udf	#0
  68:	9d300e41 	.inst	0x9d300e41 ; undefined
  6c:	64059e06 	.inst	0x64059e06 ; undefined
  70:	000eddde 	.inst	0x000eddde ; undefined
  74:	00000000 	udf	#0
  78:	00000024 	udf	#36
  7c:	00000000 	udf	#0
  80:	00080938 	.inst	0x00080938 ; undefined
  84:	00000000 	udf	#0
  88:	0000007c 	udf	#124
  8c:	00000000 	udf	#0
  90:	9d300e41 	.inst	0x9d300e41 ; undefined
  94:	5d059e06 	.inst	0x5d059e06 ; undefined
  98:	000eddde 	.inst	0x000eddde ; undefined
  9c:	00000000 	udf	#0
  a0:	0000001c 	udf	#28
  a4:	00000000 	udf	#0
  a8:	000809b4 	.inst	0x000809b4 ; undefined
  ac:	00000000 	udf	#0
  b0:	000000c8 	udf	#200
  b4:	00000000 	udf	#0
  b8:	70200e41 	adr	x1, 40283 <_start-0x3fd7d>
  bc:	0000000e 	udf	#14
  c0:	0000001c 	udf	#28
  c4:	00000000 	udf	#0
  c8:	00080a7c 	.inst	0x00080a7c ; undefined
  cc:	00000000 	udf	#0
  d0:	0000008c 	udf	#140
  d4:	00000000 	udf	#0
  d8:	61100e41 	.inst	0x61100e41 ; undefined
  dc:	0000000e 	udf	#14
  e0:	0000001c 	udf	#28
  e4:	00000000 	udf	#0
  e8:	00080b08 	.inst	0x00080b08 ; undefined
  ec:	00000000 	udf	#0
  f0:	00000098 	udf	#152
  f4:	00000000 	udf	#0
  f8:	64200e41 	.inst	0x64200e41 ; undefined
  fc:	0000000e 	udf	#14
 100:	0000001c 	udf	#28
 104:	00000000 	udf	#0
 108:	00080ba0 	.inst	0x00080ba0 ; undefined
 10c:	00000000 	udf	#0
 110:	0000001c 	udf	#28
 114:	00000000 	udf	#0
 118:	45100e41 	.inst	0x45100e41 ; undefined
 11c:	0000000e 	udf	#14
 120:	0000001c 	udf	#28
 124:	00000000 	udf	#0
 128:	00080bbc 	.inst	0x00080bbc ; undefined
 12c:	00000000 	udf	#0
 130:	000000d4 	udf	#212
 134:	00000000 	udf	#0
 138:	73300e41 	.inst	0x73300e41 ; undefined
 13c:	0000000e 	udf	#14
 140:	0000001c 	udf	#28
 144:	00000000 	udf	#0
 148:	00080c90 	.inst	0x00080c90 ; undefined
 14c:	00000000 	udf	#0
 150:	000000a4 	udf	#164
 154:	00000000 	udf	#0
 158:	67300e41 	.inst	0x67300e41 ; undefined
 15c:	0000000e 	udf	#14
 160:	00000024 	udf	#36
 164:	00000000 	udf	#0
 168:	00080d34 	.inst	0x00080d34 ; undefined
 16c:	00000000 	udf	#0
 170:	000000b4 	udf	#180
 174:	00000000 	udf	#0
 178:	9d300e41 	.inst	0x9d300e41 ; undefined
 17c:	6b059e06 	.inst	0x6b059e06 ; undefined
 180:	000eddde 	.inst	0x000eddde ; undefined
 184:	00000000 	udf	#0
 188:	0000000c 	udf	#12
 18c:	ffffffff 	.inst	0xffffffff ; undefined
 190:	78040001 	sturh	w1, [x0, #64]
 194:	001f0c1e 	.inst	0x001f0c1e ; undefined
 198:	0000001c 	udf	#28
 19c:	00000188 	udf	#392
 1a0:	00080de8 	.inst	0x00080de8 ; undefined
 1a4:	00000000 	udf	#0
 1a8:	00000040 	udf	#64
 1ac:	00000000 	udf	#0
 1b0:	4e100e41 	.inst	0x4e100e41 ; undefined
 1b4:	0000000e 	udf	#14
 1b8:	00000024 	udf	#36
 1bc:	00000188 	udf	#392
 1c0:	00080e28 	.inst	0x00080e28 ; undefined
 1c4:	00000000 	udf	#0
 1c8:	0000004c 	udf	#76
 1cc:	00000000 	udf	#0
 1d0:	9d200e41 	.inst	0x9d200e41 ; undefined
 1d4:	51039e04 	sub	w4, w16, #0xe7
 1d8:	000eddde 	.inst	0x000eddde ; undefined
 1dc:	00000000 	udf	#0
 1e0:	00000024 	udf	#36
 1e4:	00000188 	udf	#392
 1e8:	00080e74 	.inst	0x00080e74 ; undefined
 1ec:	00000000 	udf	#0
 1f0:	00000160 	udf	#352
 1f4:	00000000 	udf	#0
 1f8:	9d400e41 	.inst	0x9d400e41 ; undefined
 1fc:	02079e08 	.inst	0x02079e08 ; undefined
 200:	0eddde56 	.inst	0x0eddde56 ; undefined
 204:	00000000 	udf	#0
 208:	0000001c 	udf	#28
 20c:	00000188 	udf	#392
 210:	00080fd4 	.inst	0x00080fd4 ; undefined
 214:	00000000 	udf	#0
 218:	00000024 	udf	#36
 21c:	00000000 	udf	#0
 220:	47100e41 	.inst	0x47100e41 ; undefined
 224:	0000000e 	udf	#14
 228:	00000024 	udf	#36
 22c:	00000188 	udf	#392
 230:	00080ff8 	.inst	0x00080ff8 ; undefined
 234:	00000000 	udf	#0
 238:	00000284 	udf	#644
 23c:	00000000 	udf	#0
 240:	9d200e41 	.inst	0x9d200e41 ; undefined
 244:	02039e04 	.inst	0x02039e04 ; undefined
 248:	0eddde9f 	.inst	0x0eddde9f ; undefined
 24c:	00000000 	udf	#0
 250:	0000001c 	udf	#28
 254:	00000188 	udf	#392
 258:	0008127c 	.inst	0x0008127c ; undefined
 25c:	00000000 	udf	#0
 260:	00000508 	udf	#1288
 264:	00000000 	udf	#0
 268:	03f00e41 	.inst	0x03f00e41 ; undefined
 26c:	3d9e3e9d 	str	q29, [x20, #30960]
 270:	00000024 	udf	#36
 274:	00000188 	udf	#392
 278:	00081784 	.inst	0x00081784 ; undefined
 27c:	00000000 	udf	#0
 280:	00000044 	udf	#68
 284:	00000000 	udf	#0
 288:	9d300e41 	.inst	0x9d300e41 ; undefined
 28c:	4f059e06 	.inst	0x4f059e06 ; undefined
 290:	000eddde 	.inst	0x000eddde ; undefined
 294:	00000000 	udf	#0
 298:	00000024 	udf	#36
 29c:	00000188 	udf	#392
 2a0:	000817c8 	.inst	0x000817c8 ; undefined
 2a4:	00000000 	udf	#0
 2a8:	00000044 	udf	#68
 2ac:	00000000 	udf	#0
 2b0:	9d300e41 	.inst	0x9d300e41 ; undefined
 2b4:	4f059e06 	.inst	0x4f059e06 ; undefined
 2b8:	000eddde 	.inst	0x000eddde ; undefined
 2bc:	00000000 	udf	#0
 2c0:	00000024 	udf	#36
 2c4:	00000188 	udf	#392
 2c8:	0008180c 	.inst	0x0008180c ; undefined
 2cc:	00000000 	udf	#0
 2d0:	0000004c 	udf	#76
 2d4:	00000000 	udf	#0
 2d8:	9d400e41 	.inst	0x9d400e41 ; undefined
 2dc:	51079e08 	sub	w8, w16, #0x1e7
 2e0:	000eddde 	.inst	0x000eddde ; undefined
 2e4:	00000000 	udf	#0
 2e8:	0000000c 	udf	#12
 2ec:	ffffffff 	.inst	0xffffffff ; undefined
 2f0:	78040001 	sturh	w1, [x0, #64]
 2f4:	001f0c1e 	.inst	0x001f0c1e ; undefined
 2f8:	00000044 	udf	#68
 2fc:	000002e8 	udf	#744
 300:	00081858 	.inst	0x00081858 ; undefined
 304:	00000000 	udf	#0
 308:	00000204 	udf	#516
 30c:	00000000 	udf	#0
 310:	01e00e41 	.inst	0x01e00e41 ; undefined
 314:	1b9e1c9d 	.inst	0x1b9e1c9d ; undefined
 318:	451d0d41 	.inst	0x451d0d41 ; undefined
 31c:	19941a93 	.inst	0x19941a93 ; undefined
 320:	17961895 	b	fffffffffe586574 <e0stackend+0xfffffffffe3a35b4>
 324:	15981697 	b	6605d80 <e0stackend+0x6422dc0>
 328:	139a1499 	extr	w25, w4, w26, #5
 32c:	7902129b 	strh	w27, [x20, #264]
 330:	d9dbddde 	.inst	0xd9dbddde ; undefined
 334:	d5d8d7da 	.inst	0xd5d8d7da ; undefined
 338:	0cd4d3d6 	.inst	0x0cd4d3d6 ; undefined
 33c:	0000001f 	udf	#31
 340:	00000044 	udf	#68
 344:	000002e8 	udf	#744
 348:	00081a5c 	.inst	0x00081a5c ; undefined
 34c:	00000000 	udf	#0
 350:	00000214 	udf	#532
 354:	00000000 	udf	#0
 358:	01f00e41 	.inst	0x01f00e41 ; undefined
 35c:	1d9e1e9d 	.inst	0x1d9e1e9d ; undefined
 360:	451d0d41 	.inst	0x451d0d41 ; undefined
 364:	1b941c93 	.inst	0x1b941c93 ; undefined
 368:	19961a95 	.inst	0x19961a95 ; undefined
 36c:	17981897 	b	fffffffffe6065c8 <e0stackend+0xfffffffffe423608>
 370:	159a1699 	b	6685dd4 <e0stackend+0x64a2e14>
 374:	7d02149b 	str	h27, [x4, #266]
 378:	d9dbddde 	.inst	0xd9dbddde ; undefined
 37c:	d5d8d7da 	.inst	0xd5d8d7da ; undefined
 380:	0cd4d3d6 	.inst	0x0cd4d3d6 ; undefined
 384:	0000001f 	udf	#31
 388:	00000024 	udf	#36
 38c:	000002e8 	udf	#744
 390:	00081c70 	.inst	0x00081c70 ; undefined
 394:	00000000 	udf	#0
 398:	0000008c 	udf	#140
 39c:	00000000 	udf	#0
 3a0:	9d300e41 	.inst	0x9d300e41 ; undefined
 3a4:	61059e06 	.inst	0x61059e06 ; undefined
 3a8:	000eddde 	.inst	0x000eddde ; undefined
 3ac:	00000000 	udf	#0
 3b0:	00000024 	udf	#36
 3b4:	000002e8 	udf	#744
 3b8:	00081cfc 	.inst	0x00081cfc ; undefined
 3bc:	00000000 	udf	#0
 3c0:	0000008c 	udf	#140
 3c4:	00000000 	udf	#0
 3c8:	9d300e41 	.inst	0x9d300e41 ; undefined
 3cc:	61059e06 	.inst	0x61059e06 ; undefined
 3d0:	000eddde 	.inst	0x000eddde ; undefined
 3d4:	00000000 	udf	#0
 3d8:	00000024 	udf	#36
 3dc:	000002e8 	udf	#744
 3e0:	00081d88 	.inst	0x00081d88 ; undefined
 3e4:	00000000 	udf	#0
 3e8:	00000044 	udf	#68
 3ec:	00000000 	udf	#0
 3f0:	9d200e41 	.inst	0x9d200e41 ; undefined
 3f4:	4f039e04 	.inst	0x4f039e04 ; undefined
 3f8:	000eddde 	.inst	0x000eddde ; undefined
 3fc:	00000000 	udf	#0
 400:	0000002c 	udf	#44
 404:	000002e8 	udf	#744
 408:	00081dcc 	.inst	0x00081dcc ; undefined
 40c:	00000000 	udf	#0
 410:	000001ac 	udf	#428
 414:	00000000 	udf	#0
 418:	0d900e41 	st1	{v1.b}[3], [x18], x16
 41c:	01d29d41 	.inst	0x01d29d41 ; undefined
 420:	0201d19e 	.inst	0x0201d19e ; undefined
 424:	0ededd68 	.inst	0x0ededd68 ; undefined
	...
 430:	00000024 	udf	#36
 434:	000002e8 	udf	#744
 438:	00081f78 	.inst	0x00081f78 ; undefined
 43c:	00000000 	udf	#0
 440:	00000020 	udf	#32
 444:	00000000 	udf	#0
 448:	9d100e41 	.inst	0x9d100e41 ; undefined
 44c:	46019e02 	.inst	0x46019e02 ; undefined
 450:	000eddde 	.inst	0x000eddde ; undefined
 454:	00000000 	udf	#0
 458:	00000024 	udf	#36
 45c:	000002e8 	udf	#744
 460:	00081f98 	.inst	0x00081f98 ; undefined
 464:	00000000 	udf	#0
 468:	00000154 	udf	#340
 46c:	00000000 	udf	#0
 470:	9d500e41 	.inst	0x9d500e41 ; undefined
 474:	02099e0a 	.inst	0x02099e0a ; undefined
 478:	0eddde53 	.inst	0x0eddde53 ; undefined
 47c:	00000000 	udf	#0
 480:	0000000c 	udf	#12
 484:	ffffffff 	.inst	0xffffffff ; undefined
 488:	78040001 	sturh	w1, [x0, #64]
 48c:	001f0c1e 	.inst	0x001f0c1e ; undefined
 490:	0000001c 	udf	#28
 494:	00000480 	udf	#1152
 498:	000820ec 	.inst	0x000820ec ; undefined
 49c:	00000000 	udf	#0
 4a0:	00000078 	udf	#120
 4a4:	00000000 	udf	#0
 4a8:	5c200e41 	ldr	d1, 40670 <_start-0x3f990>
 4ac:	0000000e 	udf	#14
 4b0:	00000024 	udf	#36
 4b4:	00000480 	udf	#1152
 4b8:	00082164 	.inst	0x00082164 ; undefined
 4bc:	00000000 	udf	#0
 4c0:	0000012c 	udf	#300
 4c4:	00000000 	udf	#0
 4c8:	41400e41 	.inst	0x41400e41 ; undefined
 4cc:	059e069d 	mov	z29.s, p14/z, #52
 4d0:	dedd4802 	.inst	0xdedd4802 ; undefined
 4d4:	0000000e 	udf	#14
 4d8:	0000000c 	udf	#12
 4dc:	ffffffff 	.inst	0xffffffff ; undefined
 4e0:	78040001 	sturh	w1, [x0, #64]
 4e4:	001f0c1e 	.inst	0x001f0c1e ; undefined
 4e8:	00000024 	udf	#36
 4ec:	000004d8 	udf	#1240
 4f0:	00082290 	.inst	0x00082290 ; undefined
 4f4:	00000000 	udf	#0
 4f8:	00000350 	udf	#848
 4fc:	00000000 	udf	#0
 500:	40c00e42 	.inst	0x40c00e42 ; undefined
 504:	08889d41 	stlrb	w1, [x10]
 508:	0008879e 	.inst	0x0008879e ; undefined
 50c:	00000000 	udf	#0
 510:	00000024 	udf	#36
 514:	000004d8 	udf	#1240
 518:	000825e0 	.inst	0x000825e0 ; undefined
 51c:	00000000 	udf	#0
 520:	00000084 	udf	#132
 524:	00000000 	udf	#0
 528:	01900e41 	.inst	0x01900e41 ; undefined
 52c:	119e129d 	.inst	0x119e129d ; undefined
 530:	0eddde5f 	.inst	0x0eddde5f ; undefined
 534:	00000000 	udf	#0
 538:	00000024 	udf	#36
 53c:	000004d8 	udf	#1240
 540:	00082664 	.inst	0x00082664 ; undefined
 544:	00000000 	udf	#0
 548:	0000009c 	udf	#156
 54c:	00000000 	udf	#0
 550:	01a00e41 	.inst	0x01a00e41 ; undefined
 554:	139e149d 	extr	w29, w4, w30, #5
 558:	0eddde65 	.inst	0x0eddde65 ; undefined
 55c:	00000000 	udf	#0
 560:	00000024 	udf	#36
 564:	000004d8 	udf	#1240
 568:	00082700 	.inst	0x00082700 ; undefined
 56c:	00000000 	udf	#0
 570:	00000078 	udf	#120
 574:	00000000 	udf	#0
 578:	01900e41 	.inst	0x01900e41 ; undefined
 57c:	119e129d 	.inst	0x119e129d ; undefined
 580:	0eddde5c 	.inst	0x0eddde5c ; undefined
 584:	00000000 	udf	#0
 588:	0000000c 	udf	#12
 58c:	ffffffff 	.inst	0xffffffff ; undefined
 590:	78040001 	sturh	w1, [x0, #64]
 594:	001f0c1e 	.inst	0x001f0c1e ; undefined
 598:	00000024 	udf	#36
 59c:	00000588 	udf	#1416
 5a0:	00082778 	.inst	0x00082778 ; undefined
 5a4:	00000000 	udf	#0
 5a8:	00000084 	udf	#132
 5ac:	00000000 	udf	#0
 5b0:	9d300e41 	.inst	0x9d300e41 ; undefined
 5b4:	5f059e06 	.inst	0x5f059e06 ; undefined
 5b8:	000eddde 	.inst	0x000eddde ; undefined
 5bc:	00000000 	udf	#0
 5c0:	00000024 	udf	#36
 5c4:	00000588 	udf	#1416
 5c8:	000827fc 	.inst	0x000827fc ; undefined
 5cc:	00000000 	udf	#0
 5d0:	00000084 	udf	#132
 5d4:	00000000 	udf	#0
 5d8:	9d300e41 	.inst	0x9d300e41 ; undefined
 5dc:	5f059e06 	.inst	0x5f059e06 ; undefined
 5e0:	000eddde 	.inst	0x000eddde ; undefined
 5e4:	00000000 	udf	#0
 5e8:	0000000c 	udf	#12
 5ec:	ffffffff 	.inst	0xffffffff ; undefined
 5f0:	78040001 	sturh	w1, [x0, #64]
 5f4:	001f0c1e 	.inst	0x001f0c1e ; undefined
 5f8:	00000024 	udf	#36
 5fc:	000005e8 	udf	#1512
 600:	00082880 	.inst	0x00082880 ; undefined
 604:	00000000 	udf	#0
 608:	000000e0 	udf	#224
 60c:	00000000 	udf	#0
 610:	9d200e41 	.inst	0x9d200e41 ; undefined
 614:	76039e04 	.inst	0x76039e04 ; undefined
 618:	000eddde 	.inst	0x000eddde ; undefined
 61c:	00000000 	udf	#0
 620:	00000024 	udf	#36
 624:	000005e8 	udf	#1512
 628:	00082960 	.inst	0x00082960 ; undefined
 62c:	00000000 	udf	#0
 630:	00000098 	udf	#152
 634:	00000000 	udf	#0
 638:	9d200e41 	.inst	0x9d200e41 ; undefined
 63c:	64039e04 	.inst	0x64039e04 ; undefined
 640:	000eddde 	.inst	0x000eddde ; undefined
 644:	00000000 	udf	#0
 648:	00000024 	udf	#36
 64c:	000005e8 	udf	#1512
 650:	000829f8 	.inst	0x000829f8 ; undefined
 654:	00000000 	udf	#0
 658:	00000098 	udf	#152
 65c:	00000000 	udf	#0
 660:	9d200e41 	.inst	0x9d200e41 ; undefined
 664:	64039e04 	.inst	0x64039e04 ; undefined
 668:	000eddde 	.inst	0x000eddde ; undefined
 66c:	00000000 	udf	#0
 670:	00000024 	udf	#36
 674:	000005e8 	udf	#1512
 678:	00082a90 	.inst	0x00082a90 ; undefined
 67c:	00000000 	udf	#0
 680:	00000018 	udf	#24
 684:	00000000 	udf	#0
 688:	9d100e41 	.inst	0x9d100e41 ; undefined
 68c:	44019e02 	.inst	0x44019e02 ; undefined
 690:	000eddde 	.inst	0x000eddde ; undefined
 694:	00000000 	udf	#0
 698:	0000000c 	udf	#12
 69c:	ffffffff 	.inst	0xffffffff ; undefined
 6a0:	78040001 	sturh	w1, [x0, #64]
 6a4:	001f0c1e 	.inst	0x001f0c1e ; undefined
 6a8:	0000001c 	udf	#28
 6ac:	00000698 	udf	#1688
 6b0:	00082aa8 	.inst	0x00082aa8 ; undefined
 6b4:	00000000 	udf	#0
 6b8:	00000188 	udf	#392
 6bc:	00000000 	udf	#0
 6c0:	02200e41 	.inst	0x02200e41 ; undefined
 6c4:	00000e60 	udf	#3680
 6c8:	00000024 	udf	#36
 6cc:	00000698 	udf	#1688
 6d0:	00082c30 	.inst	0x00082c30 ; undefined
 6d4:	00000000 	udf	#0
 6d8:	000000a4 	udf	#164
 6dc:	00000000 	udf	#0
 6e0:	9d100e41 	.inst	0x9d100e41 ; undefined
 6e4:	67019e02 	.inst	0x67019e02 ; undefined
 6e8:	000eddde 	.inst	0x000eddde ; undefined
 6ec:	00000000 	udf	#0
 6f0:	0000001c 	udf	#28
 6f4:	00000698 	udf	#1688
 6f8:	00082cd4 	.inst	0x00082cd4 ; undefined
 6fc:	00000000 	udf	#0
 700:	000001ec 	udf	#492
 704:	00000000 	udf	#0
 708:	02200e41 	.inst	0x02200e41 ; undefined
 70c:	00000e79 	udf	#3705
 710:	0000001c 	udf	#28
 714:	00000698 	udf	#1688
 718:	00082ec0 	.inst	0x00082ec0 ; undefined
 71c:	00000000 	udf	#0
 720:	0000006c 	udf	#108
 724:	00000000 	udf	#0
 728:	59200e41 	.inst	0x59200e41 ; undefined
 72c:	0000000e 	udf	#14
 730:	0000001c 	udf	#28
 734:	00000698 	udf	#1688
 738:	00082f2c 	.inst	0x00082f2c ; undefined
 73c:	00000000 	udf	#0
 740:	0000004c 	udf	#76
 744:	00000000 	udf	#0
 748:	51200e41 	sub	w1, w18, #0x803
 74c:	0000000e 	udf	#14
 750:	0000001c 	udf	#28
 754:	00000698 	udf	#1688
 758:	00082f78 	.inst	0x00082f78 ; undefined
 75c:	00000000 	udf	#0
 760:	00000040 	udf	#64
 764:	00000000 	udf	#0
 768:	4e200e41 	sqadd	v1.16b, v18.16b, v0.16b
 76c:	0000000e 	udf	#14
 770:	0000001c 	udf	#28
 774:	00000698 	udf	#1688
 778:	00082fb8 	.inst	0x00082fb8 ; undefined
 77c:	00000000 	udf	#0
 780:	00000070 	udf	#112
 784:	00000000 	udf	#0
 788:	5a100e41 	.inst	0x5a100e41 ; undefined
 78c:	0000000e 	udf	#14
 790:	00000024 	udf	#36
 794:	00000698 	udf	#1688
 798:	00083028 	.inst	0x00083028 ; undefined
 79c:	00000000 	udf	#0
 7a0:	00000064 	udf	#100
 7a4:	00000000 	udf	#0
 7a8:	9d400e41 	.inst	0x9d400e41 ; undefined
 7ac:	57079e08 	.inst	0x57079e08 ; undefined
 7b0:	000eddde 	.inst	0x000eddde ; undefined
 7b4:	00000000 	udf	#0
 7b8:	00000024 	udf	#36
 7bc:	00000698 	udf	#1688
 7c0:	0008308c 	.inst	0x0008308c ; undefined
 7c4:	00000000 	udf	#0
 7c8:	00000054 	udf	#84
 7cc:	00000000 	udf	#0
 7d0:	9d200e41 	.inst	0x9d200e41 ; undefined
 7d4:	53039e04 	.inst	0x53039e04 ; undefined
 7d8:	000eddde 	.inst	0x000eddde ; undefined
 7dc:	00000000 	udf	#0
 7e0:	0000002c 	udf	#44
 7e4:	00000698 	udf	#1688
 7e8:	000830e0 	.inst	0x000830e0 ; undefined
 7ec:	00000000 	udf	#0
 7f0:	000002ac 	udf	#684
 7f4:	00000000 	udf	#0
 7f8:	9d400e41 	.inst	0x9d400e41 ; undefined
 7fc:	42079e08 	.inst	0x42079e08 ; undefined
 800:	a7020693 	.inst	0xa7020693 ; undefined
 804:	0ed3ddde 	.inst	0x0ed3ddde ; undefined
	...
 810:	00000024 	udf	#36
 814:	00000698 	udf	#1688
 818:	0008338c 	.inst	0x0008338c ; undefined
 81c:	00000000 	udf	#0
 820:	0000007c 	udf	#124
 824:	00000000 	udf	#0
 828:	01900e41 	.inst	0x01900e41 ; undefined
 82c:	119e129d 	.inst	0x119e129d ; undefined
 830:	0eddde5d 	.inst	0x0eddde5d ; undefined
 834:	00000000 	udf	#0
 838:	0000001c 	udf	#28
 83c:	00000698 	udf	#1688
 840:	00083408 	.inst	0x00083408 ; undefined
 844:	00000000 	udf	#0
 848:	0000002c 	udf	#44
 84c:	00000000 	udf	#0
 850:	49100e41 	.inst	0x49100e41 ; undefined
 854:	0000000e 	udf	#14
 858:	0000001c 	udf	#28
 85c:	00000698 	udf	#1688
 860:	00083434 	.inst	0x00083434 ; undefined
 864:	00000000 	udf	#0
 868:	0000002c 	udf	#44
 86c:	00000000 	udf	#0
 870:	49100e41 	.inst	0x49100e41 ; undefined
 874:	0000000e 	udf	#14
 878:	00000024 	udf	#36
 87c:	00000698 	udf	#1688
 880:	00083460 	.inst	0x00083460 ; undefined
 884:	00000000 	udf	#0
 888:	00000030 	udf	#48
 88c:	00000000 	udf	#0
 890:	9d100e41 	.inst	0x9d100e41 ; undefined
 894:	4a019e02 	.inst	0x4a019e02 ; undefined
 898:	000eddde 	.inst	0x000eddde ; undefined
 89c:	00000000 	udf	#0
 8a0:	00000024 	udf	#36
 8a4:	00000698 	udf	#1688
 8a8:	00083490 	.inst	0x00083490 ; undefined
 8ac:	00000000 	udf	#0
 8b0:	0000003c 	udf	#60
 8b4:	00000000 	udf	#0
 8b8:	9d200e41 	.inst	0x9d200e41 ; undefined
 8bc:	42039e04 	.inst	0x42039e04 ; undefined
 8c0:	de4b0293 	.inst	0xde4b0293 ; undefined
 8c4:	000ed3dd 	.inst	0x000ed3dd ; undefined
 8c8:	0000000c 	udf	#12
 8cc:	ffffffff 	.inst	0xffffffff ; undefined
 8d0:	78040001 	sturh	w1, [x0, #64]
 8d4:	001f0c1e 	.inst	0x001f0c1e ; undefined
 8d8:	0000001c 	udf	#28
 8dc:	000008c8 	udf	#2248
 8e0:	000834cc 	.inst	0x000834cc ; undefined
 8e4:	00000000 	udf	#0
 8e8:	00000184 	udf	#388
 8ec:	00000000 	udf	#0
 8f0:	02400e41 	.inst	0x02400e41 ; undefined
 8f4:	00000e5f 	udf	#3679
 8f8:	0000001c 	udf	#28
 8fc:	000008c8 	udf	#2248
 900:	00083650 	.inst	0x00083650 ; undefined
 904:	00000000 	udf	#0
 908:	00000110 	udf	#272
 90c:	00000000 	udf	#0
 910:	02400e41 	.inst	0x02400e41 ; undefined
 914:	00000e42 	udf	#3650
 918:	0000001c 	udf	#28
 91c:	000008c8 	udf	#2248
 920:	00083760 	.inst	0x00083760 ; undefined
 924:	00000000 	udf	#0
 928:	00000170 	udf	#368
 92c:	00000000 	udf	#0
 930:	02200e41 	.inst	0x02200e41 ; undefined
 934:	00000e5a 	udf	#3674
 938:	0000001c 	udf	#28
 93c:	000008c8 	udf	#2248
 940:	000838d0 	.inst	0x000838d0 ; undefined
 944:	00000000 	udf	#0
 948:	00000198 	udf	#408
 94c:	00000000 	udf	#0
 950:	02200e41 	.inst	0x02200e41 ; undefined
 954:	00000e64 	udf	#3684
 958:	00000024 	udf	#36
 95c:	000008c8 	udf	#2248
 960:	00083a68 	.inst	0x00083a68 ; undefined
 964:	00000000 	udf	#0
 968:	000000a8 	udf	#168
 96c:	00000000 	udf	#0
 970:	9d300e41 	.inst	0x9d300e41 ; undefined
 974:	68059e06 	.inst	0x68059e06 ; undefined
 978:	000eddde 	.inst	0x000eddde ; undefined
 97c:	00000000 	udf	#0
 980:	0000001c 	udf	#28
 984:	000008c8 	udf	#2248
 988:	00083b10 	.inst	0x00083b10 ; undefined
 98c:	00000000 	udf	#0
 990:	00000070 	udf	#112
 994:	00000000 	udf	#0
 998:	5a100e41 	.inst	0x5a100e41 ; undefined
 99c:	0000000e 	udf	#14
 9a0:	00000024 	udf	#36
 9a4:	000008c8 	udf	#2248
 9a8:	00083b80 	.inst	0x00083b80 ; undefined
 9ac:	00000000 	udf	#0
 9b0:	000003b0 	udf	#944
 9b4:	00000000 	udf	#0
 9b8:	9d400e41 	.inst	0x9d400e41 ; undefined
 9bc:	02079e08 	.inst	0x02079e08 ; undefined
 9c0:	0edddeea 	.inst	0x0edddeea ; undefined
 9c4:	00000000 	udf	#0
 9c8:	00000024 	udf	#36
 9cc:	000008c8 	udf	#2248
 9d0:	00083f30 	.inst	0x00083f30 ; undefined
 9d4:	00000000 	udf	#0
 9d8:	00000324 	udf	#804
 9dc:	00000000 	udf	#0
 9e0:	9d600e41 	.inst	0x9d600e41 ; undefined
 9e4:	020b9e0c 	.inst	0x020b9e0c ; undefined
 9e8:	0edddec7 	.inst	0x0edddec7 ; undefined
 9ec:	00000000 	udf	#0
 9f0:	00000024 	udf	#36
 9f4:	000008c8 	udf	#2248
 9f8:	00084254 	.inst	0x00084254 ; undefined
 9fc:	00000000 	udf	#0
 a00:	000001b4 	udf	#436
 a04:	00000000 	udf	#0
 a08:	9d400e41 	.inst	0x9d400e41 ; undefined
 a0c:	02079e08 	.inst	0x02079e08 ; undefined
 a10:	0eddde6b 	.inst	0x0eddde6b ; undefined
 a14:	00000000 	udf	#0
 a18:	00000024 	udf	#36
 a1c:	000008c8 	udf	#2248
 a20:	00084408 	.inst	0x00084408 ; undefined
 a24:	00000000 	udf	#0
 a28:	00000778 	udf	#1912
 a2c:	00000000 	udf	#0
 a30:	9d400e41 	.inst	0x9d400e41 ; undefined
 a34:	03079e08 	.inst	0x03079e08 ; undefined
 a38:	ddde01dc 	.inst	0xddde01dc ; undefined
 a3c:	0000000e 	udf	#14
 a40:	00000024 	udf	#36
 a44:	000008c8 	udf	#2248
 a48:	00084b80 	.inst	0x00084b80 ; undefined
 a4c:	00000000 	udf	#0
 a50:	000000d8 	udf	#216
 a54:	00000000 	udf	#0
 a58:	9d200e41 	.inst	0x9d200e41 ; undefined
 a5c:	74039e04 	.inst	0x74039e04 ; undefined
 a60:	000eddde 	.inst	0x000eddde ; undefined
 a64:	00000000 	udf	#0
 a68:	00000024 	udf	#36
 a6c:	000008c8 	udf	#2248
 a70:	00084c58 	.inst	0x00084c58 ; undefined
 a74:	00000000 	udf	#0
 a78:	000001f0 	udf	#496
 a7c:	00000000 	udf	#0
 a80:	9d300e41 	.inst	0x9d300e41 ; undefined
 a84:	02059e06 	.inst	0x02059e06 ; undefined
 a88:	0eddde7a 	.inst	0x0eddde7a ; undefined
 a8c:	00000000 	udf	#0
 a90:	0000001c 	udf	#28
 a94:	000008c8 	udf	#2248
 a98:	00084e48 	.inst	0x00084e48 ; undefined
 a9c:	00000000 	udf	#0
 aa0:	0000004c 	udf	#76
 aa4:	00000000 	udf	#0
 aa8:	51100e41 	sub	w1, w18, #0x403
 aac:	0000000e 	udf	#14
 ab0:	0000001c 	udf	#28
 ab4:	000008c8 	udf	#2248
 ab8:	00084e94 	.inst	0x00084e94 ; undefined
 abc:	00000000 	udf	#0
 ac0:	0000002c 	udf	#44
 ac4:	00000000 	udf	#0
 ac8:	49200e41 	.inst	0x49200e41 ; undefined
 acc:	0000000e 	udf	#14
 ad0:	0000001c 	udf	#28
 ad4:	000008c8 	udf	#2248
 ad8:	00084ec0 	.inst	0x00084ec0 ; undefined
 adc:	00000000 	udf	#0
 ae0:	00000024 	udf	#36
 ae4:	00000000 	udf	#0
 ae8:	47200e41 	.inst	0x47200e41 ; undefined
 aec:	0000000e 	udf	#14
 af0:	0000001c 	udf	#28
 af4:	000008c8 	udf	#2248
 af8:	00084ee4 	.inst	0x00084ee4 ; undefined
 afc:	00000000 	udf	#0
 b00:	00000024 	udf	#36
 b04:	00000000 	udf	#0
 b08:	47100e41 	.inst	0x47100e41 ; undefined
 b0c:	0000000e 	udf	#14
 b10:	0000001c 	udf	#28
 b14:	000008c8 	udf	#2248
 b18:	00084f08 	.inst	0x00084f08 ; undefined
 b1c:	00000000 	udf	#0
 b20:	0000001c 	udf	#28
 b24:	00000000 	udf	#0
 b28:	45100e41 	.inst	0x45100e41 ; undefined
 b2c:	0000000e 	udf	#14
 b30:	00000014 	udf	#20
 b34:	000008c8 	udf	#2248
 b38:	00084f24 	.inst	0x00084f24 ; undefined
 b3c:	00000000 	udf	#0
 b40:	00000010 	udf	#16
 b44:	00000000 	udf	#0
 b48:	00000014 	udf	#20
 b4c:	000008c8 	udf	#2248
 b50:	00084f34 	.inst	0x00084f34 ; undefined
 b54:	00000000 	udf	#0
 b58:	00000010 	udf	#16
 b5c:	00000000 	udf	#0
 b60:	0000001c 	udf	#28
 b64:	000008c8 	udf	#2248
 b68:	00084f44 	.inst	0x00084f44 ; undefined
 b6c:	00000000 	udf	#0
 b70:	00000020 	udf	#32
 b74:	00000000 	udf	#0
 b78:	46100e41 	.inst	0x46100e41 ; undefined
 b7c:	0000000e 	udf	#14
 b80:	0000001c 	udf	#28
 b84:	000008c8 	udf	#2248
 b88:	00084f64 	.inst	0x00084f64 ; undefined
 b8c:	00000000 	udf	#0
 b90:	00000028 	udf	#40
 b94:	00000000 	udf	#0
 b98:	48200e41 	.inst	0x48200e41 ; undefined
 b9c:	0000000e 	udf	#14
 ba0:	00000024 	udf	#36
 ba4:	000008c8 	udf	#2248
 ba8:	00084f8c 	.inst	0x00084f8c ; undefined
 bac:	00000000 	udf	#0
 bb0:	0000001c 	udf	#28
 bb4:	00000000 	udf	#0
 bb8:	9d100e41 	.inst	0x9d100e41 ; undefined
 bbc:	45019e02 	.inst	0x45019e02 ; undefined
 bc0:	000eddde 	.inst	0x000eddde ; undefined
 bc4:	00000000 	udf	#0
 bc8:	00000014 	udf	#20
 bcc:	000008c8 	udf	#2248
 bd0:	00084fa8 	.inst	0x00084fa8 ; undefined
 bd4:	00000000 	udf	#0
 bd8:	0000000c 	udf	#12
 bdc:	00000000 	udf	#0
 be0:	0000000c 	udf	#12
 be4:	ffffffff 	.inst	0xffffffff ; undefined
 be8:	78040001 	sturh	w1, [x0, #64]
 bec:	001f0c1e 	.inst	0x001f0c1e ; undefined
 bf0:	0000001c 	udf	#28
 bf4:	00000be0 	udf	#3040
 bf8:	00084fb4 	.inst	0x00084fb4 ; undefined
 bfc:	00000000 	udf	#0
 c00:	0000002c 	udf	#44
 c04:	00000000 	udf	#0
 c08:	49100e41 	.inst	0x49100e41 ; undefined
 c0c:	0000000e 	udf	#14
 c10:	0000001c 	udf	#28
 c14:	00000be0 	udf	#3040
 c18:	00084fe0 	.inst	0x00084fe0 ; undefined
 c1c:	00000000 	udf	#0
 c20:	0000002c 	udf	#44
 c24:	00000000 	udf	#0
 c28:	49100e41 	.inst	0x49100e41 ; undefined
 c2c:	0000000e 	udf	#14
 c30:	0000000c 	udf	#12
 c34:	ffffffff 	.inst	0xffffffff ; undefined
 c38:	78040001 	sturh	w1, [x0, #64]
 c3c:	001f0c1e 	.inst	0x001f0c1e ; undefined
 c40:	0000001c 	udf	#28
 c44:	00000c30 	udf	#3120
 c48:	0008500c 	.inst	0x0008500c ; undefined
 c4c:	00000000 	udf	#0
 c50:	00000080 	udf	#128
 c54:	00000000 	udf	#0
 c58:	5e100e41 	.inst	0x5e100e41 ; undefined
 c5c:	0000000e 	udf	#14
 c60:	0000001c 	udf	#28
 c64:	00000c30 	udf	#3120
 c68:	0008508c 	.inst	0x0008508c ; undefined
 c6c:	00000000 	udf	#0
 c70:	00000110 	udf	#272
 c74:	00000000 	udf	#0
 c78:	02200e41 	.inst	0x02200e41 ; undefined
 c7c:	00000e42 	udf	#3650
 c80:	00000024 	udf	#36
 c84:	00000c30 	udf	#3120
 c88:	0008519c 	.inst	0x0008519c ; undefined
 c8c:	00000000 	udf	#0
 c90:	00000058 	udf	#88
 c94:	00000000 	udf	#0
 c98:	9d200e41 	.inst	0x9d200e41 ; undefined
 c9c:	54039e04 	b.mi	805c <_start-0x77fa4>  // b.first
 ca0:	000eddde 	.inst	0x000eddde ; undefined
 ca4:	00000000 	udf	#0
 ca8:	0000001c 	udf	#28
 cac:	00000c30 	udf	#3120
 cb0:	000851f4 	.inst	0x000851f4 ; undefined
 cb4:	00000000 	udf	#0
 cb8:	00000058 	udf	#88
 cbc:	00000000 	udf	#0
 cc0:	54300e41 	b.ne	60e88 <_start-0x1f178>  // b.any
 cc4:	0000000e 	udf	#14
 cc8:	0000001c 	udf	#28
 ccc:	00000c30 	udf	#3120
 cd0:	0008524c 	.inst	0x0008524c ; undefined
 cd4:	00000000 	udf	#0
 cd8:	00000070 	udf	#112
 cdc:	00000000 	udf	#0
 ce0:	5a400e41 	.inst	0x5a400e41 ; undefined
 ce4:	0000000e 	udf	#14
 ce8:	00000024 	udf	#36
 cec:	00000c30 	udf	#3120
 cf0:	000852bc 	.inst	0x000852bc ; undefined
 cf4:	00000000 	udf	#0
 cf8:	00000330 	udf	#816
 cfc:	00000000 	udf	#0
 d00:	41500e41 	.inst	0x41500e41 ; undefined
 d04:	079e089d 	.inst	0x079e089d ; undefined
 d08:	deddc902 	.inst	0xdeddc902 ; undefined
 d0c:	0000000e 	udf	#14
 d10:	00000024 	udf	#36
 d14:	00000c30 	udf	#3120
 d18:	000855ec 	.inst	0x000855ec ; undefined
 d1c:	00000000 	udf	#0
 d20:	00000224 	udf	#548
 d24:	00000000 	udf	#0
 d28:	9d400e41 	.inst	0x9d400e41 ; undefined
 d2c:	02079e08 	.inst	0x02079e08 ; undefined
 d30:	0eddde87 	.inst	0x0eddde87 ; undefined
 d34:	00000000 	udf	#0
 d38:	00000024 	udf	#36
 d3c:	00000c30 	udf	#3120
 d40:	00085810 	.inst	0x00085810 ; undefined
 d44:	00000000 	udf	#0
 d48:	000002e8 	udf	#744
 d4c:	00000000 	udf	#0
 d50:	9d500e41 	.inst	0x9d500e41 ; undefined
 d54:	02099e0a 	.inst	0x02099e0a ; undefined
 d58:	0edddeb8 	.inst	0x0edddeb8 ; undefined
 d5c:	00000000 	udf	#0
 d60:	00000024 	udf	#36
 d64:	00000c30 	udf	#3120
 d68:	00085af8 	.inst	0x00085af8 ; undefined
 d6c:	00000000 	udf	#0
 d70:	00000160 	udf	#352
 d74:	00000000 	udf	#0
 d78:	9d400e41 	.inst	0x9d400e41 ; undefined
 d7c:	02079e08 	.inst	0x02079e08 ; undefined
 d80:	0eddde56 	.inst	0x0eddde56 ; undefined
 d84:	00000000 	udf	#0
 d88:	0000001c 	udf	#28
 d8c:	00000c30 	udf	#3120
 d90:	00085c58 	.inst	0x00085c58 ; undefined
 d94:	00000000 	udf	#0
 d98:	00000078 	udf	#120
 d9c:	00000000 	udf	#0
 da0:	5c300e41 	ldr	d1, 60f68 <_start-0x1f098>
 da4:	0000000e 	udf	#14
 da8:	00000024 	udf	#36
 dac:	00000c30 	udf	#3120
 db0:	00085cd0 	.inst	0x00085cd0 ; undefined
 db4:	00000000 	udf	#0
 db8:	00000178 	udf	#376
 dbc:	00000000 	udf	#0
 dc0:	9d400e41 	.inst	0x9d400e41 ; undefined
 dc4:	02079e08 	.inst	0x02079e08 ; undefined
 dc8:	0eddde5c 	.inst	0x0eddde5c ; undefined
 dcc:	00000000 	udf	#0
