
0-kernel.elf:     file format elf64-littleaarch64


Disassembly of section .text.boot:

0000000000080000 <_start>:
   80000:	d5384241 	mrs	x1, currentel
   80004:	927d0021 	and	x1, x1, #0x8
   80008:	b4000101 	cbz	x1, 80028 <el1_entry>
   8000c:	580003a2 	ldr	x2, 80080 <exit+0xc>
   80010:	d51c1102 	msr	hcr_el2, x2
   80014:	580003a3 	ldr	x3, 80088 <exit+0x14>
   80018:	d51c4003 	msr	spsr_el2, x3
   8001c:	10000064 	adr	x4, 80028 <el1_entry>
   80020:	d51c4024 	msr	elr_el2, x4
   80024:	d69f03e0 	eret

0000000000080028 <el1_entry>:
   80028:	58000342 	ldr	x2, 80090 <exit+0x1c>
   8002c:	d5181002 	msr	sctlr_el1, x2
   80030:	d5034fdf 	msr	daifset, #0xf
   80034:	d50041bf 	msr	spsel, #0x1
   80038:	58000300 	ldr	x0, 80098 <exit+0x24>
   8003c:	9100001f 	mov	sp, x0
   80040:	58000301 	ldr	x1, 800a0 <exit+0x2c>
   80044:	d518c001 	msr	vbar_el1, x1
   80048:	94000946 	bl	82560 <kmain>

000000000008004c <EXIT>:
   8004c:	d2800482 	mov	x2, #0x24                  	// #36
   80050:	d2800380 	mov	x0, #0x1c                  	// #28
   80054:	f2bfc202 	movk	x2, #0xfe10, lsl #16
   80058:	f2bfc200 	movk	x0, #0xfe10, lsl #16
   8005c:	52800023 	mov	w3, #0x1                   	// #1
   80060:	52800401 	mov	w1, #0x20                  	// #32
   80064:	72ab4003 	movk	w3, #0x5a00, lsl #16
   80068:	b9000043 	str	w3, [x2]
   8006c:	72ab4001 	movk	w1, #0x5a00, lsl #16
   80070:	b9000001 	str	w1, [x0]

0000000000080074 <exit>:
   80074:	d503207f 	wfi
   80078:	17ffffff 	b	80074 <exit>
   8007c:	00000000 	udf	#0
   80080:	80000000 	.inst	0x80000000 ; undefined
   80084:	00000000 	udf	#0
   80088:	000001c5 	udf	#453
   8008c:	00000000 	udf	#0
   80090:	30d50a00 	adr	x0, 2a1d1 <_start-0x55e2f>
   80094:	00000000 	udf	#0
   80098:	000a39f0 	.inst	0x000a39f0 ; undefined
   8009c:	00000000 	udf	#0
   800a0:	00087000 	.inst	0x00087000 ; undefined
   800a4:	00000000 	udf	#0

Disassembly of section .text:

0000000000080800 <min>:
   80800:	d10043ff 	sub	sp, sp, #0x10
   80804:	f90007e0 	str	x0, [sp, #8]
   80808:	f90003e1 	str	x1, [sp]
   8080c:	f94007e1 	ldr	x1, [sp, #8]
   80810:	f94003e0 	ldr	x0, [sp]
   80814:	eb00003f 	cmp	x1, x0
   80818:	54000062 	b.cs	80824 <min+0x24>  // b.hs, b.nlast
   8081c:	f94007e0 	ldr	x0, [sp, #8]
   80820:	14000002 	b	80828 <min+0x28>
   80824:	f94003e0 	ldr	x0, [sp]
   80828:	910043ff 	add	sp, sp, #0x10
   8082c:	d65f03c0 	ret

0000000000080830 <max>:
   80830:	d10043ff 	sub	sp, sp, #0x10
   80834:	f90007e0 	str	x0, [sp, #8]
   80838:	f90003e1 	str	x1, [sp]
   8083c:	f94007e1 	ldr	x1, [sp, #8]
   80840:	f94003e0 	ldr	x0, [sp]
   80844:	eb00003f 	cmp	x1, x0
   80848:	54000069 	b.ls	80854 <max+0x24>  // b.plast
   8084c:	f94007e0 	ldr	x0, [sp, #8]
   80850:	14000002 	b	80858 <max+0x28>
   80854:	f94003e0 	ldr	x0, [sp]
   80858:	910043ff 	add	sp, sp, #0x10
   8085c:	d65f03c0 	ret

0000000000080860 <is_empty>:
   80860:	d10043ff 	sub	sp, sp, #0x10
   80864:	f90007e0 	str	x0, [sp, #8]
   80868:	f94007e0 	ldr	x0, [sp, #8]
   8086c:	39400000 	ldrb	w0, [x0]
   80870:	7100001f 	cmp	w0, #0x0
   80874:	1a9f17e0 	cset	w0, eq	// eq = none
   80878:	12001c00 	and	w0, w0, #0xff
   8087c:	13001c00 	sxtb	w0, w0
   80880:	910043ff 	add	sp, sp, #0x10
   80884:	d65f03c0 	ret

0000000000080888 <is_Hex>:
   80888:	d10043ff 	sub	sp, sp, #0x10
   8088c:	f90007e0 	str	x0, [sp, #8]
   80890:	f94007e0 	ldr	x0, [sp, #8]
   80894:	39400000 	ldrb	w0, [x0]
   80898:	7100001f 	cmp	w0, #0x0
   8089c:	54000061 	b.ne	808a8 <is_Hex+0x20>  // b.any
   808a0:	52800000 	mov	w0, #0x0                   	// #0
   808a4:	14000015 	b	808f8 <is_Hex+0x70>
   808a8:	f94007e0 	ldr	x0, [sp, #8]
   808ac:	91000400 	add	x0, x0, #0x1
   808b0:	39400000 	ldrb	w0, [x0]
   808b4:	7100001f 	cmp	w0, #0x0
   808b8:	54000061 	b.ne	808c4 <is_Hex+0x3c>  // b.any
   808bc:	52800000 	mov	w0, #0x0                   	// #0
   808c0:	1400000e 	b	808f8 <is_Hex+0x70>
   808c4:	f94007e0 	ldr	x0, [sp, #8]
   808c8:	39400000 	ldrb	w0, [x0]
   808cc:	7100c01f 	cmp	w0, #0x30
   808d0:	54000101 	b.ne	808f0 <is_Hex+0x68>  // b.any
   808d4:	f94007e0 	ldr	x0, [sp, #8]
   808d8:	91000400 	add	x0, x0, #0x1
   808dc:	39400000 	ldrb	w0, [x0]
   808e0:	7101e01f 	cmp	w0, #0x78
   808e4:	54000061 	b.ne	808f0 <is_Hex+0x68>  // b.any
   808e8:	52800020 	mov	w0, #0x1                   	// #1
   808ec:	14000002 	b	808f4 <is_Hex+0x6c>
   808f0:	52800000 	mov	w0, #0x0                   	// #0
   808f4:	13001c00 	sxtb	w0, w0
   808f8:	910043ff 	add	sp, sp, #0x10
   808fc:	d65f03c0 	ret

0000000000080900 <str_to_int>:
   80900:	a9bd7bfd 	stp	x29, x30, [sp, #-48]!
   80904:	910003fd 	mov	x29, sp
   80908:	f9000fe0 	str	x0, [sp, #24]
   8090c:	3900bbff 	strb	wzr, [sp, #46]
   80910:	f9400fe0 	ldr	x0, [sp, #24]
   80914:	39400000 	ldrb	w0, [x0]
   80918:	7100b41f 	cmp	w0, #0x2d
   8091c:	540000c1 	b.ne	80934 <str_to_int+0x34>  // b.any
   80920:	52800020 	mov	w0, #0x1                   	// #1
   80924:	3900bbe0 	strb	w0, [sp, #46]
   80928:	f9400fe0 	ldr	x0, [sp, #24]
   8092c:	91000400 	add	x0, x0, #0x1
   80930:	f9000fe0 	str	x0, [sp, #24]
   80934:	3900bfff 	strb	wzr, [sp, #47]
   80938:	14000011 	b	8097c <str_to_int+0x7c>
   8093c:	3940bfe1 	ldrb	w1, [sp, #47]
   80940:	2a0103e0 	mov	w0, w1
   80944:	531e1400 	ubfiz	w0, w0, #2, #6
   80948:	0b010000 	add	w0, w0, w1
   8094c:	531f1800 	ubfiz	w0, w0, #1, #7
   80950:	3900bfe0 	strb	w0, [sp, #47]
   80954:	f9400fe0 	ldr	x0, [sp, #24]
   80958:	39400000 	ldrb	w0, [x0]
   8095c:	94001465 	bl	85af0 <a2d>
   80960:	12001c00 	and	w0, w0, #0xff
   80964:	3940bfe1 	ldrb	w1, [sp, #47]
   80968:	0b010000 	add	w0, w0, w1
   8096c:	3900bfe0 	strb	w0, [sp, #47]
   80970:	f9400fe0 	ldr	x0, [sp, #24]
   80974:	91000400 	add	x0, x0, #0x1
   80978:	f9000fe0 	str	x0, [sp, #24]
   8097c:	f9400fe0 	ldr	x0, [sp, #24]
   80980:	39400000 	ldrb	w0, [x0]
   80984:	7100001f 	cmp	w0, #0x0
   80988:	54fffda1 	b.ne	8093c <str_to_int+0x3c>  // b.any
   8098c:	3940bfe0 	ldrb	w0, [sp, #47]
   80990:	a8c37bfd 	ldp	x29, x30, [sp], #48
   80994:	d65f03c0 	ret

0000000000080998 <hexstr_to_int>:
   80998:	a9bd7bfd 	stp	x29, x30, [sp, #-48]!
   8099c:	910003fd 	mov	x29, sp
   809a0:	f9000fe0 	str	x0, [sp, #24]
   809a4:	3900bfff 	strb	wzr, [sp, #47]
   809a8:	f9400fe0 	ldr	x0, [sp, #24]
   809ac:	91000400 	add	x0, x0, #0x1
   809b0:	f9000fe0 	str	x0, [sp, #24]
   809b4:	f9400fe0 	ldr	x0, [sp, #24]
   809b8:	91000400 	add	x0, x0, #0x1
   809bc:	f9000fe0 	str	x0, [sp, #24]
   809c0:	1400000e 	b	809f8 <hexstr_to_int+0x60>
   809c4:	3940bfe0 	ldrb	w0, [sp, #47]
   809c8:	531c0c00 	ubfiz	w0, w0, #4, #4
   809cc:	3900bfe0 	strb	w0, [sp, #47]
   809d0:	f9400fe0 	ldr	x0, [sp, #24]
   809d4:	39400000 	ldrb	w0, [x0]
   809d8:	94001446 	bl	85af0 <a2d>
   809dc:	12001c00 	and	w0, w0, #0xff
   809e0:	3940bfe1 	ldrb	w1, [sp, #47]
   809e4:	0b010000 	add	w0, w0, w1
   809e8:	3900bfe0 	strb	w0, [sp, #47]
   809ec:	f9400fe0 	ldr	x0, [sp, #24]
   809f0:	91000400 	add	x0, x0, #0x1
   809f4:	f9000fe0 	str	x0, [sp, #24]
   809f8:	f9400fe0 	ldr	x0, [sp, #24]
   809fc:	39400000 	ldrb	w0, [x0]
   80a00:	7100001f 	cmp	w0, #0x0
   80a04:	54fffe01 	b.ne	809c4 <hexstr_to_int+0x2c>  // b.any
   80a08:	3940bfe0 	ldrb	w0, [sp, #47]
   80a0c:	a8c37bfd 	ldp	x29, x30, [sp], #48
   80a10:	d65f03c0 	ret

0000000000080a14 <strcmp>:
   80a14:	d10083ff 	sub	sp, sp, #0x20
   80a18:	f9000fe0 	str	x0, [sp, #24]
   80a1c:	f9000be1 	str	x1, [sp, #16]
   80a20:	f90007e2 	str	x2, [sp, #8]
   80a24:	1400001a 	b	80a8c <strcmp+0x78>
   80a28:	f9400be0 	ldr	x0, [sp, #16]
   80a2c:	39400001 	ldrb	w1, [x0]
   80a30:	f94007e0 	ldr	x0, [sp, #8]
   80a34:	39400000 	ldrb	w0, [x0]
   80a38:	6b00003f 	cmp	w1, w0
   80a3c:	54000080 	b.eq	80a4c <strcmp+0x38>  // b.none
   80a40:	f9400fe0 	ldr	x0, [sp, #24]
   80a44:	b900001f 	str	wzr, [x0]
   80a48:	14000023 	b	80ad4 <strcmp+0xc0>
   80a4c:	f9400be0 	ldr	x0, [sp, #16]
   80a50:	91000400 	add	x0, x0, #0x1
   80a54:	f9000be0 	str	x0, [sp, #16]
   80a58:	f94007e0 	ldr	x0, [sp, #8]
   80a5c:	91000400 	add	x0, x0, #0x1
   80a60:	f90007e0 	str	x0, [sp, #8]
   80a64:	f9400be0 	ldr	x0, [sp, #16]
   80a68:	39400001 	ldrb	w1, [x0]
   80a6c:	f94007e0 	ldr	x0, [sp, #8]
   80a70:	39400000 	ldrb	w0, [x0]
   80a74:	6b00003f 	cmp	w1, w0
   80a78:	1a9f17e0 	cset	w0, eq	// eq = none
   80a7c:	12001c00 	and	w0, w0, #0xff
   80a80:	2a0003e1 	mov	w1, w0
   80a84:	f9400fe0 	ldr	x0, [sp, #24]
   80a88:	b9000001 	str	w1, [x0]
   80a8c:	f9400be0 	ldr	x0, [sp, #16]
   80a90:	39400000 	ldrb	w0, [x0]
   80a94:	7100001f 	cmp	w0, #0x0
   80a98:	540000a0 	b.eq	80aac <strcmp+0x98>  // b.none
   80a9c:	f94007e0 	ldr	x0, [sp, #8]
   80aa0:	39400000 	ldrb	w0, [x0]
   80aa4:	7100001f 	cmp	w0, #0x0
   80aa8:	54fffc01 	b.ne	80a28 <strcmp+0x14>  // b.any
   80aac:	f9400be0 	ldr	x0, [sp, #16]
   80ab0:	39400001 	ldrb	w1, [x0]
   80ab4:	f94007e0 	ldr	x0, [sp, #8]
   80ab8:	39400000 	ldrb	w0, [x0]
   80abc:	6b00003f 	cmp	w1, w0
   80ac0:	1a9f17e0 	cset	w0, eq	// eq = none
   80ac4:	12001c00 	and	w0, w0, #0xff
   80ac8:	2a0003e1 	mov	w1, w0
   80acc:	f9400fe0 	ldr	x0, [sp, #24]
   80ad0:	b9000001 	str	w1, [x0]
   80ad4:	910083ff 	add	sp, sp, #0x20
   80ad8:	d65f03c0 	ret

0000000000080adc <strcmp_ret>:
   80adc:	d10043ff 	sub	sp, sp, #0x10
   80ae0:	f90007e0 	str	x0, [sp, #8]
   80ae4:	f90003e1 	str	x1, [sp]
   80ae8:	1400000f 	b	80b24 <strcmp_ret+0x48>
   80aec:	f94007e0 	ldr	x0, [sp, #8]
   80af0:	39400001 	ldrb	w1, [x0]
   80af4:	f94003e0 	ldr	x0, [sp]
   80af8:	39400000 	ldrb	w0, [x0]
   80afc:	6b00003f 	cmp	w1, w0
   80b00:	54000060 	b.eq	80b0c <strcmp_ret+0x30>  // b.none
   80b04:	52800000 	mov	w0, #0x0                   	// #0
   80b08:	14000016 	b	80b60 <strcmp_ret+0x84>
   80b0c:	f94007e0 	ldr	x0, [sp, #8]
   80b10:	91000400 	add	x0, x0, #0x1
   80b14:	f90007e0 	str	x0, [sp, #8]
   80b18:	f94003e0 	ldr	x0, [sp]
   80b1c:	91000400 	add	x0, x0, #0x1
   80b20:	f90003e0 	str	x0, [sp]
   80b24:	f94007e0 	ldr	x0, [sp, #8]
   80b28:	39400000 	ldrb	w0, [x0]
   80b2c:	7100001f 	cmp	w0, #0x0
   80b30:	540000a0 	b.eq	80b44 <strcmp_ret+0x68>  // b.none
   80b34:	f94003e0 	ldr	x0, [sp]
   80b38:	39400000 	ldrb	w0, [x0]
   80b3c:	7100001f 	cmp	w0, #0x0
   80b40:	54fffd61 	b.ne	80aec <strcmp_ret+0x10>  // b.any
   80b44:	f94007e0 	ldr	x0, [sp, #8]
   80b48:	39400001 	ldrb	w1, [x0]
   80b4c:	f94003e0 	ldr	x0, [sp]
   80b50:	39400000 	ldrb	w0, [x0]
   80b54:	6b00003f 	cmp	w1, w0
   80b58:	1a9f17e0 	cset	w0, eq	// eq = none
   80b5c:	12001c00 	and	w0, w0, #0xff
   80b60:	910043ff 	add	sp, sp, #0x10
   80b64:	d65f03c0 	ret

0000000000080b68 <stringconcat>:
   80b68:	d10083ff 	sub	sp, sp, #0x20
   80b6c:	f90007e0 	str	x0, [sp, #8]
   80b70:	f90003e1 	str	x1, [sp]
   80b74:	b9001fff 	str	wzr, [sp, #28]
   80b78:	14000007 	b	80b94 <stringconcat+0x2c>
   80b7c:	f94007e0 	ldr	x0, [sp, #8]
   80b80:	91000400 	add	x0, x0, #0x1
   80b84:	f90007e0 	str	x0, [sp, #8]
   80b88:	b9401fe0 	ldr	w0, [sp, #28]
   80b8c:	11000400 	add	w0, w0, #0x1
   80b90:	b9001fe0 	str	w0, [sp, #28]
   80b94:	f94007e0 	ldr	x0, [sp, #8]
   80b98:	39400000 	ldrb	w0, [x0]
   80b9c:	7100001f 	cmp	w0, #0x0
   80ba0:	54fffee1 	b.ne	80b7c <stringconcat+0x14>  // b.any
   80ba4:	1400000e 	b	80bdc <stringconcat+0x74>
   80ba8:	f94003e0 	ldr	x0, [sp]
   80bac:	39400001 	ldrb	w1, [x0]
   80bb0:	f94007e0 	ldr	x0, [sp, #8]
   80bb4:	39000001 	strb	w1, [x0]
   80bb8:	f94007e0 	ldr	x0, [sp, #8]
   80bbc:	91000400 	add	x0, x0, #0x1
   80bc0:	f90007e0 	str	x0, [sp, #8]
   80bc4:	f94003e0 	ldr	x0, [sp]
   80bc8:	91000400 	add	x0, x0, #0x1
   80bcc:	f90003e0 	str	x0, [sp]
   80bd0:	b9401fe0 	ldr	w0, [sp, #28]
   80bd4:	11000400 	add	w0, w0, #0x1
   80bd8:	b9001fe0 	str	w0, [sp, #28]
   80bdc:	f94003e0 	ldr	x0, [sp]
   80be0:	39400000 	ldrb	w0, [x0]
   80be4:	7100001f 	cmp	w0, #0x0
   80be8:	54fffe01 	b.ne	80ba8 <stringconcat+0x40>  // b.any
   80bec:	f94007e0 	ldr	x0, [sp, #8]
   80bf0:	3900001f 	strb	wzr, [x0]
   80bf4:	b9401fe0 	ldr	w0, [sp, #28]
   80bf8:	910083ff 	add	sp, sp, #0x20
   80bfc:	d65f03c0 	ret

0000000000080c00 <parse_char_arr>:
   80c00:	d10043ff 	sub	sp, sp, #0x10
   80c04:	f0000020 	adrp	x0, 87000 <vector_table_el1>
   80c08:	91200000 	add	x0, x0, #0x800
   80c0c:	f90007e0 	str	x0, [sp, #8]
   80c10:	f94007e0 	ldr	x0, [sp, #8]
   80c14:	910043ff 	add	sp, sp, #0x10
   80c18:	d65f03c0 	ret

0000000000080c1c <parsestring>:
   80c1c:	d100c3ff 	sub	sp, sp, #0x30
   80c20:	f9000fe0 	str	x0, [sp, #24]
   80c24:	b90017e1 	str	w1, [sp, #20]
   80c28:	f90007e2 	str	x2, [sp, #8]
   80c2c:	b90013e3 	str	w3, [sp, #16]
   80c30:	52800020 	mov	w0, #0x1                   	// #1
   80c34:	b9002fe0 	str	w0, [sp, #44]
   80c38:	b9002bff 	str	wzr, [sp, #40]
   80c3c:	f9400fe0 	ldr	x0, [sp, #24]
   80c40:	3900001f 	strb	wzr, [x0]
   80c44:	14000022 	b	80ccc <parsestring+0xb0>
   80c48:	f94007e0 	ldr	x0, [sp, #8]
   80c4c:	39400000 	ldrb	w0, [x0]
   80c50:	7100801f 	cmp	w0, #0x20
   80c54:	540000a1 	b.ne	80c68 <parsestring+0x4c>  // b.any
   80c58:	b9402fe0 	ldr	w0, [sp, #44]
   80c5c:	11000400 	add	w0, w0, #0x1
   80c60:	b9002fe0 	str	w0, [sp, #44]
   80c64:	14000017 	b	80cc0 <parsestring+0xa4>
   80c68:	b94013e1 	ldr	w1, [sp, #16]
   80c6c:	b9402fe0 	ldr	w0, [sp, #44]
   80c70:	6b00003f 	cmp	w1, w0
   80c74:	54000261 	b.ne	80cc0 <parsestring+0xa4>  // b.any
   80c78:	b94017e0 	ldr	w0, [sp, #20]
   80c7c:	51000400 	sub	w0, w0, #0x1
   80c80:	b9402be1 	ldr	w1, [sp, #40]
   80c84:	6b00003f 	cmp	w1, w0
   80c88:	540002ca 	b.ge	80ce0 <parsestring+0xc4>  // b.tcont
   80c8c:	b9402be0 	ldr	w0, [sp, #40]
   80c90:	11000401 	add	w1, w0, #0x1
   80c94:	b9002be1 	str	w1, [sp, #40]
   80c98:	93407c00 	sxtw	x0, w0
   80c9c:	f9400fe1 	ldr	x1, [sp, #24]
   80ca0:	8b000020 	add	x0, x1, x0
   80ca4:	f94007e1 	ldr	x1, [sp, #8]
   80ca8:	39400021 	ldrb	w1, [x1]
   80cac:	39000001 	strb	w1, [x0]
   80cb0:	b9802be0 	ldrsw	x0, [sp, #40]
   80cb4:	f9400fe1 	ldr	x1, [sp, #24]
   80cb8:	8b000020 	add	x0, x1, x0
   80cbc:	3900001f 	strb	wzr, [x0]
   80cc0:	f94007e0 	ldr	x0, [sp, #8]
   80cc4:	91000400 	add	x0, x0, #0x1
   80cc8:	f90007e0 	str	x0, [sp, #8]
   80ccc:	f94007e0 	ldr	x0, [sp, #8]
   80cd0:	39400000 	ldrb	w0, [x0]
   80cd4:	7100001f 	cmp	w0, #0x0
   80cd8:	54fffb81 	b.ne	80c48 <parsestring+0x2c>  // b.any
   80cdc:	14000002 	b	80ce4 <parsestring+0xc8>
   80ce0:	d503201f 	nop
   80ce4:	d503201f 	nop
   80ce8:	9100c3ff 	add	sp, sp, #0x30
   80cec:	d65f03c0 	ret

0000000000080cf0 <strcpy>:
   80cf0:	d100c3ff 	sub	sp, sp, #0x30
   80cf4:	f9000fe0 	str	x0, [sp, #24]
   80cf8:	b90017e1 	str	w1, [sp, #20]
   80cfc:	f90007e2 	str	x2, [sp, #8]
   80d00:	b90013e3 	str	w3, [sp, #16]
   80d04:	b9002fff 	str	wzr, [sp, #44]
   80d08:	14000016 	b	80d60 <strcpy+0x70>
   80d0c:	b9402fe1 	ldr	w1, [sp, #44]
   80d10:	b94013e0 	ldr	w0, [sp, #16]
   80d14:	6b00003f 	cmp	w1, w0
   80d18:	540002ea 	b.ge	80d74 <strcpy+0x84>  // b.tcont
   80d1c:	b9402fe1 	ldr	w1, [sp, #44]
   80d20:	b94017e0 	ldr	w0, [sp, #20]
   80d24:	6b00003f 	cmp	w1, w0
   80d28:	540002aa 	b.ge	80d7c <strcpy+0x8c>  // b.tcont
   80d2c:	f94007e0 	ldr	x0, [sp, #8]
   80d30:	39400001 	ldrb	w1, [x0]
   80d34:	f9400fe0 	ldr	x0, [sp, #24]
   80d38:	39000001 	strb	w1, [x0]
   80d3c:	f9400fe0 	ldr	x0, [sp, #24]
   80d40:	91000400 	add	x0, x0, #0x1
   80d44:	f9000fe0 	str	x0, [sp, #24]
   80d48:	f94007e0 	ldr	x0, [sp, #8]
   80d4c:	91000400 	add	x0, x0, #0x1
   80d50:	f90007e0 	str	x0, [sp, #8]
   80d54:	b9402fe0 	ldr	w0, [sp, #44]
   80d58:	11000400 	add	w0, w0, #0x1
   80d5c:	b9002fe0 	str	w0, [sp, #44]
   80d60:	f94007e0 	ldr	x0, [sp, #8]
   80d64:	39400000 	ldrb	w0, [x0]
   80d68:	7100001f 	cmp	w0, #0x0
   80d6c:	54fffd01 	b.ne	80d0c <strcpy+0x1c>  // b.any
   80d70:	14000004 	b	80d80 <strcpy+0x90>
   80d74:	d503201f 	nop
   80d78:	14000002 	b	80d80 <strcpy+0x90>
   80d7c:	d503201f 	nop
   80d80:	f9400fe0 	ldr	x0, [sp, #24]
   80d84:	3900001f 	strb	wzr, [x0]
   80d88:	b9402fe0 	ldr	w0, [sp, #44]
   80d8c:	9100c3ff 	add	sp, sp, #0x30
   80d90:	d65f03c0 	ret

0000000000080d94 <strflush>:
   80d94:	a9bd7bfd 	stp	x29, x30, [sp, #-48]!
   80d98:	910003fd 	mov	x29, sp
   80d9c:	f9000fe0 	str	x0, [sp, #24]
   80da0:	39005fe1 	strb	w1, [sp, #23]
   80da4:	b9002fff 	str	wzr, [sp, #44]
   80da8:	1400001f 	b	80e24 <strflush+0x90>
   80dac:	b9802fe0 	ldrsw	x0, [sp, #44]
   80db0:	f9400fe1 	ldr	x1, [sp, #24]
   80db4:	8b000020 	add	x0, x1, x0
   80db8:	39400000 	ldrb	w0, [x0]
   80dbc:	7100001f 	cmp	w0, #0x0
   80dc0:	540003c0 	b.eq	80e38 <strflush+0xa4>  // b.none
   80dc4:	b9802fe0 	ldrsw	x0, [sp, #44]
   80dc8:	f9400fe1 	ldr	x1, [sp, #24]
   80dcc:	8b000020 	add	x0, x1, x0
   80dd0:	39400000 	ldrb	w0, [x0]
   80dd4:	2a0003e3 	mov	w3, w0
   80dd8:	b9402fe2 	ldr	w2, [sp, #44]
   80ddc:	f0000020 	adrp	x0, 87000 <vector_table_el1>
   80de0:	91202001 	add	x1, x0, #0x808
   80de4:	d2800020 	mov	x0, #0x1                   	// #1
   80de8:	94000b79 	bl	83bcc <uart_printf>
   80dec:	b9802fe0 	ldrsw	x0, [sp, #44]
   80df0:	f9400fe1 	ldr	x1, [sp, #24]
   80df4:	8b000020 	add	x0, x1, x0
   80df8:	39400000 	ldrb	w0, [x0]
   80dfc:	2a0003e1 	mov	w1, w0
   80e00:	d2800020 	mov	x0, #0x1                   	// #1
   80e04:	94000a7d 	bl	837f8 <uart_putc>
   80e08:	f0000020 	adrp	x0, 87000 <vector_table_el1>
   80e0c:	91208001 	add	x1, x0, #0x820
   80e10:	d2800020 	mov	x0, #0x1                   	// #1
   80e14:	94000b6e 	bl	83bcc <uart_printf>
   80e18:	b9402fe0 	ldr	w0, [sp, #44]
   80e1c:	11000400 	add	w0, w0, #0x1
   80e20:	b9002fe0 	str	w0, [sp, #44]
   80e24:	39405fe0 	ldrb	w0, [sp, #23]
   80e28:	b9402fe1 	ldr	w1, [sp, #44]
   80e2c:	6b00003f 	cmp	w1, w0
   80e30:	54fffbeb 	b.lt	80dac <strflush+0x18>  // b.tstop
   80e34:	14000002 	b	80e3c <strflush+0xa8>
   80e38:	d503201f 	nop
   80e3c:	d503201f 	nop
   80e40:	a8c37bfd 	ldp	x29, x30, [sp], #48
   80e44:	d65f03c0 	ret

0000000000080e48 <full_game>:
   80e48:	d10043ff 	sub	sp, sp, #0x10
   80e4c:	f90007e0 	str	x0, [sp, #8]
   80e50:	f94007e0 	ldr	x0, [sp, #8]
   80e54:	b9400000 	ldr	w0, [x0]
   80e58:	7100001f 	cmp	w0, #0x0
   80e5c:	540000e0 	b.eq	80e78 <full_game+0x30>  // b.none
   80e60:	f94007e0 	ldr	x0, [sp, #8]
   80e64:	b9400400 	ldr	w0, [x0, #4]
   80e68:	7100001f 	cmp	w0, #0x0
   80e6c:	54000060 	b.eq	80e78 <full_game+0x30>  // b.none
   80e70:	52800020 	mov	w0, #0x1                   	// #1
   80e74:	14000002 	b	80e7c <full_game+0x34>
   80e78:	52800000 	mov	w0, #0x0                   	// #0
   80e7c:	12001c00 	and	w0, w0, #0xff
   80e80:	910043ff 	add	sp, sp, #0x10
   80e84:	d65f03c0 	ret

0000000000080e88 <full_play>:
   80e88:	a9be7bfd 	stp	x29, x30, [sp, #-32]!
   80e8c:	910003fd 	mov	x29, sp
   80e90:	f9000fe0 	str	x0, [sp, #24]
   80e94:	f9400fe0 	ldr	x0, [sp, #24]
   80e98:	91002000 	add	x0, x0, #0x8
   80e9c:	97fffe71 	bl	80860 <is_empty>
   80ea0:	7100001f 	cmp	w0, #0x0
   80ea4:	54000101 	b.ne	80ec4 <full_play+0x3c>  // b.any
   80ea8:	f9400fe0 	ldr	x0, [sp, #24]
   80eac:	91004800 	add	x0, x0, #0x12
   80eb0:	97fffe6c 	bl	80860 <is_empty>
   80eb4:	7100001f 	cmp	w0, #0x0
   80eb8:	54000061 	b.ne	80ec4 <full_play+0x3c>  // b.any
   80ebc:	52800020 	mov	w0, #0x1                   	// #1
   80ec0:	14000002 	b	80ec8 <full_play+0x40>
   80ec4:	52800000 	mov	w0, #0x0                   	// #0
   80ec8:	12001c00 	and	w0, w0, #0xff
   80ecc:	a8c27bfd 	ldp	x29, x30, [sp], #32
   80ed0:	d65f03c0 	ret

0000000000080ed4 <set_play>:
   80ed4:	a9bc7bfd 	stp	x29, x30, [sp, #-64]!
   80ed8:	910003fd 	mov	x29, sp
   80edc:	f90017e0 	str	x0, [sp, #40]
   80ee0:	b90027e1 	str	w1, [sp, #36]
   80ee4:	f9000fe2 	str	x2, [sp, #24]
   80ee8:	b9003bff 	str	wzr, [sp, #56]
   80eec:	b9003fff 	str	wzr, [sp, #60]
   80ef0:	1400004c 	b	81020 <set_play+0x14c>
   80ef4:	b9803fe1 	ldrsw	x1, [sp, #60]
   80ef8:	aa0103e0 	mov	x0, x1
   80efc:	d37df000 	lsl	x0, x0, #3
   80f00:	8b010000 	add	x0, x0, x1
   80f04:	d37ef400 	lsl	x0, x0, #2
   80f08:	aa0003e1 	mov	x1, x0
   80f0c:	f9400fe0 	ldr	x0, [sp, #24]
   80f10:	8b010000 	add	x0, x0, x1
   80f14:	b9400000 	ldr	w0, [x0]
   80f18:	b94027e1 	ldr	w1, [sp, #36]
   80f1c:	6b00003f 	cmp	w1, w0
   80f20:	54000321 	b.ne	80f84 <set_play+0xb0>  // b.any
   80f24:	b9803fe1 	ldrsw	x1, [sp, #60]
   80f28:	aa0103e0 	mov	x0, x1
   80f2c:	d37df000 	lsl	x0, x0, #3
   80f30:	8b010000 	add	x0, x0, x1
   80f34:	d37ef400 	lsl	x0, x0, #2
   80f38:	aa0003e1 	mov	x1, x0
   80f3c:	f9400fe0 	ldr	x0, [sp, #24]
   80f40:	8b010000 	add	x0, x0, x1
   80f44:	3900201f 	strb	wzr, [x0, #8]
   80f48:	b9803fe1 	ldrsw	x1, [sp, #60]
   80f4c:	aa0103e0 	mov	x0, x1
   80f50:	d37df000 	lsl	x0, x0, #3
   80f54:	8b010000 	add	x0, x0, x1
   80f58:	d37ef400 	lsl	x0, x0, #2
   80f5c:	aa0003e1 	mov	x1, x0
   80f60:	f9400fe0 	ldr	x0, [sp, #24]
   80f64:	8b010000 	add	x0, x0, x1
   80f68:	91002000 	add	x0, x0, #0x8
   80f6c:	52800143 	mov	w3, #0xa                   	// #10
   80f70:	f94017e2 	ldr	x2, [sp, #40]
   80f74:	52800141 	mov	w1, #0xa                   	// #10
   80f78:	97ffff5e 	bl	80cf0 <strcpy>
   80f7c:	b9403fe0 	ldr	w0, [sp, #60]
   80f80:	1400002b 	b	8102c <set_play+0x158>
   80f84:	b9803fe1 	ldrsw	x1, [sp, #60]
   80f88:	aa0103e0 	mov	x0, x1
   80f8c:	d37df000 	lsl	x0, x0, #3
   80f90:	8b010000 	add	x0, x0, x1
   80f94:	d37ef400 	lsl	x0, x0, #2
   80f98:	aa0003e1 	mov	x1, x0
   80f9c:	f9400fe0 	ldr	x0, [sp, #24]
   80fa0:	8b010000 	add	x0, x0, x1
   80fa4:	b9400400 	ldr	w0, [x0, #4]
   80fa8:	b94027e1 	ldr	w1, [sp, #36]
   80fac:	6b00003f 	cmp	w1, w0
   80fb0:	54000321 	b.ne	81014 <set_play+0x140>  // b.any
   80fb4:	b9803fe1 	ldrsw	x1, [sp, #60]
   80fb8:	aa0103e0 	mov	x0, x1
   80fbc:	d37df000 	lsl	x0, x0, #3
   80fc0:	8b010000 	add	x0, x0, x1
   80fc4:	d37ef400 	lsl	x0, x0, #2
   80fc8:	aa0003e1 	mov	x1, x0
   80fcc:	f9400fe0 	ldr	x0, [sp, #24]
   80fd0:	8b010000 	add	x0, x0, x1
   80fd4:	3900481f 	strb	wzr, [x0, #18]
   80fd8:	b9803fe1 	ldrsw	x1, [sp, #60]
   80fdc:	aa0103e0 	mov	x0, x1
   80fe0:	d37df000 	lsl	x0, x0, #3
   80fe4:	8b010000 	add	x0, x0, x1
   80fe8:	d37ef400 	lsl	x0, x0, #2
   80fec:	aa0003e1 	mov	x1, x0
   80ff0:	f9400fe0 	ldr	x0, [sp, #24]
   80ff4:	8b010000 	add	x0, x0, x1
   80ff8:	91004800 	add	x0, x0, #0x12
   80ffc:	52800143 	mov	w3, #0xa                   	// #10
   81000:	f94017e2 	ldr	x2, [sp, #40]
   81004:	52800141 	mov	w1, #0xa                   	// #10
   81008:	97ffff3a 	bl	80cf0 <strcpy>
   8100c:	b9403fe0 	ldr	w0, [sp, #60]
   81010:	14000007 	b	8102c <set_play+0x158>
   81014:	b9403fe0 	ldr	w0, [sp, #60]
   81018:	11000400 	add	w0, w0, #0x1
   8101c:	b9003fe0 	str	w0, [sp, #60]
   81020:	b9403fe0 	ldr	w0, [sp, #60]
   81024:	7100241f 	cmp	w0, #0x9
   81028:	54fff66d 	b.le	80ef4 <set_play+0x20>
   8102c:	a8c47bfd 	ldp	x29, x30, [sp], #64
   81030:	d65f03c0 	ret

0000000000081034 <reset_game>:
   81034:	d10043ff 	sub	sp, sp, #0x10
   81038:	f90007e0 	str	x0, [sp, #8]
   8103c:	f94007e0 	ldr	x0, [sp, #8]
   81040:	3900201f 	strb	wzr, [x0, #8]
   81044:	f94007e0 	ldr	x0, [sp, #8]
   81048:	3900481f 	strb	wzr, [x0, #18]
   8104c:	d503201f 	nop
   81050:	910043ff 	add	sp, sp, #0x10
   81054:	d65f03c0 	ret

0000000000081058 <check_game>:
   81058:	a9be7bfd 	stp	x29, x30, [sp, #-32]!
   8105c:	910003fd 	mov	x29, sp
   81060:	f9000fe0 	str	x0, [sp, #24]
   81064:	f9400fe0 	ldr	x0, [sp, #24]
   81068:	97ffff88 	bl	80e88 <full_play>
   8106c:	12001c00 	and	w0, w0, #0xff
   81070:	7100001f 	cmp	w0, #0x0
   81074:	54000061 	b.ne	81080 <check_game+0x28>  // b.any
   81078:	12800000 	mov	w0, #0xffffffff            	// #-1
   8107c:	14000096 	b	812d4 <check_game+0x27c>
   81080:	f9400fe0 	ldr	x0, [sp, #24]
   81084:	91002002 	add	x2, x0, #0x8
   81088:	d0000020 	adrp	x0, 87000 <vector_table_el1>
   8108c:	9120a001 	add	x1, x0, #0x828
   81090:	aa0203e0 	mov	x0, x2
   81094:	97fffe92 	bl	80adc <strcmp_ret>
   81098:	7100001f 	cmp	w0, #0x0
   8109c:	54000200 	b.eq	810dc <check_game+0x84>  // b.none
   810a0:	f9400fe0 	ldr	x0, [sp, #24]
   810a4:	91004802 	add	x2, x0, #0x12
   810a8:	d0000020 	adrp	x0, 87000 <vector_table_el1>
   810ac:	9120c001 	add	x1, x0, #0x830
   810b0:	aa0203e0 	mov	x0, x2
   810b4:	97fffe8a 	bl	80adc <strcmp_ret>
   810b8:	7100001f 	cmp	w0, #0x0
   810bc:	54000100 	b.eq	810dc <check_game+0x84>  // b.none
   810c0:	f9400fe0 	ldr	x0, [sp, #24]
   810c4:	b9401c00 	ldr	w0, [x0, #28]
   810c8:	11000401 	add	w1, w0, #0x1
   810cc:	f9400fe0 	ldr	x0, [sp, #24]
   810d0:	b9001c01 	str	w1, [x0, #28]
   810d4:	52800020 	mov	w0, #0x1                   	// #1
   810d8:	1400007f 	b	812d4 <check_game+0x27c>
   810dc:	f9400fe0 	ldr	x0, [sp, #24]
   810e0:	91002002 	add	x2, x0, #0x8
   810e4:	d0000020 	adrp	x0, 87000 <vector_table_el1>
   810e8:	9120c001 	add	x1, x0, #0x830
   810ec:	aa0203e0 	mov	x0, x2
   810f0:	97fffe7b 	bl	80adc <strcmp_ret>
   810f4:	7100001f 	cmp	w0, #0x0
   810f8:	54000200 	b.eq	81138 <check_game+0xe0>  // b.none
   810fc:	f9400fe0 	ldr	x0, [sp, #24]
   81100:	91004802 	add	x2, x0, #0x12
   81104:	d0000020 	adrp	x0, 87000 <vector_table_el1>
   81108:	91210001 	add	x1, x0, #0x840
   8110c:	aa0203e0 	mov	x0, x2
   81110:	97fffe73 	bl	80adc <strcmp_ret>
   81114:	7100001f 	cmp	w0, #0x0
   81118:	54000100 	b.eq	81138 <check_game+0xe0>  // b.none
   8111c:	f9400fe0 	ldr	x0, [sp, #24]
   81120:	b9401c00 	ldr	w0, [x0, #28]
   81124:	11000401 	add	w1, w0, #0x1
   81128:	f9400fe0 	ldr	x0, [sp, #24]
   8112c:	b9001c01 	str	w1, [x0, #28]
   81130:	52800020 	mov	w0, #0x1                   	// #1
   81134:	14000068 	b	812d4 <check_game+0x27c>
   81138:	f9400fe0 	ldr	x0, [sp, #24]
   8113c:	91002002 	add	x2, x0, #0x8
   81140:	d0000020 	adrp	x0, 87000 <vector_table_el1>
   81144:	91210001 	add	x1, x0, #0x840
   81148:	aa0203e0 	mov	x0, x2
   8114c:	97fffe64 	bl	80adc <strcmp_ret>
   81150:	7100001f 	cmp	w0, #0x0
   81154:	54000200 	b.eq	81194 <check_game+0x13c>  // b.none
   81158:	f9400fe0 	ldr	x0, [sp, #24]
   8115c:	91004802 	add	x2, x0, #0x12
   81160:	d0000020 	adrp	x0, 87000 <vector_table_el1>
   81164:	9120a001 	add	x1, x0, #0x828
   81168:	aa0203e0 	mov	x0, x2
   8116c:	97fffe5c 	bl	80adc <strcmp_ret>
   81170:	7100001f 	cmp	w0, #0x0
   81174:	54000100 	b.eq	81194 <check_game+0x13c>  // b.none
   81178:	f9400fe0 	ldr	x0, [sp, #24]
   8117c:	b9401c00 	ldr	w0, [x0, #28]
   81180:	11000401 	add	w1, w0, #0x1
   81184:	f9400fe0 	ldr	x0, [sp, #24]
   81188:	b9001c01 	str	w1, [x0, #28]
   8118c:	52800020 	mov	w0, #0x1                   	// #1
   81190:	14000051 	b	812d4 <check_game+0x27c>
   81194:	f9400fe0 	ldr	x0, [sp, #24]
   81198:	91002002 	add	x2, x0, #0x8
   8119c:	d0000020 	adrp	x0, 87000 <vector_table_el1>
   811a0:	9120a001 	add	x1, x0, #0x828
   811a4:	aa0203e0 	mov	x0, x2
   811a8:	97fffe4d 	bl	80adc <strcmp_ret>
   811ac:	7100001f 	cmp	w0, #0x0
   811b0:	54000200 	b.eq	811f0 <check_game+0x198>  // b.none
   811b4:	f9400fe0 	ldr	x0, [sp, #24]
   811b8:	91004802 	add	x2, x0, #0x12
   811bc:	d0000020 	adrp	x0, 87000 <vector_table_el1>
   811c0:	91210001 	add	x1, x0, #0x840
   811c4:	aa0203e0 	mov	x0, x2
   811c8:	97fffe45 	bl	80adc <strcmp_ret>
   811cc:	7100001f 	cmp	w0, #0x0
   811d0:	54000100 	b.eq	811f0 <check_game+0x198>  // b.none
   811d4:	f9400fe0 	ldr	x0, [sp, #24]
   811d8:	b9402000 	ldr	w0, [x0, #32]
   811dc:	11000401 	add	w1, w0, #0x1
   811e0:	f9400fe0 	ldr	x0, [sp, #24]
   811e4:	b9002001 	str	w1, [x0, #32]
   811e8:	52800040 	mov	w0, #0x2                   	// #2
   811ec:	1400003a 	b	812d4 <check_game+0x27c>
   811f0:	f9400fe0 	ldr	x0, [sp, #24]
   811f4:	91002002 	add	x2, x0, #0x8
   811f8:	d0000020 	adrp	x0, 87000 <vector_table_el1>
   811fc:	9120c001 	add	x1, x0, #0x830
   81200:	aa0203e0 	mov	x0, x2
   81204:	97fffe36 	bl	80adc <strcmp_ret>
   81208:	7100001f 	cmp	w0, #0x0
   8120c:	54000200 	b.eq	8124c <check_game+0x1f4>  // b.none
   81210:	f9400fe0 	ldr	x0, [sp, #24]
   81214:	91004802 	add	x2, x0, #0x12
   81218:	d0000020 	adrp	x0, 87000 <vector_table_el1>
   8121c:	9120a001 	add	x1, x0, #0x828
   81220:	aa0203e0 	mov	x0, x2
   81224:	97fffe2e 	bl	80adc <strcmp_ret>
   81228:	7100001f 	cmp	w0, #0x0
   8122c:	54000100 	b.eq	8124c <check_game+0x1f4>  // b.none
   81230:	f9400fe0 	ldr	x0, [sp, #24]
   81234:	b9402000 	ldr	w0, [x0, #32]
   81238:	11000401 	add	w1, w0, #0x1
   8123c:	f9400fe0 	ldr	x0, [sp, #24]
   81240:	b9002001 	str	w1, [x0, #32]
   81244:	52800040 	mov	w0, #0x2                   	// #2
   81248:	14000023 	b	812d4 <check_game+0x27c>
   8124c:	f9400fe0 	ldr	x0, [sp, #24]
   81250:	91002002 	add	x2, x0, #0x8
   81254:	d0000020 	adrp	x0, 87000 <vector_table_el1>
   81258:	91210001 	add	x1, x0, #0x840
   8125c:	aa0203e0 	mov	x0, x2
   81260:	97fffe1f 	bl	80adc <strcmp_ret>
   81264:	7100001f 	cmp	w0, #0x0
   81268:	54000200 	b.eq	812a8 <check_game+0x250>  // b.none
   8126c:	f9400fe0 	ldr	x0, [sp, #24]
   81270:	91004802 	add	x2, x0, #0x12
   81274:	d0000020 	adrp	x0, 87000 <vector_table_el1>
   81278:	9120c001 	add	x1, x0, #0x830
   8127c:	aa0203e0 	mov	x0, x2
   81280:	97fffe17 	bl	80adc <strcmp_ret>
   81284:	7100001f 	cmp	w0, #0x0
   81288:	54000100 	b.eq	812a8 <check_game+0x250>  // b.none
   8128c:	f9400fe0 	ldr	x0, [sp, #24]
   81290:	b9402000 	ldr	w0, [x0, #32]
   81294:	11000401 	add	w1, w0, #0x1
   81298:	f9400fe0 	ldr	x0, [sp, #24]
   8129c:	b9002001 	str	w1, [x0, #32]
   812a0:	52800040 	mov	w0, #0x2                   	// #2
   812a4:	1400000c 	b	812d4 <check_game+0x27c>
   812a8:	f9400fe0 	ldr	x0, [sp, #24]
   812ac:	91002002 	add	x2, x0, #0x8
   812b0:	f9400fe0 	ldr	x0, [sp, #24]
   812b4:	91004800 	add	x0, x0, #0x12
   812b8:	aa0003e1 	mov	x1, x0
   812bc:	aa0203e0 	mov	x0, x2
   812c0:	97fffe07 	bl	80adc <strcmp_ret>
   812c4:	7100001f 	cmp	w0, #0x0
   812c8:	54000060 	b.eq	812d4 <check_game+0x27c>  // b.none
   812cc:	52800000 	mov	w0, #0x0                   	// #0
   812d0:	14000001 	b	812d4 <check_game+0x27c>
   812d4:	a8c27bfd 	ldp	x29, x30, [sp], #32
   812d8:	d65f03c0 	ret

00000000000812dc <gameserver>:
   812dc:	a9a17bfd 	stp	x29, x30, [sp, #-496]!
   812e0:	910003fd 	mov	x29, sp
   812e4:	d0000020 	adrp	x0, 87000 <vector_table_el1>
   812e8:	91212000 	add	x0, x0, #0x848
   812ec:	940005a7 	bl	82988 <RegisterAs>
   812f0:	52800620 	mov	w0, #0x31                  	// #49
   812f4:	b901e3e0 	str	w0, [sp, #480]
   812f8:	b901efff 	str	wzr, [sp, #492]
   812fc:	14000020 	b	8137c <gameserver+0xa0>
   81300:	b981efe1 	ldrsw	x1, [sp, #492]
   81304:	aa0103e0 	mov	x0, x1
   81308:	d37df000 	lsl	x0, x0, #3
   8130c:	8b010000 	add	x0, x0, x1
   81310:	d37ef400 	lsl	x0, x0, #2
   81314:	910063e1 	add	x1, sp, #0x18
   81318:	b820683f 	str	wzr, [x1, x0]
   8131c:	b981efe1 	ldrsw	x1, [sp, #492]
   81320:	aa0103e0 	mov	x0, x1
   81324:	d37df000 	lsl	x0, x0, #3
   81328:	8b010000 	add	x0, x0, x1
   8132c:	d37ef400 	lsl	x0, x0, #2
   81330:	910083e1 	add	x1, sp, #0x20
   81334:	3820683f 	strb	wzr, [x1, x0]
   81338:	b981efe1 	ldrsw	x1, [sp, #492]
   8133c:	aa0103e0 	mov	x0, x1
   81340:	d37df000 	lsl	x0, x0, #3
   81344:	8b010000 	add	x0, x0, x1
   81348:	d37ef400 	lsl	x0, x0, #2
   8134c:	910073e1 	add	x1, sp, #0x1c
   81350:	b820683f 	str	wzr, [x1, x0]
   81354:	b981efe1 	ldrsw	x1, [sp, #492]
   81358:	aa0103e0 	mov	x0, x1
   8135c:	d37df000 	lsl	x0, x0, #3
   81360:	8b010000 	add	x0, x0, x1
   81364:	d37ef400 	lsl	x0, x0, #2
   81368:	9100abe1 	add	x1, sp, #0x2a
   8136c:	3820683f 	strb	wzr, [x1, x0]
   81370:	b941efe0 	ldr	w0, [sp, #492]
   81374:	11000400 	add	w0, w0, #0x1
   81378:	b901efe0 	str	w0, [sp, #492]
   8137c:	b941efe0 	ldr	w0, [sp, #492]
   81380:	7100241f 	cmp	w0, #0x9
   81384:	54fffbed 	b.le	81300 <gameserver+0x24>
   81388:	910603e1 	add	x1, sp, #0x180
   8138c:	9106e3e0 	add	x0, sp, #0x1b8
   81390:	b941e3e2 	ldr	w2, [sp, #480]
   81394:	94001184 	bl	859a4 <Receive>
   81398:	b901dfe0 	str	w0, [sp, #476]
   8139c:	910603e2 	add	x2, sp, #0x180
   813a0:	d0000020 	adrp	x0, 87000 <vector_table_el1>
   813a4:	91216001 	add	x1, x0, #0x858
   813a8:	aa0203e0 	mov	x0, x2
   813ac:	97fffdcc 	bl	80adc <strcmp_ret>
   813b0:	7100001f 	cmp	w0, #0x0
   813b4:	540008e0 	b.eq	814d0 <gameserver+0x1f4>  // b.none
   813b8:	b901ebff 	str	wzr, [sp, #488]
   813bc:	1400003a 	b	814a4 <gameserver+0x1c8>
   813c0:	910063e2 	add	x2, sp, #0x18
   813c4:	b981ebe1 	ldrsw	x1, [sp, #488]
   813c8:	aa0103e0 	mov	x0, x1
   813cc:	d37df000 	lsl	x0, x0, #3
   813d0:	8b010000 	add	x0, x0, x1
   813d4:	d37ef400 	lsl	x0, x0, #2
   813d8:	8b000040 	add	x0, x2, x0
   813dc:	97fffe9b 	bl	80e48 <full_game>
   813e0:	12001c00 	and	w0, w0, #0xff
   813e4:	7100001f 	cmp	w0, #0x0
   813e8:	54000581 	b.ne	81498 <gameserver+0x1bc>  // b.any
   813ec:	b981ebe1 	ldrsw	x1, [sp, #488]
   813f0:	aa0103e0 	mov	x0, x1
   813f4:	d37df000 	lsl	x0, x0, #3
   813f8:	8b010000 	add	x0, x0, x1
   813fc:	d37ef400 	lsl	x0, x0, #2
   81400:	910063e1 	add	x1, sp, #0x18
   81404:	b8606820 	ldr	w0, [x1, x0]
   81408:	7100001f 	cmp	w0, #0x0
   8140c:	54000241 	b.ne	81454 <gameserver+0x178>  // b.any
   81410:	b941bbe0 	ldr	w0, [sp, #440]
   81414:	2a0003e2 	mov	w2, w0
   81418:	b981ebe1 	ldrsw	x1, [sp, #488]
   8141c:	aa0103e0 	mov	x0, x1
   81420:	d37df000 	lsl	x0, x0, #3
   81424:	8b010000 	add	x0, x0, x1
   81428:	d37ef400 	lsl	x0, x0, #2
   8142c:	910063e1 	add	x1, sp, #0x18
   81430:	b8206822 	str	w2, [x1, x0]
   81434:	b981ebe1 	ldrsw	x1, [sp, #488]
   81438:	aa0103e0 	mov	x0, x1
   8143c:	d37df000 	lsl	x0, x0, #3
   81440:	8b010000 	add	x0, x0, x1
   81444:	d37ef400 	lsl	x0, x0, #2
   81448:	910083e1 	add	x1, sp, #0x20
   8144c:	3820683f 	strb	wzr, [x1, x0]
   81450:	14000018 	b	814b0 <gameserver+0x1d4>
   81454:	b941bbe0 	ldr	w0, [sp, #440]
   81458:	2a0003e2 	mov	w2, w0
   8145c:	b981ebe1 	ldrsw	x1, [sp, #488]
   81460:	aa0103e0 	mov	x0, x1
   81464:	d37df000 	lsl	x0, x0, #3
   81468:	8b010000 	add	x0, x0, x1
   8146c:	d37ef400 	lsl	x0, x0, #2
   81470:	910073e1 	add	x1, sp, #0x1c
   81474:	b8206822 	str	w2, [x1, x0]
   81478:	b981ebe1 	ldrsw	x1, [sp, #488]
   8147c:	aa0103e0 	mov	x0, x1
   81480:	d37df000 	lsl	x0, x0, #3
   81484:	8b010000 	add	x0, x0, x1
   81488:	d37ef400 	lsl	x0, x0, #2
   8148c:	9100abe1 	add	x1, sp, #0x2a
   81490:	3820683f 	strb	wzr, [x1, x0]
   81494:	14000007 	b	814b0 <gameserver+0x1d4>
   81498:	b941ebe0 	ldr	w0, [sp, #488]
   8149c:	11000400 	add	w0, w0, #0x1
   814a0:	b901ebe0 	str	w0, [sp, #488]
   814a4:	b941ebe0 	ldr	w0, [sp, #488]
   814a8:	7100241f 	cmp	w0, #0x9
   814ac:	54fff8ad 	b.le	813c0 <gameserver+0xe4>
   814b0:	b941bbe3 	ldr	w3, [sp, #440]
   814b4:	52800322 	mov	w2, #0x19                  	// #25
   814b8:	d0000020 	adrp	x0, 87000 <vector_table_el1>
   814bc:	91218001 	add	x1, x0, #0x860
   814c0:	2a0303e0 	mov	w0, w3
   814c4:	94001141 	bl	859c8 <Reply>
   814c8:	b901bfe0 	str	w0, [sp, #444]
   814cc:	140000c5 	b	817e0 <gameserver+0x504>
   814d0:	910603e2 	add	x2, sp, #0x180
   814d4:	d0000020 	adrp	x0, 87000 <vector_table_el1>
   814d8:	9121c001 	add	x1, x0, #0x870
   814dc:	aa0203e0 	mov	x0, x2
   814e0:	97fffd7f 	bl	80adc <strcmp_ret>
   814e4:	7100001f 	cmp	w0, #0x0
   814e8:	54000820 	b.eq	815ec <gameserver+0x310>  // b.none
   814ec:	b901e7ff 	str	wzr, [sp, #484]
   814f0:	14000034 	b	815c0 <gameserver+0x2e4>
   814f4:	b981e7e1 	ldrsw	x1, [sp, #484]
   814f8:	aa0103e0 	mov	x0, x1
   814fc:	d37df000 	lsl	x0, x0, #3
   81500:	8b010000 	add	x0, x0, x1
   81504:	d37ef400 	lsl	x0, x0, #2
   81508:	910063e1 	add	x1, sp, #0x18
   8150c:	b8606820 	ldr	w0, [x1, x0]
   81510:	b941bbe1 	ldr	w1, [sp, #440]
   81514:	6b01001f 	cmp	w0, w1
   81518:	540001e1 	b.ne	81554 <gameserver+0x278>  // b.any
   8151c:	b981e7e1 	ldrsw	x1, [sp, #484]
   81520:	aa0103e0 	mov	x0, x1
   81524:	d37df000 	lsl	x0, x0, #3
   81528:	8b010000 	add	x0, x0, x1
   8152c:	d37ef400 	lsl	x0, x0, #2
   81530:	910063e1 	add	x1, sp, #0x18
   81534:	b820683f 	str	wzr, [x1, x0]
   81538:	b981e7e1 	ldrsw	x1, [sp, #484]
   8153c:	aa0103e0 	mov	x0, x1
   81540:	d37df000 	lsl	x0, x0, #3
   81544:	8b010000 	add	x0, x0, x1
   81548:	d37ef400 	lsl	x0, x0, #2
   8154c:	910083e1 	add	x1, sp, #0x20
   81550:	3820683f 	strb	wzr, [x1, x0]
   81554:	b981e7e1 	ldrsw	x1, [sp, #484]
   81558:	aa0103e0 	mov	x0, x1
   8155c:	d37df000 	lsl	x0, x0, #3
   81560:	8b010000 	add	x0, x0, x1
   81564:	d37ef400 	lsl	x0, x0, #2
   81568:	910073e1 	add	x1, sp, #0x1c
   8156c:	b8606820 	ldr	w0, [x1, x0]
   81570:	b941bbe1 	ldr	w1, [sp, #440]
   81574:	6b01001f 	cmp	w0, w1
   81578:	540001e1 	b.ne	815b4 <gameserver+0x2d8>  // b.any
   8157c:	b981e7e1 	ldrsw	x1, [sp, #484]
   81580:	aa0103e0 	mov	x0, x1
   81584:	d37df000 	lsl	x0, x0, #3
   81588:	8b010000 	add	x0, x0, x1
   8158c:	d37ef400 	lsl	x0, x0, #2
   81590:	910073e1 	add	x1, sp, #0x1c
   81594:	b820683f 	str	wzr, [x1, x0]
   81598:	b981e7e1 	ldrsw	x1, [sp, #484]
   8159c:	aa0103e0 	mov	x0, x1
   815a0:	d37df000 	lsl	x0, x0, #3
   815a4:	8b010000 	add	x0, x0, x1
   815a8:	d37ef400 	lsl	x0, x0, #2
   815ac:	9100abe1 	add	x1, sp, #0x2a
   815b0:	3820683f 	strb	wzr, [x1, x0]
   815b4:	b941e7e0 	ldr	w0, [sp, #484]
   815b8:	11000400 	add	w0, w0, #0x1
   815bc:	b901e7e0 	str	w0, [sp, #484]
   815c0:	b941e7e0 	ldr	w0, [sp, #484]
   815c4:	7100241f 	cmp	w0, #0x9
   815c8:	54fff96d 	b.le	814f4 <gameserver+0x218>
   815cc:	b941bbe3 	ldr	w3, [sp, #440]
   815d0:	52800322 	mov	w2, #0x19                  	// #25
   815d4:	d0000020 	adrp	x0, 87000 <vector_table_el1>
   815d8:	91218001 	add	x1, x0, #0x860
   815dc:	2a0303e0 	mov	w0, w3
   815e0:	940010fa 	bl	859c8 <Reply>
   815e4:	b901c3e0 	str	w0, [sp, #448]
   815e8:	1400007e 	b	817e0 <gameserver+0x504>
   815ec:	910603e2 	add	x2, sp, #0x180
   815f0:	d0000020 	adrp	x0, 87000 <vector_table_el1>
   815f4:	9120a001 	add	x1, x0, #0x828
   815f8:	aa0203e0 	mov	x0, x2
   815fc:	97fffd38 	bl	80adc <strcmp_ret>
   81600:	7100001f 	cmp	w0, #0x0
   81604:	540001e1 	b.ne	81640 <gameserver+0x364>  // b.any
   81608:	910603e2 	add	x2, sp, #0x180
   8160c:	d0000020 	adrp	x0, 87000 <vector_table_el1>
   81610:	91210001 	add	x1, x0, #0x840
   81614:	aa0203e0 	mov	x0, x2
   81618:	97fffd31 	bl	80adc <strcmp_ret>
   8161c:	7100001f 	cmp	w0, #0x0
   81620:	54000101 	b.ne	81640 <gameserver+0x364>  // b.any
   81624:	910603e2 	add	x2, sp, #0x180
   81628:	d0000020 	adrp	x0, 87000 <vector_table_el1>
   8162c:	9120c001 	add	x1, x0, #0x830
   81630:	aa0203e0 	mov	x0, x2
   81634:	97fffd2a 	bl	80adc <strcmp_ret>
   81638:	7100001f 	cmp	w0, #0x0
   8163c:	54ffea60 	b.eq	81388 <gameserver+0xac>  // b.none
   81640:	b941bbe0 	ldr	w0, [sp, #440]
   81644:	2a0003e3 	mov	w3, w0
   81648:	910063e1 	add	x1, sp, #0x18
   8164c:	910603e0 	add	x0, sp, #0x180
   81650:	aa0103e2 	mov	x2, x1
   81654:	2a0303e1 	mov	w1, w3
   81658:	97fffe1f 	bl	80ed4 <set_play>
   8165c:	39076fe0 	strb	w0, [sp, #475]
   81660:	39476fe0 	ldrb	w0, [sp, #475]
   81664:	93407c01 	sxtw	x1, w0
   81668:	aa0103e0 	mov	x0, x1
   8166c:	d37df000 	lsl	x0, x0, #3
   81670:	8b010000 	add	x0, x0, x1
   81674:	d37ef400 	lsl	x0, x0, #2
   81678:	910063e1 	add	x1, sp, #0x18
   8167c:	b8606820 	ldr	w0, [x1, x0]
   81680:	b901d7e0 	str	w0, [sp, #468]
   81684:	39476fe0 	ldrb	w0, [sp, #475]
   81688:	93407c01 	sxtw	x1, w0
   8168c:	aa0103e0 	mov	x0, x1
   81690:	d37df000 	lsl	x0, x0, #3
   81694:	8b010000 	add	x0, x0, x1
   81698:	d37ef400 	lsl	x0, x0, #2
   8169c:	910073e1 	add	x1, sp, #0x1c
   816a0:	b8606820 	ldr	w0, [x1, x0]
   816a4:	b901d3e0 	str	w0, [sp, #464]
   816a8:	39476fe0 	ldrb	w0, [sp, #475]
   816ac:	910063e2 	add	x2, sp, #0x18
   816b0:	93407c01 	sxtw	x1, w0
   816b4:	aa0103e0 	mov	x0, x1
   816b8:	d37df000 	lsl	x0, x0, #3
   816bc:	8b010000 	add	x0, x0, x1
   816c0:	d37ef400 	lsl	x0, x0, #2
   816c4:	8b000040 	add	x0, x2, x0
   816c8:	97fffdf0 	bl	80e88 <full_play>
   816cc:	12001c00 	and	w0, w0, #0xff
   816d0:	7100001f 	cmp	w0, #0x0
   816d4:	54ffe5a0 	b.eq	81388 <gameserver+0xac>  // b.none
   816d8:	39476fe0 	ldrb	w0, [sp, #475]
   816dc:	910063e2 	add	x2, sp, #0x18
   816e0:	93407c01 	sxtw	x1, w0
   816e4:	aa0103e0 	mov	x0, x1
   816e8:	d37df000 	lsl	x0, x0, #3
   816ec:	8b010000 	add	x0, x0, x1
   816f0:	d37ef400 	lsl	x0, x0, #2
   816f4:	8b000040 	add	x0, x2, x0
   816f8:	97fffe58 	bl	81058 <check_game>
   816fc:	b901cfe0 	str	w0, [sp, #460]
   81700:	39476fe0 	ldrb	w0, [sp, #475]
   81704:	910063e2 	add	x2, sp, #0x18
   81708:	93407c01 	sxtw	x1, w0
   8170c:	aa0103e0 	mov	x0, x1
   81710:	d37df000 	lsl	x0, x0, #3
   81714:	8b010000 	add	x0, x0, x1
   81718:	d37ef400 	lsl	x0, x0, #2
   8171c:	8b000040 	add	x0, x2, x0
   81720:	97fffe45 	bl	81034 <reset_game>
   81724:	b941cfe0 	ldr	w0, [sp, #460]
   81728:	7100041f 	cmp	w0, #0x1
   8172c:	540001c1 	b.ne	81764 <gameserver+0x488>  // b.any
   81730:	52800042 	mov	w2, #0x2                   	// #2
   81734:	d0000020 	adrp	x0, 87000 <vector_table_el1>
   81738:	9121e001 	add	x1, x0, #0x878
   8173c:	b941d7e0 	ldr	w0, [sp, #468]
   81740:	940010a2 	bl	859c8 <Reply>
   81744:	b901cbe0 	str	w0, [sp, #456]
   81748:	52800042 	mov	w2, #0x2                   	// #2
   8174c:	d0000020 	adrp	x0, 87000 <vector_table_el1>
   81750:	91220001 	add	x1, x0, #0x880
   81754:	b941d3e0 	ldr	w0, [sp, #464]
   81758:	9400109c 	bl	859c8 <Reply>
   8175c:	b901c7e0 	str	w0, [sp, #452]
   81760:	17ffff0a 	b	81388 <gameserver+0xac>
   81764:	b941cfe0 	ldr	w0, [sp, #460]
   81768:	7100081f 	cmp	w0, #0x2
   8176c:	540001c1 	b.ne	817a4 <gameserver+0x4c8>  // b.any
   81770:	52800042 	mov	w2, #0x2                   	// #2
   81774:	d0000020 	adrp	x0, 87000 <vector_table_el1>
   81778:	91220001 	add	x1, x0, #0x880
   8177c:	b941d7e0 	ldr	w0, [sp, #468]
   81780:	94001092 	bl	859c8 <Reply>
   81784:	b901cbe0 	str	w0, [sp, #456]
   81788:	52800042 	mov	w2, #0x2                   	// #2
   8178c:	d0000020 	adrp	x0, 87000 <vector_table_el1>
   81790:	9121e001 	add	x1, x0, #0x878
   81794:	b941d3e0 	ldr	w0, [sp, #464]
   81798:	9400108c 	bl	859c8 <Reply>
   8179c:	b901c7e0 	str	w0, [sp, #452]
   817a0:	17fffefa 	b	81388 <gameserver+0xac>
   817a4:	b941cfe0 	ldr	w0, [sp, #460]
   817a8:	7100001f 	cmp	w0, #0x0
   817ac:	54ffdee1 	b.ne	81388 <gameserver+0xac>  // b.any
   817b0:	52800042 	mov	w2, #0x2                   	// #2
   817b4:	d0000020 	adrp	x0, 87000 <vector_table_el1>
   817b8:	91222001 	add	x1, x0, #0x888
   817bc:	b941d7e0 	ldr	w0, [sp, #468]
   817c0:	94001082 	bl	859c8 <Reply>
   817c4:	b901cbe0 	str	w0, [sp, #456]
   817c8:	52800042 	mov	w2, #0x2                   	// #2
   817cc:	d0000020 	adrp	x0, 87000 <vector_table_el1>
   817d0:	91222001 	add	x1, x0, #0x888
   817d4:	b941d3e0 	ldr	w0, [sp, #464]
   817d8:	9400107c 	bl	859c8 <Reply>
   817dc:	b901c7e0 	str	w0, [sp, #452]
   817e0:	17fffeea 	b	81388 <gameserver+0xac>

00000000000817e4 <signup>:
   817e4:	a9bd7bfd 	stp	x29, x30, [sp, #-48]!
   817e8:	910003fd 	mov	x29, sp
   817ec:	d0000020 	adrp	x0, 87000 <vector_table_el1>
   817f0:	91212000 	add	x0, x0, #0x848
   817f4:	940004ad 	bl	82aa8 <WhoIs>
   817f8:	b9002fe0 	str	w0, [sp, #44]
   817fc:	910043e0 	add	x0, sp, #0x10
   81800:	52800324 	mov	w4, #0x19                  	// #25
   81804:	aa0003e3 	mov	x3, x0
   81808:	528000c2 	mov	w2, #0x6                   	// #6
   8180c:	d0000020 	adrp	x0, 87000 <vector_table_el1>
   81810:	91216001 	add	x1, x0, #0x858
   81814:	b9402fe0 	ldr	w0, [sp, #44]
   81818:	94001058 	bl	85978 <Send>
   8181c:	d503201f 	nop
   81820:	a8c37bfd 	ldp	x29, x30, [sp], #48
   81824:	d65f03c0 	ret

0000000000081828 <quit>:
   81828:	a9bd7bfd 	stp	x29, x30, [sp, #-48]!
   8182c:	910003fd 	mov	x29, sp
   81830:	d0000020 	adrp	x0, 87000 <vector_table_el1>
   81834:	91212000 	add	x0, x0, #0x848
   81838:	9400049c 	bl	82aa8 <WhoIs>
   8183c:	b9002fe0 	str	w0, [sp, #44]
   81840:	910043e0 	add	x0, sp, #0x10
   81844:	52800324 	mov	w4, #0x19                  	// #25
   81848:	aa0003e3 	mov	x3, x0
   8184c:	52800082 	mov	w2, #0x4                   	// #4
   81850:	d0000020 	adrp	x0, 87000 <vector_table_el1>
   81854:	9121c001 	add	x1, x0, #0x870
   81858:	b9402fe0 	ldr	w0, [sp, #44]
   8185c:	94001047 	bl	85978 <Send>
   81860:	d503201f 	nop
   81864:	a8c37bfd 	ldp	x29, x30, [sp], #48
   81868:	d65f03c0 	ret

000000000008186c <play>:
   8186c:	a9bc7bfd 	stp	x29, x30, [sp, #-64]!
   81870:	910003fd 	mov	x29, sp
   81874:	f9000fe0 	str	x0, [sp, #24]
   81878:	d0000020 	adrp	x0, 87000 <vector_table_el1>
   8187c:	91212000 	add	x0, x0, #0x848
   81880:	9400048a 	bl	82aa8 <WhoIs>
   81884:	b9003fe0 	str	w0, [sp, #60]
   81888:	910083e0 	add	x0, sp, #0x20
   8188c:	52800324 	mov	w4, #0x19                  	// #25
   81890:	aa0003e3 	mov	x3, x0
   81894:	52800122 	mov	w2, #0x9                   	// #9
   81898:	f9400fe1 	ldr	x1, [sp, #24]
   8189c:	b9403fe0 	ldr	w0, [sp, #60]
   818a0:	94001036 	bl	85978 <Send>
   818a4:	394083e0 	ldrb	w0, [sp, #32]
   818a8:	3900efe0 	strb	w0, [sp, #59]
   818ac:	3940efe0 	ldrb	w0, [sp, #59]
   818b0:	a8c47bfd 	ldp	x29, x30, [sp], #64
   818b4:	d65f03c0 	ret

00000000000818b8 <int64_to_byint>:
   818b8:	d10083ff 	sub	sp, sp, #0x20
   818bc:	f9000fe0 	str	x0, [sp, #24]
   818c0:	f9000be1 	str	x1, [sp, #16]
   818c4:	f90007e2 	str	x2, [sp, #8]
   818c8:	f9400fe0 	ldr	x0, [sp, #24]
   818cc:	d360fc00 	lsr	x0, x0, #32
   818d0:	2a0003e1 	mov	w1, w0
   818d4:	f9400be0 	ldr	x0, [sp, #16]
   818d8:	b9000001 	str	w1, [x0]
   818dc:	f9400fe0 	ldr	x0, [sp, #24]
   818e0:	2a0003e1 	mov	w1, w0
   818e4:	f94007e0 	ldr	x0, [sp, #8]
   818e8:	b9000001 	str	w1, [x0]
   818ec:	d503201f 	nop
   818f0:	910083ff 	add	sp, sp, #0x20
   818f4:	d65f03c0 	ret

00000000000818f8 <byint_to_int64>:
   818f8:	d10083ff 	sub	sp, sp, #0x20
   818fc:	b9000fe0 	str	w0, [sp, #12]
   81900:	b9000be1 	str	w1, [sp, #8]
   81904:	b9800fe0 	ldrsw	x0, [sp, #12]
   81908:	f9000fe0 	str	x0, [sp, #24]
   8190c:	f9400fe0 	ldr	x0, [sp, #24]
   81910:	d3607c00 	lsl	x0, x0, #32
   81914:	f9000fe0 	str	x0, [sp, #24]
   81918:	b9800be0 	ldrsw	x0, [sp, #8]
   8191c:	f9400fe1 	ldr	x1, [sp, #24]
   81920:	aa000020 	orr	x0, x1, x0
   81924:	f9000fe0 	str	x0, [sp, #24]
   81928:	f9400fe0 	ldr	x0, [sp, #24]
   8192c:	910083ff 	add	sp, sp, #0x20
   81930:	d65f03c0 	ret

0000000000081934 <octochar_to_int64>:
   81934:	d10083ff 	sub	sp, sp, #0x20
   81938:	f90007e0 	str	x0, [sp, #8]
   8193c:	f9000fff 	str	xzr, [sp, #24]
   81940:	528000e0 	mov	w0, #0x7                   	// #7
   81944:	b90017e0 	str	w0, [sp, #20]
   81948:	1400000f 	b	81984 <octochar_to_int64+0x50>
   8194c:	f9400fe0 	ldr	x0, [sp, #24]
   81950:	d378dc00 	lsl	x0, x0, #8
   81954:	f9000fe0 	str	x0, [sp, #24]
   81958:	b98017e0 	ldrsw	x0, [sp, #20]
   8195c:	f94007e1 	ldr	x1, [sp, #8]
   81960:	8b000020 	add	x0, x1, x0
   81964:	39400000 	ldrb	w0, [x0]
   81968:	92401c00 	and	x0, x0, #0xff
   8196c:	f9400fe1 	ldr	x1, [sp, #24]
   81970:	aa000020 	orr	x0, x1, x0
   81974:	f9000fe0 	str	x0, [sp, #24]
   81978:	b94017e0 	ldr	w0, [sp, #20]
   8197c:	51000400 	sub	w0, w0, #0x1
   81980:	b90017e0 	str	w0, [sp, #20]
   81984:	b94017e0 	ldr	w0, [sp, #20]
   81988:	7100001f 	cmp	w0, #0x0
   8198c:	54fffe0a 	b.ge	8194c <octochar_to_int64+0x18>  // b.tcont
   81990:	f9400fe0 	ldr	x0, [sp, #24]
   81994:	910083ff 	add	sp, sp, #0x20
   81998:	d65f03c0 	ret

000000000008199c <int64_to_octochar>:
   8199c:	d10083ff 	sub	sp, sp, #0x20
   819a0:	f90007e0 	str	x0, [sp, #8]
   819a4:	f90003e1 	str	x1, [sp]
   819a8:	b9001fff 	str	wzr, [sp, #28]
   819ac:	1400000d 	b	819e0 <int64_to_octochar+0x44>
   819b0:	b9801fe0 	ldrsw	x0, [sp, #28]
   819b4:	f94003e1 	ldr	x1, [sp]
   819b8:	8b000020 	add	x0, x1, x0
   819bc:	f94007e1 	ldr	x1, [sp, #8]
   819c0:	12001c21 	and	w1, w1, #0xff
   819c4:	39000001 	strb	w1, [x0]
   819c8:	f94007e0 	ldr	x0, [sp, #8]
   819cc:	d348fc00 	lsr	x0, x0, #8
   819d0:	f90007e0 	str	x0, [sp, #8]
   819d4:	b9401fe0 	ldr	w0, [sp, #28]
   819d8:	11000400 	add	w0, w0, #0x1
   819dc:	b9001fe0 	str	w0, [sp, #28]
   819e0:	b9401fe0 	ldr	w0, [sp, #28]
   819e4:	71001c1f 	cmp	w0, #0x7
   819e8:	54fffe4d 	b.le	819b0 <int64_to_octochar+0x14>
   819ec:	d503201f 	nop
   819f0:	d503201f 	nop
   819f4:	910083ff 	add	sp, sp, #0x20
   819f8:	d65f03c0 	ret

00000000000819fc <k2_sender>:
   819fc:	a9b27bfd 	stp	x29, x30, [sp, #-224]!
   81a00:	910003fd 	mov	x29, sp
   81a04:	a90153f3 	stp	x19, x20, [sp, #16]
   81a08:	a9025bf5 	stp	x21, x22, [sp, #32]
   81a0c:	a90363f7 	stp	x23, x24, [sp, #48]
   81a10:	a9046bf9 	stp	x25, x26, [sp, #64]
   81a14:	f9002bfb 	str	x27, [sp, #80]
   81a18:	b900afa0 	str	w0, [x29, #172]
   81a1c:	910003e0 	mov	x0, sp
   81a20:	aa0003f3 	mov	x19, x0
   81a24:	94000ff9 	bl	85a08 <MyTid>
   81a28:	b900dba0 	str	w0, [x29, #216]
   81a2c:	b940dba2 	ldr	w2, [x29, #216]
   81a30:	d0000020 	adrp	x0, 87000 <vector_table_el1>
   81a34:	91224001 	add	x1, x0, #0x890
   81a38:	d2800020 	mov	x0, #0x1                   	// #1
   81a3c:	94000864 	bl	83bcc <uart_printf>
   81a40:	b940afa0 	ldr	w0, [x29, #172]
   81a44:	93407c01 	sxtw	x1, w0
   81a48:	d1000421 	sub	x1, x1, #0x1
   81a4c:	f9006ba1 	str	x1, [x29, #208]
   81a50:	93407c01 	sxtw	x1, w0
   81a54:	f9004ba1 	str	x1, [x29, #144]
   81a58:	f9004fbf 	str	xzr, [x29, #152]
   81a5c:	a9490fa2 	ldp	x2, x3, [x29, #144]
   81a60:	aa0203e1 	mov	x1, x2
   81a64:	d37dfc21 	lsr	x1, x1, #61
   81a68:	aa0303e4 	mov	x4, x3
   81a6c:	d37df09b 	lsl	x27, x4, #3
   81a70:	aa1b003b 	orr	x27, x1, x27
   81a74:	aa0203e1 	mov	x1, x2
   81a78:	d37df03a 	lsl	x26, x1, #3
   81a7c:	93407c01 	sxtw	x1, w0
   81a80:	f90043a1 	str	x1, [x29, #128]
   81a84:	f90047bf 	str	xzr, [x29, #136]
   81a88:	a9480fa2 	ldp	x2, x3, [x29, #128]
   81a8c:	aa0203e1 	mov	x1, x2
   81a90:	d37dfc21 	lsr	x1, x1, #61
   81a94:	aa0303e4 	mov	x4, x3
   81a98:	d37df099 	lsl	x25, x4, #3
   81a9c:	aa190039 	orr	x25, x1, x25
   81aa0:	aa0203e1 	mov	x1, x2
   81aa4:	d37df038 	lsl	x24, x1, #3
   81aa8:	93407c00 	sxtw	x0, w0
   81aac:	91003c00 	add	x0, x0, #0xf
   81ab0:	d344fc00 	lsr	x0, x0, #4
   81ab4:	d37cec00 	lsl	x0, x0, #4
   81ab8:	cb2063ff 	sub	sp, sp, x0
   81abc:	910003e0 	mov	x0, sp
   81ac0:	91000000 	add	x0, x0, #0x0
   81ac4:	f90067a0 	str	x0, [x29, #200]
   81ac8:	b900dfbf 	str	wzr, [x29, #220]
   81acc:	14000008 	b	81aec <k2_sender+0xf0>
   81ad0:	f94067a1 	ldr	x1, [x29, #200]
   81ad4:	b980dfa0 	ldrsw	x0, [x29, #220]
   81ad8:	52800a62 	mov	w2, #0x53                  	// #83
   81adc:	38206822 	strb	w2, [x1, x0]
   81ae0:	b940dfa0 	ldr	w0, [x29, #220]
   81ae4:	11000400 	add	w0, w0, #0x1
   81ae8:	b900dfa0 	str	w0, [x29, #220]
   81aec:	b940dfa1 	ldr	w1, [x29, #220]
   81af0:	b940afa0 	ldr	w0, [x29, #172]
   81af4:	6b00003f 	cmp	w1, w0
   81af8:	54fffecb 	b.lt	81ad0 <k2_sender+0xd4>  // b.tstop
   81afc:	b940afa0 	ldr	w0, [x29, #172]
   81b00:	51000400 	sub	w0, w0, #0x1
   81b04:	f94067a1 	ldr	x1, [x29, #200]
   81b08:	93407c00 	sxtw	x0, w0
   81b0c:	3820683f 	strb	wzr, [x1, x0]
   81b10:	f94067a2 	ldr	x2, [x29, #200]
   81b14:	d0000020 	adrp	x0, 87000 <vector_table_el1>
   81b18:	9122e001 	add	x1, x0, #0x8b8
   81b1c:	d2800020 	mov	x0, #0x1                   	// #1
   81b20:	9400082b 	bl	83bcc <uart_printf>
   81b24:	d0000020 	adrp	x0, 87000 <vector_table_el1>
   81b28:	91238000 	add	x0, x0, #0x8e0
   81b2c:	940003df 	bl	82aa8 <WhoIs>
   81b30:	b900dba0 	str	w0, [x29, #216]
   81b34:	b940afa0 	ldr	w0, [x29, #172]
   81b38:	93407c01 	sxtw	x1, w0
   81b3c:	d1000421 	sub	x1, x1, #0x1
   81b40:	f90063a1 	str	x1, [x29, #192]
   81b44:	93407c01 	sxtw	x1, w0
   81b48:	f9003ba1 	str	x1, [x29, #112]
   81b4c:	f9003fbf 	str	xzr, [x29, #120]
   81b50:	a9470fa2 	ldp	x2, x3, [x29, #112]
   81b54:	aa0203e1 	mov	x1, x2
   81b58:	d37dfc21 	lsr	x1, x1, #61
   81b5c:	aa0303e4 	mov	x4, x3
   81b60:	d37df097 	lsl	x23, x4, #3
   81b64:	aa170037 	orr	x23, x1, x23
   81b68:	aa0203e1 	mov	x1, x2
   81b6c:	d37df036 	lsl	x22, x1, #3
   81b70:	93407c01 	sxtw	x1, w0
   81b74:	f90033a1 	str	x1, [x29, #96]
   81b78:	f90037bf 	str	xzr, [x29, #104]
   81b7c:	a9460fa2 	ldp	x2, x3, [x29, #96]
   81b80:	aa0203e1 	mov	x1, x2
   81b84:	d37dfc21 	lsr	x1, x1, #61
   81b88:	aa0303e4 	mov	x4, x3
   81b8c:	d37df095 	lsl	x21, x4, #3
   81b90:	aa150035 	orr	x21, x1, x21
   81b94:	aa0203e1 	mov	x1, x2
   81b98:	d37df034 	lsl	x20, x1, #3
   81b9c:	93407c00 	sxtw	x0, w0
   81ba0:	91003c00 	add	x0, x0, #0xf
   81ba4:	d344fc00 	lsr	x0, x0, #4
   81ba8:	d37cec00 	lsl	x0, x0, #4
   81bac:	cb2063ff 	sub	sp, sp, x0
   81bb0:	910003e0 	mov	x0, sp
   81bb4:	91000000 	add	x0, x0, #0x0
   81bb8:	f9005fa0 	str	x0, [x29, #184]
   81bbc:	b940afa4 	ldr	w4, [x29, #172]
   81bc0:	f9405fa3 	ldr	x3, [x29, #184]
   81bc4:	b940afa2 	ldr	w2, [x29, #172]
   81bc8:	f94067a1 	ldr	x1, [x29, #200]
   81bcc:	b940dba0 	ldr	w0, [x29, #216]
   81bd0:	94000f6a 	bl	85978 <Send>
   81bd4:	b900b7a0 	str	w0, [x29, #180]
   81bd8:	b940b7a3 	ldr	w3, [x29, #180]
   81bdc:	f9405fa2 	ldr	x2, [x29, #184]
   81be0:	d0000020 	adrp	x0, 87000 <vector_table_el1>
   81be4:	9123c001 	add	x1, x0, #0x8f0
   81be8:	d2800020 	mov	x0, #0x1                   	// #1
   81bec:	940007f8 	bl	83bcc <uart_printf>
   81bf0:	9100027f 	mov	sp, x19
   81bf4:	d503201f 	nop
   81bf8:	910003bf 	mov	sp, x29
   81bfc:	a94153f3 	ldp	x19, x20, [sp, #16]
   81c00:	a9425bf5 	ldp	x21, x22, [sp, #32]
   81c04:	a94363f7 	ldp	x23, x24, [sp, #48]
   81c08:	a9446bf9 	ldp	x25, x26, [sp, #64]
   81c0c:	f9402bfb 	ldr	x27, [sp, #80]
   81c10:	a8ce7bfd 	ldp	x29, x30, [sp], #224
   81c14:	d65f03c0 	ret

0000000000081c18 <k2_receiver>:
   81c18:	a9b17bfd 	stp	x29, x30, [sp, #-240]!
   81c1c:	910003fd 	mov	x29, sp
   81c20:	a90153f3 	stp	x19, x20, [sp, #16]
   81c24:	a9025bf5 	stp	x21, x22, [sp, #32]
   81c28:	a90363f7 	stp	x23, x24, [sp, #48]
   81c2c:	a9046bf9 	stp	x25, x26, [sp, #64]
   81c30:	f9002bfb 	str	x27, [sp, #80]
   81c34:	b900afa0 	str	w0, [x29, #172]
   81c38:	910003e0 	mov	x0, sp
   81c3c:	aa0003f3 	mov	x19, x0
   81c40:	94000f72 	bl	85a08 <MyTid>
   81c44:	b900eba0 	str	w0, [x29, #232]
   81c48:	d0000020 	adrp	x0, 87000 <vector_table_el1>
   81c4c:	91238000 	add	x0, x0, #0x8e0
   81c50:	9400034e 	bl	82988 <RegisterAs>
   81c54:	b940eba2 	ldr	w2, [x29, #232]
   81c58:	d0000020 	adrp	x0, 87000 <vector_table_el1>
   81c5c:	91250001 	add	x1, x0, #0x940
   81c60:	d2800020 	mov	x0, #0x1                   	// #1
   81c64:	940007da 	bl	83bcc <uart_printf>
   81c68:	b940afa0 	ldr	w0, [x29, #172]
   81c6c:	93407c01 	sxtw	x1, w0
   81c70:	d1000421 	sub	x1, x1, #0x1
   81c74:	f90073a1 	str	x1, [x29, #224]
   81c78:	93407c01 	sxtw	x1, w0
   81c7c:	f9004ba1 	str	x1, [x29, #144]
   81c80:	f9004fbf 	str	xzr, [x29, #152]
   81c84:	a9490fa2 	ldp	x2, x3, [x29, #144]
   81c88:	aa0203e1 	mov	x1, x2
   81c8c:	d37dfc21 	lsr	x1, x1, #61
   81c90:	aa0303e4 	mov	x4, x3
   81c94:	d37df09b 	lsl	x27, x4, #3
   81c98:	aa1b003b 	orr	x27, x1, x27
   81c9c:	aa0203e1 	mov	x1, x2
   81ca0:	d37df03a 	lsl	x26, x1, #3
   81ca4:	93407c01 	sxtw	x1, w0
   81ca8:	f90043a1 	str	x1, [x29, #128]
   81cac:	f90047bf 	str	xzr, [x29, #136]
   81cb0:	a9480fa2 	ldp	x2, x3, [x29, #128]
   81cb4:	aa0203e1 	mov	x1, x2
   81cb8:	d37dfc21 	lsr	x1, x1, #61
   81cbc:	aa0303e4 	mov	x4, x3
   81cc0:	d37df099 	lsl	x25, x4, #3
   81cc4:	aa190039 	orr	x25, x1, x25
   81cc8:	aa0203e1 	mov	x1, x2
   81ccc:	d37df038 	lsl	x24, x1, #3
   81cd0:	93407c00 	sxtw	x0, w0
   81cd4:	91003c00 	add	x0, x0, #0xf
   81cd8:	d344fc00 	lsr	x0, x0, #4
   81cdc:	d37cec00 	lsl	x0, x0, #4
   81ce0:	cb2063ff 	sub	sp, sp, x0
   81ce4:	910003e0 	mov	x0, sp
   81ce8:	91000000 	add	x0, x0, #0x0
   81cec:	f9006fa0 	str	x0, [x29, #216]
   81cf0:	b940afa0 	ldr	w0, [x29, #172]
   81cf4:	93407c01 	sxtw	x1, w0
   81cf8:	d1000421 	sub	x1, x1, #0x1
   81cfc:	f9006ba1 	str	x1, [x29, #208]
   81d00:	93407c01 	sxtw	x1, w0
   81d04:	f9003ba1 	str	x1, [x29, #112]
   81d08:	f9003fbf 	str	xzr, [x29, #120]
   81d0c:	a9470fa2 	ldp	x2, x3, [x29, #112]
   81d10:	aa0203e1 	mov	x1, x2
   81d14:	d37dfc21 	lsr	x1, x1, #61
   81d18:	aa0303e4 	mov	x4, x3
   81d1c:	d37df097 	lsl	x23, x4, #3
   81d20:	aa170037 	orr	x23, x1, x23
   81d24:	aa0203e1 	mov	x1, x2
   81d28:	d37df036 	lsl	x22, x1, #3
   81d2c:	93407c01 	sxtw	x1, w0
   81d30:	f90033a1 	str	x1, [x29, #96]
   81d34:	f90037bf 	str	xzr, [x29, #104]
   81d38:	a9460fa2 	ldp	x2, x3, [x29, #96]
   81d3c:	aa0203e1 	mov	x1, x2
   81d40:	d37dfc21 	lsr	x1, x1, #61
   81d44:	aa0303e4 	mov	x4, x3
   81d48:	d37df095 	lsl	x21, x4, #3
   81d4c:	aa150035 	orr	x21, x1, x21
   81d50:	aa0203e1 	mov	x1, x2
   81d54:	d37df034 	lsl	x20, x1, #3
   81d58:	93407c00 	sxtw	x0, w0
   81d5c:	91003c00 	add	x0, x0, #0xf
   81d60:	d344fc00 	lsr	x0, x0, #4
   81d64:	d37cec00 	lsl	x0, x0, #4
   81d68:	cb2063ff 	sub	sp, sp, x0
   81d6c:	910003e0 	mov	x0, sp
   81d70:	91000000 	add	x0, x0, #0x0
   81d74:	f90067a0 	str	x0, [x29, #200]
   81d78:	b900efbf 	str	wzr, [x29, #236]
   81d7c:	14000008 	b	81d9c <k2_receiver+0x184>
   81d80:	f94067a1 	ldr	x1, [x29, #200]
   81d84:	b980efa0 	ldrsw	x0, [x29, #236]
   81d88:	52800a42 	mov	w2, #0x52                  	// #82
   81d8c:	38206822 	strb	w2, [x1, x0]
   81d90:	b940efa0 	ldr	w0, [x29, #236]
   81d94:	11000400 	add	w0, w0, #0x1
   81d98:	b900efa0 	str	w0, [x29, #236]
   81d9c:	b940efa1 	ldr	w1, [x29, #236]
   81da0:	b940afa0 	ldr	w0, [x29, #172]
   81da4:	6b00003f 	cmp	w1, w0
   81da8:	54fffecb 	b.lt	81d80 <k2_receiver+0x168>  // b.tstop
   81dac:	b940afa0 	ldr	w0, [x29, #172]
   81db0:	51000400 	sub	w0, w0, #0x1
   81db4:	f94067a1 	ldr	x1, [x29, #200]
   81db8:	93407c00 	sxtw	x0, w0
   81dbc:	3820683f 	strb	wzr, [x1, x0]
   81dc0:	f94067a2 	ldr	x2, [x29, #200]
   81dc4:	d0000020 	adrp	x0, 87000 <vector_table_el1>
   81dc8:	9125a001 	add	x1, x0, #0x968
   81dcc:	d2800020 	mov	x0, #0x1                   	// #1
   81dd0:	9400077f 	bl	83bcc <uart_printf>
   81dd4:	b940eba2 	ldr	w2, [x29, #232]
   81dd8:	d0000020 	adrp	x0, 87000 <vector_table_el1>
   81ddc:	91264001 	add	x1, x0, #0x990
   81de0:	d2800020 	mov	x0, #0x1                   	// #1
   81de4:	9400077a 	bl	83bcc <uart_printf>
   81de8:	9102f3a0 	add	x0, x29, #0xbc
   81dec:	b940afa2 	ldr	w2, [x29, #172]
   81df0:	f9406fa1 	ldr	x1, [x29, #216]
   81df4:	94000eec 	bl	859a4 <Receive>
   81df8:	b900c7a0 	str	w0, [x29, #196]
   81dfc:	b940c7a3 	ldr	w3, [x29, #196]
   81e00:	f9406fa2 	ldr	x2, [x29, #216]
   81e04:	d0000020 	adrp	x0, 87000 <vector_table_el1>
   81e08:	91268001 	add	x1, x0, #0x9a0
   81e0c:	d2800020 	mov	x0, #0x1                   	// #1
   81e10:	9400076f 	bl	83bcc <uart_printf>
   81e14:	b940bfa0 	ldr	w0, [x29, #188]
   81e18:	b940afa2 	ldr	w2, [x29, #172]
   81e1c:	f94067a1 	ldr	x1, [x29, #200]
   81e20:	94000eea 	bl	859c8 <Reply>
   81e24:	b900c3a0 	str	w0, [x29, #192]
   81e28:	b940c3a2 	ldr	w2, [x29, #192]
   81e2c:	d0000020 	adrp	x0, 87000 <vector_table_el1>
   81e30:	91276001 	add	x1, x0, #0x9d8
   81e34:	d2800020 	mov	x0, #0x1                   	// #1
   81e38:	94000765 	bl	83bcc <uart_printf>
   81e3c:	94000f0d 	bl	85a70 <Exit>
   81e40:	9100027f 	mov	sp, x19
   81e44:	d503201f 	nop
   81e48:	910003bf 	mov	sp, x29
   81e4c:	a94153f3 	ldp	x19, x20, [sp, #16]
   81e50:	a9425bf5 	ldp	x21, x22, [sp, #32]
   81e54:	a94363f7 	ldp	x23, x24, [sp, #48]
   81e58:	a9446bf9 	ldp	x25, x26, [sp, #64]
   81e5c:	f9402bfb 	ldr	x27, [sp, #80]
   81e60:	a8cf7bfd 	ldp	x29, x30, [sp], #240
   81e64:	d65f03c0 	ret

0000000000081e68 <CreateArgsTest>:
   81e68:	a9be7bfd 	stp	x29, x30, [sp, #-32]!
   81e6c:	910003fd 	mov	x29, sp
   81e70:	b9001fe0 	str	w0, [sp, #28]
   81e74:	b9001be1 	str	w1, [sp, #24]
   81e78:	d0000020 	adrp	x0, 87000 <vector_table_el1>
   81e7c:	91280000 	add	x0, x0, #0xa00
   81e80:	940002c2 	bl	82988 <RegisterAs>
   81e84:	b9401be3 	ldr	w3, [sp, #24]
   81e88:	b9401fe2 	ldr	w2, [sp, #28]
   81e8c:	d0000020 	adrp	x0, 87000 <vector_table_el1>
   81e90:	91284001 	add	x1, x0, #0xa10
   81e94:	d2800020 	mov	x0, #0x1                   	// #1
   81e98:	9400074d 	bl	83bcc <uart_printf>
   81e9c:	94000ef5 	bl	85a70 <Exit>
   81ea0:	d503201f 	nop
   81ea4:	a8c27bfd 	ldp	x29, x30, [sp], #32
   81ea8:	d65f03c0 	ret

0000000000081eac <adder>:
   81eac:	d10103ff 	sub	sp, sp, #0x40
   81eb0:	f9001fe0 	str	x0, [sp, #56]
   81eb4:	f9001be1 	str	x1, [sp, #48]
   81eb8:	f90017e2 	str	x2, [sp, #40]
   81ebc:	f90013e3 	str	x3, [sp, #32]
   81ec0:	f9000fe4 	str	x4, [sp, #24]
   81ec4:	f9000be5 	str	x5, [sp, #16]
   81ec8:	f90007e6 	str	x6, [sp, #8]
   81ecc:	f90003e7 	str	x7, [sp]
   81ed0:	f9401fe1 	ldr	x1, [sp, #56]
   81ed4:	f9401be0 	ldr	x0, [sp, #48]
   81ed8:	8b000021 	add	x1, x1, x0
   81edc:	f94017e0 	ldr	x0, [sp, #40]
   81ee0:	8b000021 	add	x1, x1, x0
   81ee4:	f94013e0 	ldr	x0, [sp, #32]
   81ee8:	8b000021 	add	x1, x1, x0
   81eec:	f9400fe0 	ldr	x0, [sp, #24]
   81ef0:	8b000021 	add	x1, x1, x0
   81ef4:	f9400be0 	ldr	x0, [sp, #16]
   81ef8:	8b000021 	add	x1, x1, x0
   81efc:	f94007e0 	ldr	x0, [sp, #8]
   81f00:	8b000021 	add	x1, x1, x0
   81f04:	f94003e0 	ldr	x0, [sp]
   81f08:	8b000021 	add	x1, x1, x0
   81f0c:	f94023e0 	ldr	x0, [sp, #64]
   81f10:	8b000021 	add	x1, x1, x0
   81f14:	f94027e0 	ldr	x0, [sp, #72]
   81f18:	8b000020 	add	x0, x1, x0
   81f1c:	910103ff 	add	sp, sp, #0x40
   81f20:	d65f03c0 	ret

0000000000081f24 <adderTask>:
   81f24:	d101c3ff 	sub	sp, sp, #0x70
   81f28:	a9027bfd 	stp	x29, x30, [sp, #32]
   81f2c:	910083fd 	add	x29, sp, #0x20
   81f30:	f90037e0 	str	x0, [sp, #104]
   81f34:	f90033e1 	str	x1, [sp, #96]
   81f38:	f9002fe2 	str	x2, [sp, #88]
   81f3c:	f9002be3 	str	x3, [sp, #80]
   81f40:	f90027e4 	str	x4, [sp, #72]
   81f44:	f90023e5 	str	x5, [sp, #64]
   81f48:	f9001fe6 	str	x6, [sp, #56]
   81f4c:	f9001be7 	str	x7, [sp, #48]
   81f50:	d0000020 	adrp	x0, 87000 <vector_table_el1>
   81f54:	9128c000 	add	x0, x0, #0xa30
   81f58:	9400028c 	bl	82988 <RegisterAs>
   81f5c:	f9403fe0 	ldr	x0, [sp, #120]
   81f60:	f9000fe0 	str	x0, [sp, #24]
   81f64:	f9403be0 	ldr	x0, [sp, #112]
   81f68:	f9000be0 	str	x0, [sp, #16]
   81f6c:	f9401be0 	ldr	x0, [sp, #48]
   81f70:	f90007e0 	str	x0, [sp, #8]
   81f74:	f9401fe0 	ldr	x0, [sp, #56]
   81f78:	f90003e0 	str	x0, [sp]
   81f7c:	f94023e7 	ldr	x7, [sp, #64]
   81f80:	f94027e6 	ldr	x6, [sp, #72]
   81f84:	f9402be5 	ldr	x5, [sp, #80]
   81f88:	f9402fe4 	ldr	x4, [sp, #88]
   81f8c:	f94033e3 	ldr	x3, [sp, #96]
   81f90:	f94037e2 	ldr	x2, [sp, #104]
   81f94:	d0000020 	adrp	x0, 87000 <vector_table_el1>
   81f98:	91290001 	add	x1, x0, #0xa40
   81f9c:	d2800020 	mov	x0, #0x1                   	// #1
   81fa0:	9400070b 	bl	83bcc <uart_printf>
   81fa4:	f9403fe0 	ldr	x0, [sp, #120]
   81fa8:	f90007e0 	str	x0, [sp, #8]
   81fac:	f9403be0 	ldr	x0, [sp, #112]
   81fb0:	f90003e0 	str	x0, [sp]
   81fb4:	f9401be7 	ldr	x7, [sp, #48]
   81fb8:	f9401fe6 	ldr	x6, [sp, #56]
   81fbc:	f94023e5 	ldr	x5, [sp, #64]
   81fc0:	f94027e4 	ldr	x4, [sp, #72]
   81fc4:	f9402be3 	ldr	x3, [sp, #80]
   81fc8:	f9402fe2 	ldr	x2, [sp, #88]
   81fcc:	f94033e1 	ldr	x1, [sp, #96]
   81fd0:	f94037e0 	ldr	x0, [sp, #104]
   81fd4:	97ffffb6 	bl	81eac <adder>
   81fd8:	aa0003e2 	mov	x2, x0
   81fdc:	d0000020 	adrp	x0, 87000 <vector_table_el1>
   81fe0:	9129e001 	add	x1, x0, #0xa78
   81fe4:	d2800020 	mov	x0, #0x1                   	// #1
   81fe8:	940006f9 	bl	83bcc <uart_printf>
   81fec:	94000ea1 	bl	85a70 <Exit>
   81ff0:	d503201f 	nop
   81ff4:	a9427bfd 	ldp	x29, x30, [sp, #32]
   81ff8:	9101c3ff 	add	sp, sp, #0x70
   81ffc:	d65f03c0 	ret

0000000000082000 <parse_char_array>:
   82000:	d110c3ff 	sub	sp, sp, #0x430
   82004:	a9007bfd 	stp	x29, x30, [sp]
   82008:	910003fd 	mov	x29, sp
   8200c:	a90153f3 	stp	x19, x20, [sp, #16]
   82010:	a9025bf5 	stp	x21, x22, [sp, #32]
   82014:	a90363f7 	stp	x23, x24, [sp, #48]
   82018:	a9046bf9 	stp	x25, x26, [sp, #64]
   8201c:	f9002bfb 	str	x27, [sp, #80]
   82020:	f90037a0 	str	x0, [x29, #104]
   82024:	52800020 	mov	w0, #0x1                   	// #1
   82028:	b90427a0 	str	w0, [x29, #1060]
   8202c:	b90423bf 	str	wzr, [x29, #1056]
   82030:	f94037a0 	ldr	x0, [x29, #104]
   82034:	f9006ba0 	str	x0, [x29, #208]
   82038:	f94037a0 	ldr	x0, [x29, #104]
   8203c:	f90217a0 	str	x0, [x29, #1064]
   82040:	14000016 	b	82098 <parse_char_array+0x98>
   82044:	f94217a0 	ldr	x0, [x29, #1064]
   82048:	39400000 	ldrb	w0, [x0]
   8204c:	7100801f 	cmp	w0, #0x20
   82050:	54000181 	b.ne	82080 <parse_char_array+0x80>  // b.any
   82054:	f94217a0 	ldr	x0, [x29, #1064]
   82058:	3900001f 	strb	wzr, [x0]
   8205c:	b94427a0 	ldr	w0, [x29, #1060]
   82060:	11000401 	add	w1, w0, #0x1
   82064:	b90427a1 	str	w1, [x29, #1060]
   82068:	f94217a1 	ldr	x1, [x29, #1064]
   8206c:	91000422 	add	x2, x1, #0x1
   82070:	93407c00 	sxtw	x0, w0
   82074:	d37df000 	lsl	x0, x0, #3
   82078:	910343a1 	add	x1, x29, #0xd0
   8207c:	f8206822 	str	x2, [x1, x0]
   82080:	f94217a0 	ldr	x0, [x29, #1064]
   82084:	91000400 	add	x0, x0, #0x1
   82088:	f90217a0 	str	x0, [x29, #1064]
   8208c:	b94423a0 	ldr	w0, [x29, #1056]
   82090:	11000400 	add	w0, w0, #0x1
   82094:	b90423a0 	str	w0, [x29, #1056]
   82098:	f94217a0 	ldr	x0, [x29, #1064]
   8209c:	39400000 	ldrb	w0, [x0]
   820a0:	7100001f 	cmp	w0, #0x0
   820a4:	54fffd01 	b.ne	82044 <parse_char_array+0x44>  // b.any
   820a8:	b9041fbf 	str	wzr, [x29, #1052]
   820ac:	1400000e 	b	820e4 <parse_char_array+0xe4>
   820b0:	b9841fa0 	ldrsw	x0, [x29, #1052]
   820b4:	d37df000 	lsl	x0, x0, #3
   820b8:	910343a1 	add	x1, x29, #0xd0
   820bc:	f8606820 	ldr	x0, [x1, x0]
   820c0:	aa0003e3 	mov	x3, x0
   820c4:	b9441fa2 	ldr	w2, [x29, #1052]
   820c8:	b0000020 	adrp	x0, 87000 <vector_table_el1>
   820cc:	912a4001 	add	x1, x0, #0xa90
   820d0:	d2800020 	mov	x0, #0x1                   	// #1
   820d4:	940006be 	bl	83bcc <uart_printf>
   820d8:	b9441fa0 	ldr	w0, [x29, #1052]
   820dc:	11000400 	add	w0, w0, #0x1
   820e0:	b9041fa0 	str	w0, [x29, #1052]
   820e4:	b9441fa1 	ldr	w1, [x29, #1052]
   820e8:	b94427a0 	ldr	w0, [x29, #1060]
   820ec:	6b00003f 	cmp	w1, w0
   820f0:	54fffe0b 	b.lt	820b0 <parse_char_array+0xb0>  // b.tstop
   820f4:	f9406ba1 	ldr	x1, [x29, #208]
   820f8:	910333a3 	add	x3, x29, #0xcc
   820fc:	b0000020 	adrp	x0, 87000 <vector_table_el1>
   82100:	912a8002 	add	x2, x0, #0xaa0
   82104:	aa0303e0 	mov	x0, x3
   82108:	97fffa43 	bl	80a14 <strcmp>
   8210c:	b940cfa0 	ldr	w0, [x29, #204]
   82110:	7100001f 	cmp	w0, #0x0
   82114:	540003a0 	b.eq	82188 <parse_char_array+0x188>  // b.none
   82118:	b94427a0 	ldr	w0, [x29, #1060]
   8211c:	7100041f 	cmp	w0, #0x1
   82120:	540000cc 	b.gt	82138 <parse_char_array+0x138>
   82124:	b0000020 	adrp	x0, 87000 <vector_table_el1>
   82128:	912ac001 	add	x1, x0, #0xab0
   8212c:	d2800020 	mov	x0, #0x1                   	// #1
   82130:	940006a7 	bl	83bcc <uart_printf>
   82134:	140000a4 	b	823c4 <parse_char_array+0x3c4>
   82138:	f9406fa0 	ldr	x0, [x29, #216]
   8213c:	97fff9f1 	bl	80900 <str_to_int>
   82140:	12001c00 	and	w0, w0, #0xff
   82144:	b903fba0 	str	w0, [x29, #1016]
   82148:	910303a0 	add	x0, x29, #0xc0
   8214c:	aa0003e3 	mov	x3, x0
   82150:	d2800022 	mov	x2, #0x1                   	// #1
   82154:	f0ffffe0 	adrp	x0, 81000 <set_play+0x12c>
   82158:	91306001 	add	x1, x0, #0xc18
   8215c:	528000a0 	mov	w0, #0x5                   	// #5
   82160:	94000e3a 	bl	85a48 <CreateArgs>
   82164:	b903f7a0 	str	w0, [x29, #1012]
   82168:	b943fba0 	ldr	w0, [x29, #1016]
   8216c:	97fffe24 	bl	819fc <k2_sender>
   82170:	b943f7a2 	ldr	w2, [x29, #1012]
   82174:	b0000020 	adrp	x0, 87000 <vector_table_el1>
   82178:	912b2001 	add	x1, x0, #0xac8
   8217c:	d2800020 	mov	x0, #0x1                   	// #1
   82180:	94000693 	bl	83bcc <uart_printf>
   82184:	14000090 	b	823c4 <parse_char_array+0x3c4>
   82188:	f9406ba1 	ldr	x1, [x29, #208]
   8218c:	910333a3 	add	x3, x29, #0xcc
   82190:	b0000020 	adrp	x0, 87000 <vector_table_el1>
   82194:	912b6002 	add	x2, x0, #0xad8
   82198:	aa0303e0 	mov	x0, x3
   8219c:	97fffa1e 	bl	80a14 <strcmp>
   821a0:	b940cfa0 	ldr	w0, [x29, #204]
   821a4:	7100001f 	cmp	w0, #0x0
   821a8:	54000a00 	b.eq	822e8 <parse_char_array+0x2e8>  // b.none
   821ac:	910003e0 	mov	x0, sp
   821b0:	aa0003f3 	mov	x19, x0
   821b4:	b94427a0 	ldr	w0, [x29, #1060]
   821b8:	7100081f 	cmp	w0, #0x2
   821bc:	540000cc 	b.gt	821d4 <parse_char_array+0x1d4>
   821c0:	b0000020 	adrp	x0, 87000 <vector_table_el1>
   821c4:	912ac001 	add	x1, x0, #0xab0
   821c8:	d2800020 	mov	x0, #0x1                   	// #1
   821cc:	94000680 	bl	83bcc <uart_printf>
   821d0:	14000044 	b	822e0 <parse_char_array+0x2e0>
   821d4:	52800040 	mov	w0, #0x2                   	// #2
   821d8:	b90413a0 	str	w0, [x29, #1040]
   821dc:	b94413a0 	ldr	w0, [x29, #1040]
   821e0:	93407c01 	sxtw	x1, w0
   821e4:	d1000421 	sub	x1, x1, #0x1
   821e8:	f90207a1 	str	x1, [x29, #1032]
   821ec:	93407c01 	sxtw	x1, w0
   821f0:	aa0103fa 	mov	x26, x1
   821f4:	d280001b 	mov	x27, #0x0                   	// #0
   821f8:	d37aff41 	lsr	x1, x26, #58
   821fc:	d37ae777 	lsl	x23, x27, #6
   82200:	aa170037 	orr	x23, x1, x23
   82204:	d37ae756 	lsl	x22, x26, #6
   82208:	93407c01 	sxtw	x1, w0
   8220c:	aa0103f8 	mov	x24, x1
   82210:	d2800019 	mov	x25, #0x0                   	// #0
   82214:	d37aff01 	lsr	x1, x24, #58
   82218:	d37ae735 	lsl	x21, x25, #6
   8221c:	aa150035 	orr	x21, x1, x21
   82220:	d37ae714 	lsl	x20, x24, #6
   82224:	93407c00 	sxtw	x0, w0
   82228:	d37df000 	lsl	x0, x0, #3
   8222c:	91003c00 	add	x0, x0, #0xf
   82230:	d344fc00 	lsr	x0, x0, #4
   82234:	d37cec00 	lsl	x0, x0, #4
   82238:	cb2063ff 	sub	sp, sp, x0
   8223c:	910003e0 	mov	x0, sp
   82240:	91001c00 	add	x0, x0, #0x7
   82244:	d343fc00 	lsr	x0, x0, #3
   82248:	d37df000 	lsl	x0, x0, #3
   8224c:	f90203a0 	str	x0, [x29, #1024]
   82250:	f9406fa0 	ldr	x0, [x29, #216]
   82254:	97fff9ab 	bl	80900 <str_to_int>
   82258:	12001c00 	and	w0, w0, #0xff
   8225c:	92401c01 	and	x1, x0, #0xff
   82260:	f94203a0 	ldr	x0, [x29, #1024]
   82264:	f9000001 	str	x1, [x0]
   82268:	f94073a0 	ldr	x0, [x29, #224]
   8226c:	97fff9a5 	bl	80900 <str_to_int>
   82270:	12001c00 	and	w0, w0, #0xff
   82274:	92401c01 	and	x1, x0, #0xff
   82278:	f94203a0 	ldr	x0, [x29, #1024]
   8227c:	f9000401 	str	x1, [x0, #8]
   82280:	b94413a2 	ldr	w2, [x29, #1040]
   82284:	b0000020 	adrp	x0, 87000 <vector_table_el1>
   82288:	912ba001 	add	x1, x0, #0xae8
   8228c:	d2800020 	mov	x0, #0x1                   	// #1
   82290:	9400064f 	bl	83bcc <uart_printf>
   82294:	f94203a2 	ldr	x2, [x29, #1024]
   82298:	b0000020 	adrp	x0, 87000 <vector_table_el1>
   8229c:	912be001 	add	x1, x0, #0xaf8
   822a0:	d2800020 	mov	x0, #0x1                   	// #1
   822a4:	9400064a 	bl	83bcc <uart_printf>
   822a8:	b98413a0 	ldrsw	x0, [x29, #1040]
   822ac:	f94203a3 	ldr	x3, [x29, #1024]
   822b0:	aa0003e2 	mov	x2, x0
   822b4:	f0ffffe0 	adrp	x0, 81000 <set_play+0x12c>
   822b8:	9139a001 	add	x1, x0, #0xe68
   822bc:	528000a0 	mov	w0, #0x5                   	// #5
   822c0:	94000de2 	bl	85a48 <CreateArgs>
   822c4:	b903ffa0 	str	w0, [x29, #1020]
   822c8:	b943ffa2 	ldr	w2, [x29, #1020]
   822cc:	b0000020 	adrp	x0, 87000 <vector_table_el1>
   822d0:	912b2001 	add	x1, x0, #0xac8
   822d4:	d2800020 	mov	x0, #0x1                   	// #1
   822d8:	9400063d 	bl	83bcc <uart_printf>
   822dc:	d503201f 	nop
   822e0:	9100027f 	mov	sp, x19
   822e4:	14000038 	b	823c4 <parse_char_array+0x3c4>
   822e8:	f9406ba1 	ldr	x1, [x29, #208]
   822ec:	910333a3 	add	x3, x29, #0xcc
   822f0:	b0000020 	adrp	x0, 87000 <vector_table_el1>
   822f4:	912c2002 	add	x2, x0, #0xb08
   822f8:	aa0303e0 	mov	x0, x3
   822fc:	97fff9c6 	bl	80a14 <strcmp>
   82300:	b940cfa0 	ldr	w0, [x29, #204]
   82304:	7100001f 	cmp	w0, #0x0
   82308:	540005e0 	b.eq	823c4 <parse_char_array+0x3c4>  // b.none
   8230c:	52800140 	mov	w0, #0xa                   	// #10
   82310:	b9041ba0 	str	w0, [x29, #1048]
   82314:	d2800020 	mov	x0, #0x1                   	// #1
   82318:	f9003ba0 	str	x0, [x29, #112]
   8231c:	d2800040 	mov	x0, #0x2                   	// #2
   82320:	f9003fa0 	str	x0, [x29, #120]
   82324:	d2800060 	mov	x0, #0x3                   	// #3
   82328:	f90043a0 	str	x0, [x29, #128]
   8232c:	d2800080 	mov	x0, #0x4                   	// #4
   82330:	f90047a0 	str	x0, [x29, #136]
   82334:	d28000a0 	mov	x0, #0x5                   	// #5
   82338:	f9004ba0 	str	x0, [x29, #144]
   8233c:	d28000c0 	mov	x0, #0x6                   	// #6
   82340:	f9004fa0 	str	x0, [x29, #152]
   82344:	d28000e0 	mov	x0, #0x7                   	// #7
   82348:	f90053a0 	str	x0, [x29, #160]
   8234c:	d2800100 	mov	x0, #0x8                   	// #8
   82350:	f90057a0 	str	x0, [x29, #168]
   82354:	d2800120 	mov	x0, #0x9                   	// #9
   82358:	f9005ba0 	str	x0, [x29, #176]
   8235c:	d2800140 	mov	x0, #0xa                   	// #10
   82360:	f9005fa0 	str	x0, [x29, #184]
   82364:	b9441ba2 	ldr	w2, [x29, #1048]
   82368:	b0000020 	adrp	x0, 87000 <vector_table_el1>
   8236c:	912ba001 	add	x1, x0, #0xae8
   82370:	d2800020 	mov	x0, #0x1                   	// #1
   82374:	94000616 	bl	83bcc <uart_printf>
   82378:	9101c3a0 	add	x0, x29, #0x70
   8237c:	aa0003e2 	mov	x2, x0
   82380:	b0000020 	adrp	x0, 87000 <vector_table_el1>
   82384:	912be001 	add	x1, x0, #0xaf8
   82388:	d2800020 	mov	x0, #0x1                   	// #1
   8238c:	94000610 	bl	83bcc <uart_printf>
   82390:	9101c3a0 	add	x0, x29, #0x70
   82394:	aa0003e3 	mov	x3, x0
   82398:	d2800142 	mov	x2, #0xa                   	// #10
   8239c:	f0ffffe0 	adrp	x0, 81000 <set_play+0x12c>
   823a0:	913c9001 	add	x1, x0, #0xf24
   823a4:	528000a0 	mov	w0, #0x5                   	// #5
   823a8:	94000da8 	bl	85a48 <CreateArgs>
   823ac:	b90417a0 	str	w0, [x29, #1044]
   823b0:	b94417a2 	ldr	w2, [x29, #1044]
   823b4:	b0000020 	adrp	x0, 87000 <vector_table_el1>
   823b8:	912b2001 	add	x1, x0, #0xac8
   823bc:	d2800020 	mov	x0, #0x1                   	// #1
   823c0:	94000603 	bl	83bcc <uart_printf>
   823c4:	910003bf 	mov	sp, x29
   823c8:	a94153f3 	ldp	x19, x20, [sp, #16]
   823cc:	a9425bf5 	ldp	x21, x22, [sp, #32]
   823d0:	a94363f7 	ldp	x23, x24, [sp, #48]
   823d4:	a9446bf9 	ldp	x25, x26, [sp, #64]
   823d8:	f9402bfb 	ldr	x27, [sp, #80]
   823dc:	a9407bfd 	ldp	x29, x30, [sp]
   823e0:	9110c3ff 	add	sp, sp, #0x430
   823e4:	d65f03c0 	ret

00000000000823e8 <recieve_task>:
   823e8:	a9bf7bfd 	stp	x29, x30, [sp, #-16]!
   823ec:	910003fd 	mov	x29, sp
   823f0:	b0000020 	adrp	x0, 87000 <vector_table_el1>
   823f4:	912c4000 	add	x0, x0, #0xb10
   823f8:	94000164 	bl	82988 <RegisterAs>
   823fc:	94000d9d 	bl	85a70 <Exit>
   82400:	d503201f 	nop
   82404:	a8c17bfd 	ldp	x29, x30, [sp], #16
   82408:	d65f03c0 	ret

000000000008240c <k2>:
   8240c:	a9bb7bfd 	stp	x29, x30, [sp, #-80]!
   82410:	910003fd 	mov	x29, sp
   82414:	b0000020 	adrp	x0, 87000 <vector_table_el1>
   82418:	912c6000 	add	x0, x0, #0xb18
   8241c:	9400015b 	bl	82988 <RegisterAs>
   82420:	52800020 	mov	w0, #0x1                   	// #1
   82424:	b9004fe0 	str	w0, [sp, #76]
   82428:	b9004bff 	str	wzr, [sp, #72]
   8242c:	390043ff 	strb	wzr, [sp, #16]
   82430:	b9404fe0 	ldr	w0, [sp, #76]
   82434:	11000401 	add	w1, w0, #0x1
   82438:	b9004fe1 	str	w1, [sp, #76]
   8243c:	2a0003e2 	mov	w2, w0
   82440:	b0000020 	adrp	x0, 87000 <vector_table_el1>
   82444:	912c8001 	add	x1, x0, #0xb20
   82448:	d2800020 	mov	x0, #0x1                   	// #1
   8244c:	940005e0 	bl	83bcc <uart_printf>
   82450:	52800400 	mov	w0, #0x20                  	// #32
   82454:	39011fe0 	strb	w0, [sp, #71]
   82458:	14000037 	b	82534 <k2+0x128>
   8245c:	d2800020 	mov	x0, #0x1                   	// #1
   82460:	940004a8 	bl	83700 <uart_getc>
   82464:	39011fe0 	strb	w0, [sp, #71]
   82468:	39411fe0 	ldrb	w0, [sp, #71]
   8246c:	7100341f 	cmp	w0, #0xd
   82470:	54000261 	b.ne	824bc <k2+0xb0>  // b.any
   82474:	b0000020 	adrp	x0, 87000 <vector_table_el1>
   82478:	912cc001 	add	x1, x0, #0xb30
   8247c:	d2800020 	mov	x0, #0x1                   	// #1
   82480:	940005d3 	bl	83bcc <uart_printf>
   82484:	910043e0 	add	x0, sp, #0x10
   82488:	97fffede 	bl	82000 <parse_char_array>
   8248c:	b9004bff 	str	wzr, [sp, #72]
   82490:	390043ff 	strb	wzr, [sp, #16]
   82494:	b9404fe0 	ldr	w0, [sp, #76]
   82498:	11000401 	add	w1, w0, #0x1
   8249c:	b9004fe1 	str	w1, [sp, #76]
   824a0:	2a0003e2 	mov	w2, w0
   824a4:	b0000020 	adrp	x0, 87000 <vector_table_el1>
   824a8:	912ce001 	add	x1, x0, #0xb38
   824ac:	d2800020 	mov	x0, #0x1                   	// #1
   824b0:	940005c7 	bl	83bcc <uart_printf>
   824b4:	94000d76 	bl	85a8c <Yield>
   824b8:	1400001f 	b	82534 <k2+0x128>
   824bc:	39411fe0 	ldrb	w0, [sp, #71]
   824c0:	7100201f 	cmp	w0, #0x8
   824c4:	540001e1 	b.ne	82500 <k2+0xf4>  // b.any
   824c8:	b9404be0 	ldr	w0, [sp, #72]
   824cc:	7100001f 	cmp	w0, #0x0
   824d0:	5400032d 	b.le	82534 <k2+0x128>
   824d4:	b9404be0 	ldr	w0, [sp, #72]
   824d8:	51000400 	sub	w0, w0, #0x1
   824dc:	b9004be0 	str	w0, [sp, #72]
   824e0:	b9804be0 	ldrsw	x0, [sp, #72]
   824e4:	910043e1 	add	x1, sp, #0x10
   824e8:	3820683f 	strb	wzr, [x1, x0]
   824ec:	b0000020 	adrp	x0, 87000 <vector_table_el1>
   824f0:	912d2001 	add	x1, x0, #0xb48
   824f4:	d2800020 	mov	x0, #0x1                   	// #1
   824f8:	940005b5 	bl	83bcc <uart_printf>
   824fc:	1400000e 	b	82534 <k2+0x128>
   82500:	b9804be0 	ldrsw	x0, [sp, #72]
   82504:	910043e1 	add	x1, sp, #0x10
   82508:	39411fe2 	ldrb	w2, [sp, #71]
   8250c:	38206822 	strb	w2, [x1, x0]
   82510:	b9404be0 	ldr	w0, [sp, #72]
   82514:	11000400 	add	w0, w0, #0x1
   82518:	b9004be0 	str	w0, [sp, #72]
   8251c:	b9804be0 	ldrsw	x0, [sp, #72]
   82520:	910043e1 	add	x1, sp, #0x10
   82524:	3820683f 	strb	wzr, [x1, x0]
   82528:	39411fe1 	ldrb	w1, [sp, #71]
   8252c:	d2800020 	mov	x0, #0x1                   	// #1
   82530:	940004b2 	bl	837f8 <uart_putc>
   82534:	39411fe0 	ldrb	w0, [sp, #71]
   82538:	7101c41f 	cmp	w0, #0x71
   8253c:	54fff901 	b.ne	8245c <k2+0x50>  // b.any
   82540:	b0000020 	adrp	x0, 87000 <vector_table_el1>
   82544:	912cc001 	add	x1, x0, #0xb30
   82548:	d2800020 	mov	x0, #0x1                   	// #1
   8254c:	940004e0 	bl	838cc <uart_puts>
   82550:	94000d48 	bl	85a70 <Exit>
   82554:	d503201f 	nop
   82558:	a8c57bfd 	ldp	x29, x30, [sp], #80
   8255c:	d65f03c0 	ret

0000000000082560 <kmain>:
   82560:	a9bd7bfd 	stp	x29, x30, [sp, #-48]!
   82564:	910003fd 	mov	x29, sp
   82568:	f9000fe0 	str	x0, [sp, #24]
   8256c:	d0000020 	adrp	x0, 88000 <UART_CR_RTSEN>
   82570:	91080000 	add	x0, x0, #0x200
   82574:	f9400fe1 	ldr	x1, [sp, #24]
   82578:	f9000001 	str	x1, [x0]
   8257c:	f9400fe0 	ldr	x0, [sp, #24]
   82580:	940006e4 	bl	84110 <InitSys>
   82584:	940003bb 	bl	83470 <uart_init>
   82588:	52800002 	mov	w2, #0x0                   	// #0
   8258c:	52984001 	mov	w1, #0xc200                	// #49664
   82590:	72a00021 	movk	w1, #0x1, lsl #16
   82594:	d2800020 	mov	x0, #0x1                   	// #1
   82598:	940003df 	bl	83514 <uart_config_and_enable>
   8259c:	52800022 	mov	w2, #0x1                   	// #1
   825a0:	52812c01 	mov	w1, #0x960                 	// #2400
   825a4:	d2800040 	mov	x0, #0x2                   	// #2
   825a8:	940003db 	bl	83514 <uart_config_and_enable>
   825ac:	b0000020 	adrp	x0, 87000 <vector_table_el1>
   825b0:	912d4001 	add	x1, x0, #0xb50
   825b4:	d2800020 	mov	x0, #0x1                   	// #1
   825b8:	94000585 	bl	83bcc <uart_printf>
   825bc:	52800002 	mov	w2, #0x0                   	// #0
   825c0:	90000000 	adrp	x0, 82000 <parse_char_array>
   825c4:	9118e001 	add	x1, x0, #0x638
   825c8:	52800140 	mov	w0, #0xa                   	// #10
   825cc:	94000c5c 	bl	8573c <KernelCreate>
   825d0:	b9002fe0 	str	w0, [sp, #44]
   825d4:	b9402fe2 	ldr	w2, [sp, #44]
   825d8:	b0000020 	adrp	x0, 87000 <vector_table_el1>
   825dc:	912ec001 	add	x1, x0, #0xbb0
   825e0:	d2800020 	mov	x0, #0x1                   	// #1
   825e4:	9400057a 	bl	83bcc <uart_printf>
   825e8:	52800002 	mov	w2, #0x0                   	// #0
   825ec:	f0ffffe0 	adrp	x0, 81000 <set_play+0x12c>
   825f0:	910b7001 	add	x1, x0, #0x2dc
   825f4:	52800140 	mov	w0, #0xa                   	// #10
   825f8:	94000c51 	bl	8573c <KernelCreate>
   825fc:	b9002fe0 	str	w0, [sp, #44]
   82600:	b9402fe2 	ldr	w2, [sp, #44]
   82604:	b0000020 	adrp	x0, 87000 <vector_table_el1>
   82608:	912f4001 	add	x1, x0, #0xbd0
   8260c:	d2800020 	mov	x0, #0x1                   	// #1
   82610:	9400056f 	bl	83bcc <uart_printf>
   82614:	52800002 	mov	w2, #0x0                   	// #0
   82618:	90000000 	adrp	x0, 82000 <parse_char_array>
   8261c:	91103001 	add	x1, x0, #0x40c
   82620:	52800060 	mov	w0, #0x3                   	// #3
   82624:	94000c46 	bl	8573c <KernelCreate>
   82628:	94000c0f 	bl	85664 <Schedule>
   8262c:	52800000 	mov	w0, #0x0                   	// #0
   82630:	a8c37bfd 	ldp	x29, x30, [sp], #48
   82634:	d65f03c0 	ret

0000000000082638 <nameserver>:
   82638:	d284080c 	mov	x12, #0x2040                	// #8256
   8263c:	cb2c63ff 	sub	sp, sp, x12
   82640:	a9007bfd 	stp	x29, x30, [sp]
   82644:	910003fd 	mov	x29, sp
   82648:	52800620 	mov	w0, #0x31                  	// #49
   8264c:	b92033e0 	str	w0, [sp, #8240]
   82650:	b9203fff 	str	wzr, [sp, #8252]
   82654:	1400000d 	b	82688 <nameserver+0x50>
   82658:	b9a03fe1 	ldrsw	x1, [sp, #8252]
   8265c:	aa0103e0 	mov	x0, x1
   82660:	d37ff800 	lsl	x0, x0, #1
   82664:	8b010000 	add	x0, x0, x1
   82668:	d37df000 	lsl	x0, x0, #3
   8266c:	8b010000 	add	x0, x0, x1
   82670:	d37cec00 	lsl	x0, x0, #4
   82674:	910343e1 	add	x1, sp, #0xd0
   82678:	f820683f 	str	xzr, [x1, x0]
   8267c:	b9603fe0 	ldr	w0, [sp, #8252]
   82680:	11000400 	add	w0, w0, #0x1
   82684:	b9203fe0 	str	w0, [sp, #8252]
   82688:	b9603fe0 	ldr	w0, [sp, #8252]
   8268c:	71004c1f 	cmp	w0, #0x13
   82690:	54fffe4d 	b.le	82658 <nameserver+0x20>
   82694:	910343e4 	add	x4, sp, #0xd0
   82698:	52800643 	mov	w3, #0x32                  	// #50
   8269c:	b0000020 	adrp	x0, 87000 <vector_table_el1>
   826a0:	912fc002 	add	x2, x0, #0xbf0
   826a4:	52800641 	mov	w1, #0x32                  	// #50
   826a8:	aa0403e0 	mov	x0, x4
   826ac:	97fff991 	bl	80cf0 <strcpy>
   826b0:	910263e1 	add	x1, sp, #0x98
   826b4:	910333e0 	add	x0, sp, #0xcc
   826b8:	b96033e2 	ldr	w2, [sp, #8240]
   826bc:	94000cba 	bl	859a4 <Receive>
   826c0:	b9202fe0 	str	w0, [sp, #8236]
   826c4:	910263e1 	add	x1, sp, #0x98
   826c8:	910063e0 	add	x0, sp, #0x18
   826cc:	52800023 	mov	w3, #0x1                   	// #1
   826d0:	aa0103e2 	mov	x2, x1
   826d4:	52800641 	mov	w1, #0x32                  	// #50
   826d8:	97fff951 	bl	80c1c <parsestring>
   826dc:	910263e1 	add	x1, sp, #0x98
   826e0:	910143e0 	add	x0, sp, #0x50
   826e4:	52800043 	mov	w3, #0x2                   	// #2
   826e8:	aa0103e2 	mov	x2, x1
   826ec:	52800641 	mov	w1, #0x32                  	// #50
   826f0:	97fff94b 	bl	80c1c <parsestring>
   826f4:	b0000020 	adrp	x0, 87000 <vector_table_el1>
   826f8:	91300000 	add	x0, x0, #0xc00
   826fc:	f91013e0 	str	x0, [sp, #8224]
   82700:	910063e0 	add	x0, sp, #0x18
   82704:	f95013e1 	ldr	x1, [sp, #8224]
   82708:	97fff8f5 	bl	80adc <strcmp_ret>
   8270c:	b90097e0 	str	w0, [sp, #148]
   82710:	b94097e0 	ldr	w0, [sp, #148]
   82714:	7100001f 	cmp	w0, #0x0
   82718:	540002e0 	b.eq	82774 <nameserver+0x13c>  // b.none
   8271c:	b940cfe0 	ldr	w0, [sp, #204]
   82720:	910343e2 	add	x2, sp, #0xd0
   82724:	93407c01 	sxtw	x1, w0
   82728:	aa0103e0 	mov	x0, x1
   8272c:	d37ff800 	lsl	x0, x0, #1
   82730:	8b010000 	add	x0, x0, x1
   82734:	d37df000 	lsl	x0, x0, #3
   82738:	8b010000 	add	x0, x0, x1
   8273c:	d37cec00 	lsl	x0, x0, #4
   82740:	8b000040 	add	x0, x2, x0
   82744:	910143e1 	add	x1, sp, #0x50
   82748:	52800643 	mov	w3, #0x32                  	// #50
   8274c:	aa0103e2 	mov	x2, x1
   82750:	52800641 	mov	w1, #0x32                  	// #50
   82754:	97fff967 	bl	80cf0 <strcpy>
   82758:	b940cfe3 	ldr	w3, [sp, #204]
   8275c:	52800322 	mov	w2, #0x19                  	// #25
   82760:	b0000020 	adrp	x0, 87000 <vector_table_el1>
   82764:	91304001 	add	x1, x0, #0xc10
   82768:	2a0303e0 	mov	w0, w3
   8276c:	94000c97 	bl	859c8 <Reply>
   82770:	b9201fe0 	str	w0, [sp, #8220]
   82774:	b0000020 	adrp	x0, 87000 <vector_table_el1>
   82778:	91308000 	add	x0, x0, #0xc20
   8277c:	f91013e0 	str	x0, [sp, #8224]
   82780:	910063e1 	add	x1, sp, #0x18
   82784:	910253e0 	add	x0, sp, #0x94
   82788:	f95013e2 	ldr	x2, [sp, #8224]
   8278c:	97fff8a2 	bl	80a14 <strcmp>
   82790:	b94097e0 	ldr	w0, [sp, #148]
   82794:	7100001f 	cmp	w0, #0x0
   82798:	54000480 	b.eq	82828 <nameserver+0x1f0>  // b.none
   8279c:	b9203bff 	str	wzr, [sp, #8248]
   827a0:	14000011 	b	827e4 <nameserver+0x1ac>
   827a4:	910343e2 	add	x2, sp, #0xd0
   827a8:	b9a03be1 	ldrsw	x1, [sp, #8248]
   827ac:	aa0103e0 	mov	x0, x1
   827b0:	d37ff800 	lsl	x0, x0, #1
   827b4:	8b010000 	add	x0, x0, x1
   827b8:	d37df000 	lsl	x0, x0, #3
   827bc:	8b010000 	add	x0, x0, x1
   827c0:	d37cec00 	lsl	x0, x0, #4
   827c4:	8b000040 	add	x0, x2, x0
   827c8:	910143e1 	add	x1, sp, #0x50
   827cc:	97fff8c4 	bl	80adc <strcmp_ret>
   827d0:	7100001f 	cmp	w0, #0x0
   827d4:	54000101 	b.ne	827f4 <nameserver+0x1bc>  // b.any
   827d8:	b9603be0 	ldr	w0, [sp, #8248]
   827dc:	11000400 	add	w0, w0, #0x1
   827e0:	b9203be0 	str	w0, [sp, #8248]
   827e4:	b9603be0 	ldr	w0, [sp, #8248]
   827e8:	71004c1f 	cmp	w0, #0x13
   827ec:	54fffdcd 	b.le	827a4 <nameserver+0x16c>
   827f0:	14000002 	b	827f8 <nameserver+0x1c0>
   827f4:	d503201f 	nop
   827f8:	f90047ff 	str	xzr, [sp, #136]
   827fc:	790123ff 	strh	wzr, [sp, #144]
   82800:	b9603be0 	ldr	w0, [sp, #8248]
   82804:	910223e1 	add	x1, sp, #0x88
   82808:	aa0103e2 	mov	x2, x1
   8280c:	52800141 	mov	w1, #0xa                   	// #10
   82810:	94000cd8 	bl	85b70 <ui2a>
   82814:	b940cfe0 	ldr	w0, [sp, #204]
   82818:	910223e1 	add	x1, sp, #0x88
   8281c:	52800322 	mov	w2, #0x19                  	// #25
   82820:	94000c6a 	bl	859c8 <Reply>
   82824:	b9201be0 	str	w0, [sp, #8216]
   82828:	b0000020 	adrp	x0, 87000 <vector_table_el1>
   8282c:	9130a000 	add	x0, x0, #0xc28
   82830:	f91013e0 	str	x0, [sp, #8224]
   82834:	910063e1 	add	x1, sp, #0x18
   82838:	910253e0 	add	x0, sp, #0x94
   8283c:	f95013e2 	ldr	x2, [sp, #8224]
   82840:	97fff875 	bl	80a14 <strcmp>
   82844:	b94097e0 	ldr	w0, [sp, #148]
   82848:	7100001f 	cmp	w0, #0x0
   8284c:	54000560 	b.eq	828f8 <nameserver+0x2c0>  // b.none
   82850:	b0000020 	adrp	x0, 87000 <vector_table_el1>
   82854:	9130e001 	add	x1, x0, #0xc38
   82858:	d2800020 	mov	x0, #0x1                   	// #1
   8285c:	940004dc 	bl	83bcc <uart_printf>
   82860:	b940cfe4 	ldr	w4, [sp, #204]
   82864:	b940cfe0 	ldr	w0, [sp, #204]
   82868:	910343e2 	add	x2, sp, #0xd0
   8286c:	93407c01 	sxtw	x1, w0
   82870:	aa0103e0 	mov	x0, x1
   82874:	d37ff800 	lsl	x0, x0, #1
   82878:	8b010000 	add	x0, x0, x1
   8287c:	d37df000 	lsl	x0, x0, #3
   82880:	8b010000 	add	x0, x0, x1
   82884:	d37cec00 	lsl	x0, x0, #4
   82888:	8b000040 	add	x0, x2, x0
   8288c:	aa0003e3 	mov	x3, x0
   82890:	2a0403e2 	mov	w2, w4
   82894:	b0000020 	adrp	x0, 87000 <vector_table_el1>
   82898:	91310001 	add	x1, x0, #0xc40
   8289c:	d2800020 	mov	x0, #0x1                   	// #1
   828a0:	940004cb 	bl	83bcc <uart_printf>
   828a4:	b0000020 	adrp	x0, 87000 <vector_table_el1>
   828a8:	91318001 	add	x1, x0, #0xc60
   828ac:	d2800020 	mov	x0, #0x1                   	// #1
   828b0:	940004c7 	bl	83bcc <uart_printf>
   828b4:	b940cfe0 	ldr	w0, [sp, #204]
   828b8:	93407c01 	sxtw	x1, w0
   828bc:	aa0103e0 	mov	x0, x1
   828c0:	d37ff800 	lsl	x0, x0, #1
   828c4:	8b010000 	add	x0, x0, x1
   828c8:	d37df000 	lsl	x0, x0, #3
   828cc:	8b010000 	add	x0, x0, x1
   828d0:	d37cec00 	lsl	x0, x0, #4
   828d4:	910343e1 	add	x1, sp, #0xd0
   828d8:	f820683f 	str	xzr, [x1, x0]
   828dc:	b940cfe3 	ldr	w3, [sp, #204]
   828e0:	52800322 	mov	w2, #0x19                  	// #25
   828e4:	b0000020 	adrp	x0, 87000 <vector_table_el1>
   828e8:	9131a001 	add	x1, x0, #0xc68
   828ec:	2a0303e0 	mov	w0, w3
   828f0:	94000c36 	bl	859c8 <Reply>
   828f4:	b92017e0 	str	w0, [sp, #8212]
   828f8:	b0000020 	adrp	x0, 87000 <vector_table_el1>
   828fc:	91320001 	add	x1, x0, #0xc80
   82900:	d2800020 	mov	x0, #0x1                   	// #1
   82904:	940004b2 	bl	83bcc <uart_printf>
   82908:	b0000020 	adrp	x0, 87000 <vector_table_el1>
   8290c:	91322001 	add	x1, x0, #0xc88
   82910:	d2800020 	mov	x0, #0x1                   	// #1
   82914:	940004ae 	bl	83bcc <uart_printf>
   82918:	b92037ff 	str	wzr, [sp, #8244]
   8291c:	14000013 	b	82968 <nameserver+0x330>
   82920:	910343e2 	add	x2, sp, #0xd0
   82924:	b9a037e1 	ldrsw	x1, [sp, #8244]
   82928:	aa0103e0 	mov	x0, x1
   8292c:	d37ff800 	lsl	x0, x0, #1
   82930:	8b010000 	add	x0, x0, x1
   82934:	d37df000 	lsl	x0, x0, #3
   82938:	8b010000 	add	x0, x0, x1
   8293c:	d37cec00 	lsl	x0, x0, #4
   82940:	8b000040 	add	x0, x2, x0
   82944:	aa0003e3 	mov	x3, x0
   82948:	b96037e2 	ldr	w2, [sp, #8244]
   8294c:	b0000020 	adrp	x0, 87000 <vector_table_el1>
   82950:	91328001 	add	x1, x0, #0xca0
   82954:	d2800020 	mov	x0, #0x1                   	// #1
   82958:	9400049d 	bl	83bcc <uart_printf>
   8295c:	b96037e0 	ldr	w0, [sp, #8244]
   82960:	11000400 	add	w0, w0, #0x1
   82964:	b92037e0 	str	w0, [sp, #8244]
   82968:	b96037e0 	ldr	w0, [sp, #8244]
   8296c:	71004c1f 	cmp	w0, #0x13
   82970:	54fffd8d 	b.le	82920 <nameserver+0x2e8>
   82974:	b0000020 	adrp	x0, 87000 <vector_table_el1>
   82978:	91318001 	add	x1, x0, #0xc60
   8297c:	d2800020 	mov	x0, #0x1                   	// #1
   82980:	94000493 	bl	83bcc <uart_printf>
   82984:	17ffff4b 	b	826b0 <nameserver+0x78>

0000000000082988 <RegisterAs>:
   82988:	a9b77bfd 	stp	x29, x30, [sp, #-144]!
   8298c:	910003fd 	mov	x29, sp
   82990:	f9000fe0 	str	x0, [sp, #24]
   82994:	b0000020 	adrp	x0, 87000 <vector_table_el1>
   82998:	9132e001 	add	x1, x0, #0xcb8
   8299c:	910083e0 	add	x0, sp, #0x20
   829a0:	aa0103e3 	mov	x3, x1
   829a4:	d2800141 	mov	x1, #0xa                   	// #10
   829a8:	aa0103e2 	mov	x2, x1
   829ac:	aa0303e1 	mov	x1, x3
   829b0:	94000ce0 	bl	85d30 <memcpy>
   829b4:	9100abe0 	add	x0, sp, #0x2a
   829b8:	d2800501 	mov	x1, #0x28                  	// #40
   829bc:	aa0103e2 	mov	x2, x1
   829c0:	52800001 	mov	w1, #0x0                   	// #0
   829c4:	94000cc5 	bl	85cd8 <memset>
   829c8:	52800640 	mov	w0, #0x32                  	// #50
   829cc:	b9008fe0 	str	w0, [sp, #140]
   829d0:	910083e0 	add	x0, sp, #0x20
   829d4:	f9400fe1 	ldr	x1, [sp, #24]
   829d8:	97fff864 	bl	80b68 <stringconcat>
   829dc:	b9008fe0 	str	w0, [sp, #140]
   829e0:	910163e1 	add	x1, sp, #0x58
   829e4:	910083e0 	add	x0, sp, #0x20
   829e8:	52800644 	mov	w4, #0x32                  	// #50
   829ec:	aa0103e3 	mov	x3, x1
   829f0:	52800642 	mov	w2, #0x32                  	// #50
   829f4:	aa0003e1 	mov	x1, x0
   829f8:	52800020 	mov	w0, #0x1                   	// #1
   829fc:	94000bdf 	bl	85978 <Send>
   82a00:	52800000 	mov	w0, #0x0                   	// #0
   82a04:	a8c97bfd 	ldp	x29, x30, [sp], #144
   82a08:	d65f03c0 	ret

0000000000082a0c <Deregister>:
   82a0c:	a9b67bfd 	stp	x29, x30, [sp, #-160]!
   82a10:	910003fd 	mov	x29, sp
   82a14:	94000bfd 	bl	85a08 <MyTid>
   82a18:	b9009fe0 	str	w0, [sp, #156]
   82a1c:	d288a880 	mov	x0, #0x4544                	// #17732
   82a20:	f2a8aa40 	movk	x0, #0x4552, lsl #16
   82a24:	f2c928e0 	movk	x0, #0x4947, lsl #32
   82a28:	f2ea8a60 	movk	x0, #0x5453, lsl #48
   82a2c:	f90017e0 	str	x0, [sp, #40]
   82a30:	d28a48a0 	mov	x0, #0x5245                	// #21061
   82a34:	f2a00400 	movk	x0, #0x20, lsl #16
   82a38:	f9001be0 	str	x0, [sp, #48]
   82a3c:	f9001fff 	str	xzr, [sp, #56]
   82a40:	f90023ff 	str	xzr, [sp, #64]
   82a44:	f90027ff 	str	xzr, [sp, #72]
   82a48:	f9002bff 	str	xzr, [sp, #80]
   82a4c:	7900b3ff 	strh	wzr, [sp, #88]
   82a50:	f9000fff 	str	xzr, [sp, #24]
   82a54:	790043ff 	strh	wzr, [sp, #32]
   82a58:	910063e0 	add	x0, sp, #0x18
   82a5c:	aa0003e1 	mov	x1, x0
   82a60:	b9409fe0 	ldr	w0, [sp, #156]
   82a64:	94000c87 	bl	85c80 <i2a>
   82a68:	52800640 	mov	w0, #0x32                  	// #50
   82a6c:	b9009be0 	str	w0, [sp, #152]
   82a70:	910063e1 	add	x1, sp, #0x18
   82a74:	9100a3e0 	add	x0, sp, #0x28
   82a78:	97fff83c 	bl	80b68 <stringconcat>
   82a7c:	b9009be0 	str	w0, [sp, #152]
   82a80:	910183e1 	add	x1, sp, #0x60
   82a84:	9100a3e0 	add	x0, sp, #0x28
   82a88:	52800644 	mov	w4, #0x32                  	// #50
   82a8c:	aa0103e3 	mov	x3, x1
   82a90:	52800642 	mov	w2, #0x32                  	// #50
   82a94:	aa0003e1 	mov	x1, x0
   82a98:	52800020 	mov	w0, #0x1                   	// #1
   82a9c:	94000bb7 	bl	85978 <Send>
   82aa0:	a8ca7bfd 	ldp	x29, x30, [sp], #160
   82aa4:	d65f03c0 	ret

0000000000082aa8 <WhoIs>:
   82aa8:	a9b77bfd 	stp	x29, x30, [sp, #-144]!
   82aac:	910003fd 	mov	x29, sp
   82ab0:	f9000fe0 	str	x0, [sp, #24]
   82ab4:	d2890ae0 	mov	x0, #0x4857                	// #18519
   82ab8:	f2a929e0 	movk	x0, #0x494f, lsl #16
   82abc:	f2c40a60 	movk	x0, #0x2053, lsl #32
   82ac0:	d2800001 	mov	x1, #0x0                   	// #0
   82ac4:	a90207e0 	stp	x0, x1, [sp, #32]
   82ac8:	a9037fff 	stp	xzr, xzr, [sp, #48]
   82acc:	a9047fff 	stp	xzr, xzr, [sp, #64]
   82ad0:	7900a3ff 	strh	wzr, [sp, #80]
   82ad4:	52800640 	mov	w0, #0x32                  	// #50
   82ad8:	b9008fe0 	str	w0, [sp, #140]
   82adc:	910083e0 	add	x0, sp, #0x20
   82ae0:	f9400fe1 	ldr	x1, [sp, #24]
   82ae4:	97fff821 	bl	80b68 <stringconcat>
   82ae8:	b9008fe0 	str	w0, [sp, #140]
   82aec:	910163e1 	add	x1, sp, #0x58
   82af0:	910083e0 	add	x0, sp, #0x20
   82af4:	52800644 	mov	w4, #0x32                  	// #50
   82af8:	aa0103e3 	mov	x3, x1
   82afc:	52800642 	mov	w2, #0x32                  	// #50
   82b00:	aa0003e1 	mov	x1, x0
   82b04:	52800020 	mov	w0, #0x1                   	// #1
   82b08:	94000b9c 	bl	85978 <Send>
   82b0c:	910163e0 	add	x0, sp, #0x58
   82b10:	97fff77c 	bl	80900 <str_to_int>
   82b14:	12001c00 	and	w0, w0, #0xff
   82b18:	a8c97bfd 	ldp	x29, x30, [sp], #144
   82b1c:	d65f03c0 	ret

0000000000082b20 <Measure_multiple_times>:
   82b20:	a9bd7bfd 	stp	x29, x30, [sp, #-48]!
   82b24:	910003fd 	mov	x29, sp
   82b28:	b9001fe0 	str	w0, [sp, #28]
   82b2c:	f9000be1 	str	x1, [sp, #16]
   82b30:	b9002fff 	str	wzr, [sp, #44]
   82b34:	14000014 	b	82b84 <Measure_multiple_times+0x64>
   82b38:	94000bd8 	bl	85a98 <get_timerLO>
   82b3c:	b9002be0 	str	w0, [sp, #40]
   82b40:	f9400be0 	ldr	x0, [sp, #16]
   82b44:	d63f0000 	blr	x0
   82b48:	94000bd4 	bl	85a98 <get_timerLO>
   82b4c:	b90027e0 	str	w0, [sp, #36]
   82b50:	b94027e1 	ldr	w1, [sp, #36]
   82b54:	b9402be0 	ldr	w0, [sp, #40]
   82b58:	4b000020 	sub	w0, w1, w0
   82b5c:	b90023e0 	str	w0, [sp, #32]
   82b60:	b94023e3 	ldr	w3, [sp, #32]
   82b64:	b9402fe2 	ldr	w2, [sp, #44]
   82b68:	b0000020 	adrp	x0, 87000 <vector_table_el1>
   82b6c:	91332001 	add	x1, x0, #0xcc8
   82b70:	d2800020 	mov	x0, #0x1                   	// #1
   82b74:	94000416 	bl	83bcc <uart_printf>
   82b78:	b9402fe0 	ldr	w0, [sp, #44]
   82b7c:	11000400 	add	w0, w0, #0x1
   82b80:	b9002fe0 	str	w0, [sp, #44]
   82b84:	b9402fe1 	ldr	w1, [sp, #44]
   82b88:	b9401fe0 	ldr	w0, [sp, #28]
   82b8c:	6b00003f 	cmp	w1, w0
   82b90:	54fffd4b 	b.lt	82b38 <Measure_multiple_times+0x18>  // b.tstop
   82b94:	94000bb7 	bl	85a70 <Exit>
   82b98:	d503201f 	nop
   82b9c:	a8c37bfd 	ldp	x29, x30, [sp], #48
   82ba0:	d65f03c0 	ret

0000000000082ba4 <Measure_something_larger>:
   82ba4:	a9bd7bfd 	stp	x29, x30, [sp, #-48]!
   82ba8:	910003fd 	mov	x29, sp
   82bac:	b9001fe0 	str	w0, [sp, #28]
   82bb0:	f9000be1 	str	x1, [sp, #16]
   82bb4:	94000bb9 	bl	85a98 <get_timerLO>
   82bb8:	b9002be0 	str	w0, [sp, #40]
   82bbc:	b9002fff 	str	wzr, [sp, #44]
   82bc0:	14000006 	b	82bd8 <Measure_something_larger+0x34>
   82bc4:	f9400be0 	ldr	x0, [sp, #16]
   82bc8:	d63f0000 	blr	x0
   82bcc:	b9402fe0 	ldr	w0, [sp, #44]
   82bd0:	11000400 	add	w0, w0, #0x1
   82bd4:	b9002fe0 	str	w0, [sp, #44]
   82bd8:	b9402fe1 	ldr	w1, [sp, #44]
   82bdc:	b9401fe0 	ldr	w0, [sp, #28]
   82be0:	6b00003f 	cmp	w1, w0
   82be4:	54ffff0b 	b.lt	82bc4 <Measure_something_larger+0x20>  // b.tstop
   82be8:	94000bac 	bl	85a98 <get_timerLO>
   82bec:	b90027e0 	str	w0, [sp, #36]
   82bf0:	b94027e1 	ldr	w1, [sp, #36]
   82bf4:	b9402be0 	ldr	w0, [sp, #40]
   82bf8:	4b000020 	sub	w0, w1, w0
   82bfc:	b90023e0 	str	w0, [sp, #32]
   82c00:	b94023e3 	ldr	w3, [sp, #32]
   82c04:	b9402fe2 	ldr	w2, [sp, #44]
   82c08:	b0000020 	adrp	x0, 87000 <vector_table_el1>
   82c0c:	91332001 	add	x1, x0, #0xcc8
   82c10:	d2800020 	mov	x0, #0x1                   	// #1
   82c14:	940003ee 	bl	83bcc <uart_printf>
   82c18:	94000b96 	bl	85a70 <Exit>
   82c1c:	d503201f 	nop
   82c20:	a8c37bfd 	ldp	x29, x30, [sp], #48
   82c24:	d65f03c0 	ret

0000000000082c28 <test_nameserver>:
   82c28:	a9be7bfd 	stp	x29, x30, [sp, #-32]!
   82c2c:	910003fd 	mov	x29, sp
   82c30:	b0000020 	adrp	x0, 87000 <vector_table_el1>
   82c34:	9133c000 	add	x0, x0, #0xcf0
   82c38:	f9000fe0 	str	x0, [sp, #24]
   82c3c:	b0000020 	adrp	x0, 87000 <vector_table_el1>
   82c40:	91340001 	add	x1, x0, #0xd00
   82c44:	d2800020 	mov	x0, #0x1                   	// #1
   82c48:	940003e1 	bl	83bcc <uart_printf>
   82c4c:	f9400fe2 	ldr	x2, [sp, #24]
   82c50:	b0000020 	adrp	x0, 87000 <vector_table_el1>
   82c54:	91342001 	add	x1, x0, #0xd08
   82c58:	d2800020 	mov	x0, #0x1                   	// #1
   82c5c:	940003dc 	bl	83bcc <uart_printf>
   82c60:	b0000020 	adrp	x0, 87000 <vector_table_el1>
   82c64:	9134c001 	add	x1, x0, #0xd30
   82c68:	d2800020 	mov	x0, #0x1                   	// #1
   82c6c:	940003d8 	bl	83bcc <uart_printf>
   82c70:	b0000020 	adrp	x0, 87000 <vector_table_el1>
   82c74:	91356001 	add	x1, x0, #0xd58
   82c78:	d2800020 	mov	x0, #0x1                   	// #1
   82c7c:	940003d4 	bl	83bcc <uart_printf>
   82c80:	f9400fe0 	ldr	x0, [sp, #24]
   82c84:	97ffff41 	bl	82988 <RegisterAs>
   82c88:	b0000020 	adrp	x0, 87000 <vector_table_el1>
   82c8c:	91340001 	add	x1, x0, #0xd00
   82c90:	d2800020 	mov	x0, #0x1                   	// #1
   82c94:	940003ce 	bl	83bcc <uart_printf>
   82c98:	b0000020 	adrp	x0, 87000 <vector_table_el1>
   82c9c:	91358001 	add	x1, x0, #0xd60
   82ca0:	d2800020 	mov	x0, #0x1                   	// #1
   82ca4:	940003ca 	bl	83bcc <uart_printf>
   82ca8:	b0000020 	adrp	x0, 87000 <vector_table_el1>
   82cac:	91356001 	add	x1, x0, #0xd58
   82cb0:	d2800020 	mov	x0, #0x1                   	// #1
   82cb4:	940003c6 	bl	83bcc <uart_printf>
   82cb8:	f9400fe0 	ldr	x0, [sp, #24]
   82cbc:	97ffff7b 	bl	82aa8 <WhoIs>
   82cc0:	b90017e0 	str	w0, [sp, #20]
   82cc4:	b0000020 	adrp	x0, 87000 <vector_table_el1>
   82cc8:	91340001 	add	x1, x0, #0xd00
   82ccc:	d2800020 	mov	x0, #0x1                   	// #1
   82cd0:	940003bf 	bl	83bcc <uart_printf>
   82cd4:	b94017e2 	ldr	w2, [sp, #20]
   82cd8:	b0000020 	adrp	x0, 87000 <vector_table_el1>
   82cdc:	91364001 	add	x1, x0, #0xd90
   82ce0:	d2800020 	mov	x0, #0x1                   	// #1
   82ce4:	940003ba 	bl	83bcc <uart_printf>
   82ce8:	b0000020 	adrp	x0, 87000 <vector_table_el1>
   82cec:	91356001 	add	x1, x0, #0xd58
   82cf0:	d2800020 	mov	x0, #0x1                   	// #1
   82cf4:	940003b6 	bl	83bcc <uart_printf>
   82cf8:	94000b5e 	bl	85a70 <Exit>
   82cfc:	d503201f 	nop
   82d00:	a8c27bfd 	ldp	x29, x30, [sp], #32
   82d04:	d65f03c0 	ret

0000000000082d08 <player1>:
   82d08:	a9be7bfd 	stp	x29, x30, [sp, #-32]!
   82d0c:	910003fd 	mov	x29, sp
   82d10:	94000b3e 	bl	85a08 <MyTid>
   82d14:	b9001be0 	str	w0, [sp, #24]
   82d18:	b0000020 	adrp	x0, 87000 <vector_table_el1>
   82d1c:	9136c000 	add	x0, x0, #0xdb0
   82d20:	97ffff1a 	bl	82988 <RegisterAs>
   82d24:	97fffab0 	bl	817e4 <signup>
   82d28:	b9001fff 	str	wzr, [sp, #28]
   82d2c:	14000015 	b	82d80 <player1+0x78>
   82d30:	b0000020 	adrp	x0, 87000 <vector_table_el1>
   82d34:	9136e000 	add	x0, x0, #0xdb8
   82d38:	97fffacd 	bl	8186c <play>
   82d3c:	39005fe0 	strb	w0, [sp, #23]
   82d40:	b9401be3 	ldr	w3, [sp, #24]
   82d44:	b9401fe2 	ldr	w2, [sp, #28]
   82d48:	b0000020 	adrp	x0, 87000 <vector_table_el1>
   82d4c:	91370001 	add	x1, x0, #0xdc0
   82d50:	d2800020 	mov	x0, #0x1                   	// #1
   82d54:	9400039e 	bl	83bcc <uart_printf>
   82d58:	39405fe1 	ldrb	w1, [sp, #23]
   82d5c:	d2800020 	mov	x0, #0x1                   	// #1
   82d60:	940002a6 	bl	837f8 <uart_putc>
   82d64:	b0000020 	adrp	x0, 87000 <vector_table_el1>
   82d68:	91378001 	add	x1, x0, #0xde0
   82d6c:	d2800020 	mov	x0, #0x1                   	// #1
   82d70:	94000397 	bl	83bcc <uart_printf>
   82d74:	b9401fe0 	ldr	w0, [sp, #28]
   82d78:	11000400 	add	w0, w0, #0x1
   82d7c:	b9001fe0 	str	w0, [sp, #28]
   82d80:	b9401fe0 	ldr	w0, [sp, #28]
   82d84:	7100101f 	cmp	w0, #0x4
   82d88:	54fffd4d 	b.le	82d30 <player1+0x28>
   82d8c:	97fffaa7 	bl	81828 <quit>
   82d90:	94000b38 	bl	85a70 <Exit>
   82d94:	d503201f 	nop
   82d98:	a8c27bfd 	ldp	x29, x30, [sp], #32
   82d9c:	d65f03c0 	ret

0000000000082da0 <player2>:
   82da0:	a9be7bfd 	stp	x29, x30, [sp, #-32]!
   82da4:	910003fd 	mov	x29, sp
   82da8:	94000b18 	bl	85a08 <MyTid>
   82dac:	b9001be0 	str	w0, [sp, #24]
   82db0:	b0000020 	adrp	x0, 87000 <vector_table_el1>
   82db4:	9137a000 	add	x0, x0, #0xde8
   82db8:	97fffef4 	bl	82988 <RegisterAs>
   82dbc:	97fffa8a 	bl	817e4 <signup>
   82dc0:	b9001fff 	str	wzr, [sp, #28]
   82dc4:	14000015 	b	82e18 <player2+0x78>
   82dc8:	b0000020 	adrp	x0, 87000 <vector_table_el1>
   82dcc:	9137c000 	add	x0, x0, #0xdf0
   82dd0:	97fffaa7 	bl	8186c <play>
   82dd4:	39005fe0 	strb	w0, [sp, #23]
   82dd8:	b9401be3 	ldr	w3, [sp, #24]
   82ddc:	b9401fe2 	ldr	w2, [sp, #28]
   82de0:	b0000020 	adrp	x0, 87000 <vector_table_el1>
   82de4:	9137e001 	add	x1, x0, #0xdf8
   82de8:	d2800020 	mov	x0, #0x1                   	// #1
   82dec:	94000378 	bl	83bcc <uart_printf>
   82df0:	39405fe1 	ldrb	w1, [sp, #23]
   82df4:	d2800020 	mov	x0, #0x1                   	// #1
   82df8:	94000280 	bl	837f8 <uart_putc>
   82dfc:	b0000020 	adrp	x0, 87000 <vector_table_el1>
   82e00:	91378001 	add	x1, x0, #0xde0
   82e04:	d2800020 	mov	x0, #0x1                   	// #1
   82e08:	94000371 	bl	83bcc <uart_printf>
   82e0c:	b9401fe0 	ldr	w0, [sp, #28]
   82e10:	11000400 	add	w0, w0, #0x1
   82e14:	b9001fe0 	str	w0, [sp, #28]
   82e18:	b9401fe0 	ldr	w0, [sp, #28]
   82e1c:	7100101f 	cmp	w0, #0x4
   82e20:	54fffd4d 	b.le	82dc8 <player2+0x28>
   82e24:	97fffa81 	bl	81828 <quit>
   82e28:	94000b12 	bl	85a70 <Exit>
   82e2c:	d503201f 	nop
   82e30:	a8c27bfd 	ldp	x29, x30, [sp], #32
   82e34:	d65f03c0 	ret

0000000000082e38 <sender>:
   82e38:	a9b27bfd 	stp	x29, x30, [sp, #-224]!
   82e3c:	910003fd 	mov	x29, sp
   82e40:	a90153f3 	stp	x19, x20, [sp, #16]
   82e44:	a9025bf5 	stp	x21, x22, [sp, #32]
   82e48:	a90363f7 	stp	x23, x24, [sp, #48]
   82e4c:	a9046bf9 	stp	x25, x26, [sp, #64]
   82e50:	f9002bfb 	str	x27, [sp, #80]
   82e54:	910003e0 	mov	x0, sp
   82e58:	aa0003f3 	mov	x19, x0
   82e5c:	52800140 	mov	w0, #0xa                   	// #10
   82e60:	b900dba0 	str	w0, [x29, #216]
   82e64:	94000ae9 	bl	85a08 <MyTid>
   82e68:	b900d7a0 	str	w0, [x29, #212]
   82e6c:	b0000020 	adrp	x0, 87000 <vector_table_el1>
   82e70:	91386000 	add	x0, x0, #0xe18
   82e74:	97fffec5 	bl	82988 <RegisterAs>
   82e78:	b940d7a2 	ldr	w2, [x29, #212]
   82e7c:	b0000020 	adrp	x0, 87000 <vector_table_el1>
   82e80:	91388001 	add	x1, x0, #0xe20
   82e84:	d2800020 	mov	x0, #0x1                   	// #1
   82e88:	94000351 	bl	83bcc <uart_printf>
   82e8c:	b940dba0 	ldr	w0, [x29, #216]
   82e90:	93407c01 	sxtw	x1, w0
   82e94:	d1000421 	sub	x1, x1, #0x1
   82e98:	f90067a1 	str	x1, [x29, #200]
   82e9c:	93407c01 	sxtw	x1, w0
   82ea0:	f9004ba1 	str	x1, [x29, #144]
   82ea4:	f9004fbf 	str	xzr, [x29, #152]
   82ea8:	a9490fa2 	ldp	x2, x3, [x29, #144]
   82eac:	aa0203e1 	mov	x1, x2
   82eb0:	d37dfc21 	lsr	x1, x1, #61
   82eb4:	aa0303e4 	mov	x4, x3
   82eb8:	d37df09b 	lsl	x27, x4, #3
   82ebc:	aa1b003b 	orr	x27, x1, x27
   82ec0:	aa0203e1 	mov	x1, x2
   82ec4:	d37df03a 	lsl	x26, x1, #3
   82ec8:	93407c01 	sxtw	x1, w0
   82ecc:	f90043a1 	str	x1, [x29, #128]
   82ed0:	f90047bf 	str	xzr, [x29, #136]
   82ed4:	a9480fa2 	ldp	x2, x3, [x29, #128]
   82ed8:	aa0203e1 	mov	x1, x2
   82edc:	d37dfc21 	lsr	x1, x1, #61
   82ee0:	aa0303e4 	mov	x4, x3
   82ee4:	d37df099 	lsl	x25, x4, #3
   82ee8:	aa190039 	orr	x25, x1, x25
   82eec:	aa0203e1 	mov	x1, x2
   82ef0:	d37df038 	lsl	x24, x1, #3
   82ef4:	93407c00 	sxtw	x0, w0
   82ef8:	91003c00 	add	x0, x0, #0xf
   82efc:	d344fc00 	lsr	x0, x0, #4
   82f00:	d37cec00 	lsl	x0, x0, #4
   82f04:	cb2063ff 	sub	sp, sp, x0
   82f08:	910003e0 	mov	x0, sp
   82f0c:	91000000 	add	x0, x0, #0x0
   82f10:	f90063a0 	str	x0, [x29, #192]
   82f14:	b900dfbf 	str	wzr, [x29, #220]
   82f18:	14000008 	b	82f38 <sender+0x100>
   82f1c:	f94063a1 	ldr	x1, [x29, #192]
   82f20:	b980dfa0 	ldrsw	x0, [x29, #220]
   82f24:	52800a62 	mov	w2, #0x53                  	// #83
   82f28:	38206822 	strb	w2, [x1, x0]
   82f2c:	b940dfa0 	ldr	w0, [x29, #220]
   82f30:	11000400 	add	w0, w0, #0x1
   82f34:	b900dfa0 	str	w0, [x29, #220]
   82f38:	b940dfa1 	ldr	w1, [x29, #220]
   82f3c:	b940dba0 	ldr	w0, [x29, #216]
   82f40:	6b00003f 	cmp	w1, w0
   82f44:	54fffecb 	b.lt	82f1c <sender+0xe4>  // b.tstop
   82f48:	b940dba0 	ldr	w0, [x29, #216]
   82f4c:	51000400 	sub	w0, w0, #0x1
   82f50:	f94063a1 	ldr	x1, [x29, #192]
   82f54:	93407c00 	sxtw	x0, w0
   82f58:	3820683f 	strb	wzr, [x1, x0]
   82f5c:	b0000020 	adrp	x0, 87000 <vector_table_el1>
   82f60:	91390000 	add	x0, x0, #0xe40
   82f64:	97fffed1 	bl	82aa8 <WhoIs>
   82f68:	b900d7a0 	str	w0, [x29, #212]
   82f6c:	b940dba0 	ldr	w0, [x29, #216]
   82f70:	93407c01 	sxtw	x1, w0
   82f74:	d1000421 	sub	x1, x1, #0x1
   82f78:	f9005fa1 	str	x1, [x29, #184]
   82f7c:	93407c01 	sxtw	x1, w0
   82f80:	f9003ba1 	str	x1, [x29, #112]
   82f84:	f9003fbf 	str	xzr, [x29, #120]
   82f88:	a9470fa2 	ldp	x2, x3, [x29, #112]
   82f8c:	aa0203e1 	mov	x1, x2
   82f90:	d37dfc21 	lsr	x1, x1, #61
   82f94:	aa0303e4 	mov	x4, x3
   82f98:	d37df097 	lsl	x23, x4, #3
   82f9c:	aa170037 	orr	x23, x1, x23
   82fa0:	aa0203e1 	mov	x1, x2
   82fa4:	d37df036 	lsl	x22, x1, #3
   82fa8:	93407c01 	sxtw	x1, w0
   82fac:	f90033a1 	str	x1, [x29, #96]
   82fb0:	f90037bf 	str	xzr, [x29, #104]
   82fb4:	a9460fa2 	ldp	x2, x3, [x29, #96]
   82fb8:	aa0203e1 	mov	x1, x2
   82fbc:	d37dfc21 	lsr	x1, x1, #61
   82fc0:	aa0303e4 	mov	x4, x3
   82fc4:	d37df095 	lsl	x21, x4, #3
   82fc8:	aa150035 	orr	x21, x1, x21
   82fcc:	aa0203e1 	mov	x1, x2
   82fd0:	d37df034 	lsl	x20, x1, #3
   82fd4:	93407c00 	sxtw	x0, w0
   82fd8:	91003c00 	add	x0, x0, #0xf
   82fdc:	d344fc00 	lsr	x0, x0, #4
   82fe0:	d37cec00 	lsl	x0, x0, #4
   82fe4:	cb2063ff 	sub	sp, sp, x0
   82fe8:	910003e0 	mov	x0, sp
   82fec:	91000000 	add	x0, x0, #0x0
   82ff0:	f9005ba0 	str	x0, [x29, #176]
   82ff4:	b940dba4 	ldr	w4, [x29, #216]
   82ff8:	f9405ba3 	ldr	x3, [x29, #176]
   82ffc:	b940dba2 	ldr	w2, [x29, #216]
   83000:	f94063a1 	ldr	x1, [x29, #192]
   83004:	b940d7a0 	ldr	w0, [x29, #212]
   83008:	94000a5c 	bl	85978 <Send>
   8300c:	b900afa0 	str	w0, [x29, #172]
   83010:	b940afa3 	ldr	w3, [x29, #172]
   83014:	f9405ba2 	ldr	x2, [x29, #176]
   83018:	90000020 	adrp	x0, 87000 <vector_table_el1>
   8301c:	91394001 	add	x1, x0, #0xe50
   83020:	d2800020 	mov	x0, #0x1                   	// #1
   83024:	940002ea 	bl	83bcc <uart_printf>
   83028:	94000a92 	bl	85a70 <Exit>
   8302c:	9100027f 	mov	sp, x19
   83030:	d503201f 	nop
   83034:	910003bf 	mov	sp, x29
   83038:	a94153f3 	ldp	x19, x20, [sp, #16]
   8303c:	a9425bf5 	ldp	x21, x22, [sp, #32]
   83040:	a94363f7 	ldp	x23, x24, [sp, #48]
   83044:	a9446bf9 	ldp	x25, x26, [sp, #64]
   83048:	f9402bfb 	ldr	x27, [sp, #80]
   8304c:	a8ce7bfd 	ldp	x29, x30, [sp], #224
   83050:	d65f03c0 	ret

0000000000083054 <receiver>:
   83054:	a9b27bfd 	stp	x29, x30, [sp, #-224]!
   83058:	910003fd 	mov	x29, sp
   8305c:	a90153f3 	stp	x19, x20, [sp, #16]
   83060:	a9025bf5 	stp	x21, x22, [sp, #32]
   83064:	a90363f7 	stp	x23, x24, [sp, #48]
   83068:	a9046bf9 	stp	x25, x26, [sp, #64]
   8306c:	f9002bfb 	str	x27, [sp, #80]
   83070:	910003e0 	mov	x0, sp
   83074:	aa0003f3 	mov	x19, x0
   83078:	52800140 	mov	w0, #0xa                   	// #10
   8307c:	b900dba0 	str	w0, [x29, #216]
   83080:	94000a62 	bl	85a08 <MyTid>
   83084:	b900d7a0 	str	w0, [x29, #212]
   83088:	90000020 	adrp	x0, 87000 <vector_table_el1>
   8308c:	91390000 	add	x0, x0, #0xe40
   83090:	97fffe3e 	bl	82988 <RegisterAs>
   83094:	b940dba0 	ldr	w0, [x29, #216]
   83098:	93407c01 	sxtw	x1, w0
   8309c:	d1000421 	sub	x1, x1, #0x1
   830a0:	f90067a1 	str	x1, [x29, #200]
   830a4:	93407c01 	sxtw	x1, w0
   830a8:	f9004ba1 	str	x1, [x29, #144]
   830ac:	f9004fbf 	str	xzr, [x29, #152]
   830b0:	a9490fa2 	ldp	x2, x3, [x29, #144]
   830b4:	aa0203e1 	mov	x1, x2
   830b8:	d37dfc21 	lsr	x1, x1, #61
   830bc:	aa0303e4 	mov	x4, x3
   830c0:	d37df09b 	lsl	x27, x4, #3
   830c4:	aa1b003b 	orr	x27, x1, x27
   830c8:	aa0203e1 	mov	x1, x2
   830cc:	d37df03a 	lsl	x26, x1, #3
   830d0:	93407c01 	sxtw	x1, w0
   830d4:	f90043a1 	str	x1, [x29, #128]
   830d8:	f90047bf 	str	xzr, [x29, #136]
   830dc:	a9480fa2 	ldp	x2, x3, [x29, #128]
   830e0:	aa0203e1 	mov	x1, x2
   830e4:	d37dfc21 	lsr	x1, x1, #61
   830e8:	aa0303e4 	mov	x4, x3
   830ec:	d37df099 	lsl	x25, x4, #3
   830f0:	aa190039 	orr	x25, x1, x25
   830f4:	aa0203e1 	mov	x1, x2
   830f8:	d37df038 	lsl	x24, x1, #3
   830fc:	93407c00 	sxtw	x0, w0
   83100:	91003c00 	add	x0, x0, #0xf
   83104:	d344fc00 	lsr	x0, x0, #4
   83108:	d37cec00 	lsl	x0, x0, #4
   8310c:	cb2063ff 	sub	sp, sp, x0
   83110:	910003e0 	mov	x0, sp
   83114:	91000000 	add	x0, x0, #0x0
   83118:	f90063a0 	str	x0, [x29, #192]
   8311c:	b940dba0 	ldr	w0, [x29, #216]
   83120:	93407c01 	sxtw	x1, w0
   83124:	d1000421 	sub	x1, x1, #0x1
   83128:	f9005fa1 	str	x1, [x29, #184]
   8312c:	93407c01 	sxtw	x1, w0
   83130:	f9003ba1 	str	x1, [x29, #112]
   83134:	f9003fbf 	str	xzr, [x29, #120]
   83138:	a9470fa2 	ldp	x2, x3, [x29, #112]
   8313c:	aa0203e1 	mov	x1, x2
   83140:	d37dfc21 	lsr	x1, x1, #61
   83144:	aa0303e4 	mov	x4, x3
   83148:	d37df097 	lsl	x23, x4, #3
   8314c:	aa170037 	orr	x23, x1, x23
   83150:	aa0203e1 	mov	x1, x2
   83154:	d37df036 	lsl	x22, x1, #3
   83158:	93407c01 	sxtw	x1, w0
   8315c:	f90033a1 	str	x1, [x29, #96]
   83160:	f90037bf 	str	xzr, [x29, #104]
   83164:	a9460fa2 	ldp	x2, x3, [x29, #96]
   83168:	aa0203e1 	mov	x1, x2
   8316c:	d37dfc21 	lsr	x1, x1, #61
   83170:	aa0303e4 	mov	x4, x3
   83174:	d37df095 	lsl	x21, x4, #3
   83178:	aa150035 	orr	x21, x1, x21
   8317c:	aa0203e1 	mov	x1, x2
   83180:	d37df034 	lsl	x20, x1, #3
   83184:	93407c00 	sxtw	x0, w0
   83188:	91003c00 	add	x0, x0, #0xf
   8318c:	d344fc00 	lsr	x0, x0, #4
   83190:	d37cec00 	lsl	x0, x0, #4
   83194:	cb2063ff 	sub	sp, sp, x0
   83198:	910003e0 	mov	x0, sp
   8319c:	91000000 	add	x0, x0, #0x0
   831a0:	f9005ba0 	str	x0, [x29, #176]
   831a4:	b900dfbf 	str	wzr, [x29, #220]
   831a8:	14000008 	b	831c8 <receiver+0x174>
   831ac:	f9405ba1 	ldr	x1, [x29, #176]
   831b0:	b980dfa0 	ldrsw	x0, [x29, #220]
   831b4:	52800a42 	mov	w2, #0x52                  	// #82
   831b8:	38206822 	strb	w2, [x1, x0]
   831bc:	b940dfa0 	ldr	w0, [x29, #220]
   831c0:	11000400 	add	w0, w0, #0x1
   831c4:	b900dfa0 	str	w0, [x29, #220]
   831c8:	b940dfa1 	ldr	w1, [x29, #220]
   831cc:	b940dba0 	ldr	w0, [x29, #216]
   831d0:	6b00003f 	cmp	w1, w0
   831d4:	54fffecb 	b.lt	831ac <receiver+0x158>  // b.tstop
   831d8:	b940dba0 	ldr	w0, [x29, #216]
   831dc:	51000400 	sub	w0, w0, #0x1
   831e0:	f9405ba1 	ldr	x1, [x29, #176]
   831e4:	93407c00 	sxtw	x0, w0
   831e8:	3820683f 	strb	wzr, [x1, x0]
   831ec:	b940d7a2 	ldr	w2, [x29, #212]
   831f0:	90000020 	adrp	x0, 87000 <vector_table_el1>
   831f4:	913a8001 	add	x1, x0, #0xea0
   831f8:	d2800020 	mov	x0, #0x1                   	// #1
   831fc:	94000274 	bl	83bcc <uart_printf>
   83200:	910293a0 	add	x0, x29, #0xa4
   83204:	b940dba2 	ldr	w2, [x29, #216]
   83208:	f94063a1 	ldr	x1, [x29, #192]
   8320c:	940009e6 	bl	859a4 <Receive>
   83210:	b900afa0 	str	w0, [x29, #172]
   83214:	b940afa3 	ldr	w3, [x29, #172]
   83218:	f94063a2 	ldr	x2, [x29, #192]
   8321c:	90000020 	adrp	x0, 87000 <vector_table_el1>
   83220:	913b0001 	add	x1, x0, #0xec0
   83224:	d2800020 	mov	x0, #0x1                   	// #1
   83228:	94000269 	bl	83bcc <uart_printf>
   8322c:	b940a7a0 	ldr	w0, [x29, #164]
   83230:	b940dba2 	ldr	w2, [x29, #216]
   83234:	f9405ba1 	ldr	x1, [x29, #176]
   83238:	940009e4 	bl	859c8 <Reply>
   8323c:	b900aba0 	str	w0, [x29, #168]
   83240:	b940aba2 	ldr	w2, [x29, #168]
   83244:	90000020 	adrp	x0, 87000 <vector_table_el1>
   83248:	913be001 	add	x1, x0, #0xef8
   8324c:	d2800020 	mov	x0, #0x1                   	// #1
   83250:	9400025f 	bl	83bcc <uart_printf>
   83254:	94000a07 	bl	85a70 <Exit>
   83258:	9100027f 	mov	sp, x19
   8325c:	d503201f 	nop
   83260:	910003bf 	mov	sp, x29
   83264:	a94153f3 	ldp	x19, x20, [sp, #16]
   83268:	a9425bf5 	ldp	x21, x22, [sp, #32]
   8326c:	a94363f7 	ldp	x23, x24, [sp, #48]
   83270:	a9446bf9 	ldp	x25, x26, [sp, #64]
   83274:	f9402bfb 	ldr	x27, [sp, #80]
   83278:	a8ce7bfd 	ldp	x29, x30, [sp], #224
   8327c:	d65f03c0 	ret

0000000000083280 <first_task>:
   83280:	a9be7bfd 	stp	x29, x30, [sp, #-32]!
   83284:	910003fd 	mov	x29, sp
   83288:	f0ffffe0 	adrp	x0, 82000 <parse_char_array>
   8328c:	9138e001 	add	x1, x0, #0xe38
   83290:	52800020 	mov	w0, #0x1                   	// #1
   83294:	940009e5 	bl	85a28 <Create>
   83298:	b9001fe0 	str	w0, [sp, #28]
   8329c:	b9401fe2 	ldr	w2, [sp, #28]
   832a0:	90000020 	adrp	x0, 87000 <vector_table_el1>
   832a4:	913c8001 	add	x1, x0, #0xf20
   832a8:	d2800020 	mov	x0, #0x1                   	// #1
   832ac:	94000248 	bl	83bcc <uart_printf>
   832b0:	90000000 	adrp	x0, 83000 <sender+0x1c8>
   832b4:	91015001 	add	x1, x0, #0x54
   832b8:	52800020 	mov	w0, #0x1                   	// #1
   832bc:	940009db 	bl	85a28 <Create>
   832c0:	b9001fe0 	str	w0, [sp, #28]
   832c4:	b9401fe2 	ldr	w2, [sp, #28]
   832c8:	90000020 	adrp	x0, 87000 <vector_table_el1>
   832cc:	913c8001 	add	x1, x0, #0xf20
   832d0:	d2800020 	mov	x0, #0x1                   	// #1
   832d4:	9400023e 	bl	83bcc <uart_printf>
   832d8:	940009e6 	bl	85a70 <Exit>
   832dc:	d503201f 	nop
   832e0:	a8c27bfd 	ldp	x29, x30, [sp], #32
   832e4:	d65f03c0 	ret

00000000000832e8 <setup_gpio>:
   832e8:	d10083ff 	sub	sp, sp, #0x20
   832ec:	b9000fe0 	str	w0, [sp, #12]
   832f0:	b9000be1 	str	w1, [sp, #8]
   832f4:	b90007e2 	str	w2, [sp, #4]
   832f8:	b9400fe1 	ldr	w1, [sp, #12]
   832fc:	529999a0 	mov	w0, #0xcccd                	// #52429
   83300:	72b99980 	movk	w0, #0xcccc, lsl #16
   83304:	9ba07c20 	umull	x0, w1, w0
   83308:	d360fc00 	lsr	x0, x0, #32
   8330c:	53037c00 	lsr	w0, w0, #3
   83310:	b9001fe0 	str	w0, [sp, #28]
   83314:	b9400fe2 	ldr	w2, [sp, #12]
   83318:	529999a0 	mov	w0, #0xcccd                	// #52429
   8331c:	72b99980 	movk	w0, #0xcccc, lsl #16
   83320:	9ba07c40 	umull	x0, w2, w0
   83324:	d360fc00 	lsr	x0, x0, #32
   83328:	53037c01 	lsr	w1, w0, #3
   8332c:	2a0103e0 	mov	w0, w1
   83330:	531e7400 	lsl	w0, w0, #2
   83334:	0b010000 	add	w0, w0, w1
   83338:	531f7800 	lsl	w0, w0, #1
   8333c:	4b000041 	sub	w1, w2, w0
   83340:	2a0103e0 	mov	w0, w1
   83344:	531f7800 	lsl	w0, w0, #1
   83348:	0b010000 	add	w0, w0, w1
   8334c:	b9001be0 	str	w0, [sp, #24]
   83350:	d2bfc401 	mov	x1, #0xfe200000            	// #4263510016
   83354:	90000020 	adrp	x0, 87000 <vector_table_el1>
   83358:	913d0000 	add	x0, x0, #0xf40
   8335c:	b9401fe2 	ldr	w2, [sp, #28]
   83360:	b8627800 	ldr	w0, [x0, x2, lsl #2]
   83364:	2a0003e0 	mov	w0, w0
   83368:	8b000020 	add	x0, x1, x0
   8336c:	b9400000 	ldr	w0, [x0]
   83370:	b90017e0 	str	w0, [sp, #20]
   83374:	b9401be0 	ldr	w0, [sp, #24]
   83378:	528000e1 	mov	w1, #0x7                   	// #7
   8337c:	1ac02020 	lsl	w0, w1, w0
   83380:	2a2003e0 	mvn	w0, w0
   83384:	b94017e1 	ldr	w1, [sp, #20]
   83388:	0a000020 	and	w0, w1, w0
   8338c:	b90017e0 	str	w0, [sp, #20]
   83390:	b9401be0 	ldr	w0, [sp, #24]
   83394:	b9400be1 	ldr	w1, [sp, #8]
   83398:	1ac02020 	lsl	w0, w1, w0
   8339c:	b94017e1 	ldr	w1, [sp, #20]
   833a0:	2a000020 	orr	w0, w1, w0
   833a4:	b90017e0 	str	w0, [sp, #20]
   833a8:	d2bfc401 	mov	x1, #0xfe200000            	// #4263510016
   833ac:	90000020 	adrp	x0, 87000 <vector_table_el1>
   833b0:	913d0000 	add	x0, x0, #0xf40
   833b4:	b9401fe2 	ldr	w2, [sp, #28]
   833b8:	b8627800 	ldr	w0, [x0, x2, lsl #2]
   833bc:	2a0003e0 	mov	w0, w0
   833c0:	8b000020 	add	x0, x1, x0
   833c4:	b94017e1 	ldr	w1, [sp, #20]
   833c8:	b9000001 	str	w1, [x0]
   833cc:	b9400fe0 	ldr	w0, [sp, #12]
   833d0:	53047c00 	lsr	w0, w0, #4
   833d4:	b9001fe0 	str	w0, [sp, #28]
   833d8:	b9400fe0 	ldr	w0, [sp, #12]
   833dc:	12000c00 	and	w0, w0, #0xf
   833e0:	531f7800 	lsl	w0, w0, #1
   833e4:	b9001be0 	str	w0, [sp, #24]
   833e8:	d2bfc401 	mov	x1, #0xfe200000            	// #4263510016
   833ec:	90000020 	adrp	x0, 87000 <vector_table_el1>
   833f0:	913d6000 	add	x0, x0, #0xf58
   833f4:	b9401fe2 	ldr	w2, [sp, #28]
   833f8:	b8627800 	ldr	w0, [x0, x2, lsl #2]
   833fc:	2a0003e0 	mov	w0, w0
   83400:	8b000020 	add	x0, x1, x0
   83404:	b9400000 	ldr	w0, [x0]
   83408:	b90017e0 	str	w0, [sp, #20]
   8340c:	b9401be0 	ldr	w0, [sp, #24]
   83410:	52800061 	mov	w1, #0x3                   	// #3
   83414:	1ac02020 	lsl	w0, w1, w0
   83418:	2a2003e0 	mvn	w0, w0
   8341c:	b94017e1 	ldr	w1, [sp, #20]
   83420:	0a000020 	and	w0, w1, w0
   83424:	b90017e0 	str	w0, [sp, #20]
   83428:	b9401be0 	ldr	w0, [sp, #24]
   8342c:	b94007e1 	ldr	w1, [sp, #4]
   83430:	1ac02020 	lsl	w0, w1, w0
   83434:	b94017e1 	ldr	w1, [sp, #20]
   83438:	2a000020 	orr	w0, w1, w0
   8343c:	b90017e0 	str	w0, [sp, #20]
   83440:	d2bfc401 	mov	x1, #0xfe200000            	// #4263510016
   83444:	90000020 	adrp	x0, 87000 <vector_table_el1>
   83448:	913d6000 	add	x0, x0, #0xf58
   8344c:	b9401fe2 	ldr	w2, [sp, #28]
   83450:	b8627800 	ldr	w0, [x0, x2, lsl #2]
   83454:	2a0003e0 	mov	w0, w0
   83458:	8b000020 	add	x0, x1, x0
   8345c:	b94017e1 	ldr	w1, [sp, #20]
   83460:	b9000001 	str	w1, [x0]
   83464:	d503201f 	nop
   83468:	910083ff 	add	sp, sp, #0x20
   8346c:	d65f03c0 	ret

0000000000083470 <uart_init>:
   83470:	a9bf7bfd 	stp	x29, x30, [sp, #-16]!
   83474:	910003fd 	mov	x29, sp
   83478:	52800060 	mov	w0, #0x3                   	// #3
   8347c:	52800001 	mov	w1, #0x0                   	// #0
   83480:	2a0103e2 	mov	w2, w1
   83484:	2a0003e1 	mov	w1, w0
   83488:	52800080 	mov	w0, #0x4                   	// #4
   8348c:	97ffff97 	bl	832e8 <setup_gpio>
   83490:	52800060 	mov	w0, #0x3                   	// #3
   83494:	52800001 	mov	w1, #0x0                   	// #0
   83498:	2a0103e2 	mov	w2, w1
   8349c:	2a0003e1 	mov	w1, w0
   834a0:	528000a0 	mov	w0, #0x5                   	// #5
   834a4:	97ffff91 	bl	832e8 <setup_gpio>
   834a8:	52800060 	mov	w0, #0x3                   	// #3
   834ac:	52800001 	mov	w1, #0x0                   	// #0
   834b0:	2a0103e2 	mov	w2, w1
   834b4:	2a0003e1 	mov	w1, w0
   834b8:	528000c0 	mov	w0, #0x6                   	// #6
   834bc:	97ffff8b 	bl	832e8 <setup_gpio>
   834c0:	52800060 	mov	w0, #0x3                   	// #3
   834c4:	52800001 	mov	w1, #0x0                   	// #0
   834c8:	2a0103e2 	mov	w2, w1
   834cc:	2a0003e1 	mov	w1, w0
   834d0:	528000e0 	mov	w0, #0x7                   	// #7
   834d4:	97ffff85 	bl	832e8 <setup_gpio>
   834d8:	52800080 	mov	w0, #0x4                   	// #4
   834dc:	52800001 	mov	w1, #0x0                   	// #0
   834e0:	2a0103e2 	mov	w2, w1
   834e4:	2a0003e1 	mov	w1, w0
   834e8:	528001c0 	mov	w0, #0xe                   	// #14
   834ec:	97ffff7f 	bl	832e8 <setup_gpio>
   834f0:	52800080 	mov	w0, #0x4                   	// #4
   834f4:	52800001 	mov	w1, #0x0                   	// #0
   834f8:	2a0103e2 	mov	w2, w1
   834fc:	2a0003e1 	mov	w1, w0
   83500:	528001e0 	mov	w0, #0xf                   	// #15
   83504:	97ffff79 	bl	832e8 <setup_gpio>
   83508:	d503201f 	nop
   8350c:	a8c17bfd 	ldp	x29, x30, [sp], #16
   83510:	d65f03c0 	ret

0000000000083514 <uart_config_and_enable>:
   83514:	d10083ff 	sub	sp, sp, #0x20
   83518:	f90007e0 	str	x0, [sp, #8]
   8351c:	b90007e1 	str	w1, [sp, #4]
   83520:	b90003e2 	str	w2, [sp]
   83524:	528d8000 	mov	w0, #0x6c00                	// #27648
   83528:	72a05b80 	movk	w0, #0x2dc, lsl #16
   8352c:	2a0003e0 	mov	w0, w0
   83530:	d37ef401 	lsl	x1, x0, #2
   83534:	b94007e0 	ldr	w0, [sp, #4]
   83538:	9ac00820 	udiv	x0, x1, x0
   8353c:	b9001fe0 	str	w0, [sp, #28]
   83540:	90000020 	adrp	x0, 87000 <vector_table_el1>
   83544:	913ea000 	add	x0, x0, #0xfa8
   83548:	f94007e1 	ldr	x1, [sp, #8]
   8354c:	f8617801 	ldr	x1, [x0, x1, lsl #3]
   83550:	52800600 	mov	w0, #0x30                  	// #48
   83554:	2a0003e0 	mov	w0, w0
   83558:	8b000020 	add	x0, x1, x0
   8355c:	b9400000 	ldr	w0, [x0]
   83560:	b9001be0 	str	w0, [sp, #24]
   83564:	52800020 	mov	w0, #0x1                   	// #1
   83568:	2a2003e2 	mvn	w2, w0
   8356c:	90000020 	adrp	x0, 87000 <vector_table_el1>
   83570:	913ea000 	add	x0, x0, #0xfa8
   83574:	f94007e1 	ldr	x1, [sp, #8]
   83578:	f8617801 	ldr	x1, [x0, x1, lsl #3]
   8357c:	52800600 	mov	w0, #0x30                  	// #48
   83580:	2a0003e0 	mov	w0, w0
   83584:	8b000020 	add	x0, x1, x0
   83588:	b9401be1 	ldr	w1, [sp, #24]
   8358c:	0a010041 	and	w1, w2, w1
   83590:	b9000001 	str	w1, [x0]
   83594:	b94003e0 	ldr	w0, [sp]
   83598:	7100001f 	cmp	w0, #0x0
   8359c:	54000220 	b.eq	835e0 <uart_config_and_enable+0xcc>  // b.none
   835a0:	52800801 	mov	w1, #0x40                  	// #64
   835a4:	52800400 	mov	w0, #0x20                  	// #32
   835a8:	2a000021 	orr	w1, w1, w0
   835ac:	52800200 	mov	w0, #0x10                  	// #16
   835b0:	2a000022 	orr	w2, w1, w0
   835b4:	52800101 	mov	w1, #0x8                   	// #8
   835b8:	90000020 	adrp	x0, 87000 <vector_table_el1>
   835bc:	913ea000 	add	x0, x0, #0xfa8
   835c0:	f94007e3 	ldr	x3, [sp, #8]
   835c4:	f8637803 	ldr	x3, [x0, x3, lsl #3]
   835c8:	52800580 	mov	w0, #0x2c                  	// #44
   835cc:	2a0003e0 	mov	w0, w0
   835d0:	8b000060 	add	x0, x3, x0
   835d4:	2a010041 	orr	w1, w2, w1
   835d8:	b9000001 	str	w1, [x0]
   835dc:	1400000e 	b	83614 <uart_config_and_enable+0x100>
   835e0:	52800801 	mov	w1, #0x40                  	// #64
   835e4:	52800400 	mov	w0, #0x20                  	// #32
   835e8:	2a000022 	orr	w2, w1, w0
   835ec:	52800201 	mov	w1, #0x10                  	// #16
   835f0:	90000020 	adrp	x0, 87000 <vector_table_el1>
   835f4:	913ea000 	add	x0, x0, #0xfa8
   835f8:	f94007e3 	ldr	x3, [sp, #8]
   835fc:	f8637803 	ldr	x3, [x0, x3, lsl #3]
   83600:	52800580 	mov	w0, #0x2c                  	// #44
   83604:	2a0003e0 	mov	w0, w0
   83608:	8b000060 	add	x0, x3, x0
   8360c:	2a010041 	orr	w1, w2, w1
   83610:	b9000001 	str	w1, [x0]
   83614:	90000020 	adrp	x0, 87000 <vector_table_el1>
   83618:	913ea000 	add	x0, x0, #0xfa8
   8361c:	f94007e1 	ldr	x1, [sp, #8]
   83620:	f8617801 	ldr	x1, [x0, x1, lsl #3]
   83624:	52800480 	mov	w0, #0x24                  	// #36
   83628:	2a0003e0 	mov	w0, w0
   8362c:	8b000020 	add	x0, x1, x0
   83630:	b9401fe1 	ldr	w1, [sp, #28]
   83634:	53067c21 	lsr	w1, w1, #6
   83638:	b9000001 	str	w1, [x0]
   8363c:	90000020 	adrp	x0, 87000 <vector_table_el1>
   83640:	913ea000 	add	x0, x0, #0xfa8
   83644:	f94007e1 	ldr	x1, [sp, #8]
   83648:	f8617801 	ldr	x1, [x0, x1, lsl #3]
   8364c:	52800500 	mov	w0, #0x28                  	// #40
   83650:	2a0003e0 	mov	w0, w0
   83654:	8b000020 	add	x0, x1, x0
   83658:	b9401fe1 	ldr	w1, [sp, #28]
   8365c:	12001421 	and	w1, w1, #0x3f
   83660:	b9000001 	str	w1, [x0]
   83664:	b94003e0 	ldr	w0, [sp]
   83668:	7100001f 	cmp	w0, #0x0
   8366c:	54000260 	b.eq	836b8 <uart_config_and_enable+0x1a4>  // b.none
   83670:	52800021 	mov	w1, #0x1                   	// #1
   83674:	b9401be0 	ldr	w0, [sp, #24]
   83678:	2a000021 	orr	w1, w1, w0
   8367c:	52802000 	mov	w0, #0x100                 	// #256
   83680:	2a000021 	orr	w1, w1, w0
   83684:	52804000 	mov	w0, #0x200                 	// #512
   83688:	2a000022 	orr	w2, w1, w0
   8368c:	52900001 	mov	w1, #0x8000                	// #32768
   83690:	90000020 	adrp	x0, 87000 <vector_table_el1>
   83694:	913ea000 	add	x0, x0, #0xfa8
   83698:	f94007e3 	ldr	x3, [sp, #8]
   8369c:	f8637803 	ldr	x3, [x0, x3, lsl #3]
   836a0:	52800600 	mov	w0, #0x30                  	// #48
   836a4:	2a0003e0 	mov	w0, w0
   836a8:	8b000060 	add	x0, x3, x0
   836ac:	2a010041 	orr	w1, w2, w1
   836b0:	b9000001 	str	w1, [x0]
   836b4:	14000010 	b	836f4 <uart_config_and_enable+0x1e0>
   836b8:	52800021 	mov	w1, #0x1                   	// #1
   836bc:	b9401be0 	ldr	w0, [sp, #24]
   836c0:	2a000021 	orr	w1, w1, w0
   836c4:	52802000 	mov	w0, #0x100                 	// #256
   836c8:	2a000022 	orr	w2, w1, w0
   836cc:	52804001 	mov	w1, #0x200                 	// #512
   836d0:	90000020 	adrp	x0, 87000 <vector_table_el1>
   836d4:	913ea000 	add	x0, x0, #0xfa8
   836d8:	f94007e3 	ldr	x3, [sp, #8]
   836dc:	f8637803 	ldr	x3, [x0, x3, lsl #3]
   836e0:	52800600 	mov	w0, #0x30                  	// #48
   836e4:	2a0003e0 	mov	w0, w0
   836e8:	8b000060 	add	x0, x3, x0
   836ec:	2a010041 	orr	w1, w2, w1
   836f0:	b9000001 	str	w1, [x0]
   836f4:	d503201f 	nop
   836f8:	910083ff 	add	sp, sp, #0x20
   836fc:	d65f03c0 	ret

0000000000083700 <uart_getc>:
   83700:	d10083ff 	sub	sp, sp, #0x20
   83704:	f90007e0 	str	x0, [sp, #8]
   83708:	d503201f 	nop
   8370c:	90000020 	adrp	x0, 87000 <vector_table_el1>
   83710:	913ea000 	add	x0, x0, #0xfa8
   83714:	f94007e1 	ldr	x1, [sp, #8]
   83718:	f8617801 	ldr	x1, [x0, x1, lsl #3]
   8371c:	52800300 	mov	w0, #0x18                  	// #24
   83720:	2a0003e0 	mov	w0, w0
   83724:	8b000020 	add	x0, x1, x0
   83728:	b9400001 	ldr	w1, [x0]
   8372c:	52800200 	mov	w0, #0x10                  	// #16
   83730:	0a000020 	and	w0, w1, w0
   83734:	7100001f 	cmp	w0, #0x0
   83738:	54fffea1 	b.ne	8370c <uart_getc+0xc>  // b.any
   8373c:	90000020 	adrp	x0, 87000 <vector_table_el1>
   83740:	913ea000 	add	x0, x0, #0xfa8
   83744:	f94007e1 	ldr	x1, [sp, #8]
   83748:	f8617801 	ldr	x1, [x0, x1, lsl #3]
   8374c:	52800000 	mov	w0, #0x0                   	// #0
   83750:	2a0003e0 	mov	w0, w0
   83754:	8b000020 	add	x0, x1, x0
   83758:	b9400000 	ldr	w0, [x0]
   8375c:	39007fe0 	strb	w0, [sp, #31]
   83760:	39407fe0 	ldrb	w0, [sp, #31]
   83764:	910083ff 	add	sp, sp, #0x20
   83768:	d65f03c0 	ret

000000000008376c <uart_rxc>:
   8376c:	d10083ff 	sub	sp, sp, #0x20
   83770:	f90007e0 	str	x0, [sp, #8]
   83774:	90000020 	adrp	x0, 87000 <vector_table_el1>
   83778:	913ea000 	add	x0, x0, #0xfa8
   8377c:	f94007e1 	ldr	x1, [sp, #8]
   83780:	f8617801 	ldr	x1, [x0, x1, lsl #3]
   83784:	52800300 	mov	w0, #0x18                  	// #24
   83788:	2a0003e0 	mov	w0, w0
   8378c:	8b000020 	add	x0, x1, x0
   83790:	b9400001 	ldr	w1, [x0]
   83794:	52800200 	mov	w0, #0x10                  	// #16
   83798:	0a000020 	and	w0, w1, w0
   8379c:	7100001f 	cmp	w0, #0x0
   837a0:	1a9f17e0 	cset	w0, eq	// eq = none
   837a4:	12001c00 	and	w0, w0, #0xff
   837a8:	b9001fe0 	str	w0, [sp, #28]
   837ac:	b9401fe0 	ldr	w0, [sp, #28]
   837b0:	910083ff 	add	sp, sp, #0x20
   837b4:	d65f03c0 	ret

00000000000837b8 <uart_cts>:
   837b8:	d10083ff 	sub	sp, sp, #0x20
   837bc:	f90007e0 	str	x0, [sp, #8]
   837c0:	90000020 	adrp	x0, 87000 <vector_table_el1>
   837c4:	913ea000 	add	x0, x0, #0xfa8
   837c8:	f94007e1 	ldr	x1, [sp, #8]
   837cc:	f8617801 	ldr	x1, [x0, x1, lsl #3]
   837d0:	52800300 	mov	w0, #0x18                  	// #24
   837d4:	2a0003e0 	mov	w0, w0
   837d8:	8b000020 	add	x0, x1, x0
   837dc:	b9400001 	ldr	w1, [x0]
   837e0:	52800020 	mov	w0, #0x1                   	// #1
   837e4:	0a000020 	and	w0, w1, w0
   837e8:	b9001fe0 	str	w0, [sp, #28]
   837ec:	b9401fe0 	ldr	w0, [sp, #28]
   837f0:	910083ff 	add	sp, sp, #0x20
   837f4:	d65f03c0 	ret

00000000000837f8 <uart_putc>:
   837f8:	d10043ff 	sub	sp, sp, #0x10
   837fc:	f90007e0 	str	x0, [sp, #8]
   83800:	39001fe1 	strb	w1, [sp, #7]
   83804:	d503201f 	nop
   83808:	90000020 	adrp	x0, 87000 <vector_table_el1>
   8380c:	913ea000 	add	x0, x0, #0xfa8
   83810:	f94007e1 	ldr	x1, [sp, #8]
   83814:	f8617801 	ldr	x1, [x0, x1, lsl #3]
   83818:	52800300 	mov	w0, #0x18                  	// #24
   8381c:	2a0003e0 	mov	w0, w0
   83820:	8b000020 	add	x0, x1, x0
   83824:	b9400001 	ldr	w1, [x0]
   83828:	52800400 	mov	w0, #0x20                  	// #32
   8382c:	0a000020 	and	w0, w1, w0
   83830:	7100001f 	cmp	w0, #0x0
   83834:	54fffea1 	b.ne	83808 <uart_putc+0x10>  // b.any
   83838:	90000020 	adrp	x0, 87000 <vector_table_el1>
   8383c:	913ea000 	add	x0, x0, #0xfa8
   83840:	f94007e1 	ldr	x1, [sp, #8]
   83844:	f8617801 	ldr	x1, [x0, x1, lsl #3]
   83848:	52800000 	mov	w0, #0x0                   	// #0
   8384c:	2a0003e0 	mov	w0, w0
   83850:	8b000020 	add	x0, x1, x0
   83854:	39401fe1 	ldrb	w1, [sp, #7]
   83858:	b9000001 	str	w1, [x0]
   8385c:	d503201f 	nop
   83860:	910043ff 	add	sp, sp, #0x10
   83864:	d65f03c0 	ret

0000000000083868 <uart_putl>:
   83868:	a9bc7bfd 	stp	x29, x30, [sp, #-64]!
   8386c:	910003fd 	mov	x29, sp
   83870:	f90017e0 	str	x0, [sp, #40]
   83874:	f90013e1 	str	x1, [sp, #32]
   83878:	f9000fe2 	str	x2, [sp, #24]
   8387c:	b9003fff 	str	wzr, [sp, #60]
   83880:	1400000b 	b	838ac <uart_putl+0x44>
   83884:	b9403fe0 	ldr	w0, [sp, #60]
   83888:	f94013e1 	ldr	x1, [sp, #32]
   8388c:	8b000020 	add	x0, x1, x0
   83890:	39400000 	ldrb	w0, [x0]
   83894:	2a0003e1 	mov	w1, w0
   83898:	f94017e0 	ldr	x0, [sp, #40]
   8389c:	97ffffd7 	bl	837f8 <uart_putc>
   838a0:	b9403fe0 	ldr	w0, [sp, #60]
   838a4:	11000400 	add	w0, w0, #0x1
   838a8:	b9003fe0 	str	w0, [sp, #60]
   838ac:	b9403fe0 	ldr	w0, [sp, #60]
   838b0:	f9400fe1 	ldr	x1, [sp, #24]
   838b4:	eb00003f 	cmp	x1, x0
   838b8:	54fffe68 	b.hi	83884 <uart_putl+0x1c>  // b.pmore
   838bc:	d503201f 	nop
   838c0:	d503201f 	nop
   838c4:	a8c47bfd 	ldp	x29, x30, [sp], #64
   838c8:	d65f03c0 	ret

00000000000838cc <uart_puts>:
   838cc:	a9be7bfd 	stp	x29, x30, [sp, #-32]!
   838d0:	910003fd 	mov	x29, sp
   838d4:	f9000fe0 	str	x0, [sp, #24]
   838d8:	f9000be1 	str	x1, [sp, #16]
   838dc:	14000009 	b	83900 <uart_puts+0x34>
   838e0:	f9400be0 	ldr	x0, [sp, #16]
   838e4:	39400000 	ldrb	w0, [x0]
   838e8:	2a0003e1 	mov	w1, w0
   838ec:	f9400fe0 	ldr	x0, [sp, #24]
   838f0:	97ffffc2 	bl	837f8 <uart_putc>
   838f4:	f9400be0 	ldr	x0, [sp, #16]
   838f8:	91000400 	add	x0, x0, #0x1
   838fc:	f9000be0 	str	x0, [sp, #16]
   83900:	f9400be0 	ldr	x0, [sp, #16]
   83904:	39400000 	ldrb	w0, [x0]
   83908:	7100001f 	cmp	w0, #0x0
   8390c:	54fffea1 	b.ne	838e0 <uart_puts+0x14>  // b.any
   83910:	d503201f 	nop
   83914:	d503201f 	nop
   83918:	a8c27bfd 	ldp	x29, x30, [sp], #32
   8391c:	d65f03c0 	ret

0000000000083920 <uart_format_print>:
   83920:	a9bc7bfd 	stp	x29, x30, [sp, #-64]!
   83924:	910003fd 	mov	x29, sp
   83928:	f9000bf3 	str	x19, [sp, #16]
   8392c:	f90017e0 	str	x0, [sp, #40]
   83930:	f90013e1 	str	x1, [sp, #32]
   83934:	aa0203f3 	mov	x19, x2
   83938:	14000098 	b	83b98 <uart_format_print+0x278>
   8393c:	3940ffe0 	ldrb	w0, [sp, #63]
   83940:	7100941f 	cmp	w0, #0x25
   83944:	540000a0 	b.eq	83958 <uart_format_print+0x38>  // b.none
   83948:	3940ffe1 	ldrb	w1, [sp, #63]
   8394c:	f94017e0 	ldr	x0, [sp, #40]
   83950:	97ffffaa 	bl	837f8 <uart_putc>
   83954:	14000091 	b	83b98 <uart_format_print+0x278>
   83958:	f94013e0 	ldr	x0, [sp, #32]
   8395c:	91000401 	add	x1, x0, #0x1
   83960:	f90013e1 	str	x1, [sp, #32]
   83964:	39400000 	ldrb	w0, [x0]
   83968:	3900ffe0 	strb	w0, [sp, #63]
   8396c:	3940ffe0 	ldrb	w0, [sp, #63]
   83970:	7101e01f 	cmp	w0, #0x78
   83974:	540009c0 	b.eq	83aac <uart_format_print+0x18c>  // b.none
   83978:	7101e01f 	cmp	w0, #0x78
   8397c:	540010ec 	b.gt	83b98 <uart_format_print+0x278>
   83980:	7101d41f 	cmp	w0, #0x75
   83984:	54000200 	b.eq	839c4 <uart_format_print+0xa4>  // b.none
   83988:	7101d41f 	cmp	w0, #0x75
   8398c:	5400106c 	b.gt	83b98 <uart_format_print+0x278>
   83990:	7101cc1f 	cmp	w0, #0x73
   83994:	54000c80 	b.eq	83b24 <uart_format_print+0x204>  // b.none
   83998:	7101cc1f 	cmp	w0, #0x73
   8399c:	54000fec 	b.gt	83b98 <uart_format_print+0x278>
   839a0:	7101901f 	cmp	w0, #0x64
   839a4:	540004c0 	b.eq	83a3c <uart_format_print+0x11c>  // b.none
   839a8:	7101901f 	cmp	w0, #0x64
   839ac:	54000f6c 	b.gt	83b98 <uart_format_print+0x278>
   839b0:	7100001f 	cmp	w0, #0x0
   839b4:	54001040 	b.eq	83bbc <uart_format_print+0x29c>  // b.none
   839b8:	7100941f 	cmp	w0, #0x25
   839bc:	54000e60 	b.eq	83b88 <uart_format_print+0x268>  // b.none
   839c0:	14000076 	b	83b98 <uart_format_print+0x278>
   839c4:	b9401a61 	ldr	w1, [x19, #24]
   839c8:	f9400260 	ldr	x0, [x19]
   839cc:	7100003f 	cmp	w1, #0x0
   839d0:	540000ab 	b.lt	839e4 <uart_format_print+0xc4>  // b.tstop
   839d4:	91002c01 	add	x1, x0, #0xb
   839d8:	927df021 	and	x1, x1, #0xfffffffffffffff8
   839dc:	f9000261 	str	x1, [x19]
   839e0:	1400000d 	b	83a14 <uart_format_print+0xf4>
   839e4:	11002022 	add	w2, w1, #0x8
   839e8:	b9001a62 	str	w2, [x19, #24]
   839ec:	b9401a62 	ldr	w2, [x19, #24]
   839f0:	7100005f 	cmp	w2, #0x0
   839f4:	540000ad 	b.le	83a08 <uart_format_print+0xe8>
   839f8:	91002c01 	add	x1, x0, #0xb
   839fc:	927df021 	and	x1, x1, #0xfffffffffffffff8
   83a00:	f9000261 	str	x1, [x19]
   83a04:	14000004 	b	83a14 <uart_format_print+0xf4>
   83a08:	f9400662 	ldr	x2, [x19, #8]
   83a0c:	93407c20 	sxtw	x0, w1
   83a10:	8b000040 	add	x0, x2, x0
   83a14:	b9400000 	ldr	w0, [x0]
   83a18:	9100c3e1 	add	x1, sp, #0x30
   83a1c:	aa0103e2 	mov	x2, x1
   83a20:	52800141 	mov	w1, #0xa                   	// #10
   83a24:	94000853 	bl	85b70 <ui2a>
   83a28:	9100c3e0 	add	x0, sp, #0x30
   83a2c:	aa0003e1 	mov	x1, x0
   83a30:	f94017e0 	ldr	x0, [sp, #40]
   83a34:	97ffffa6 	bl	838cc <uart_puts>
   83a38:	14000058 	b	83b98 <uart_format_print+0x278>
   83a3c:	b9401a61 	ldr	w1, [x19, #24]
   83a40:	f9400260 	ldr	x0, [x19]
   83a44:	7100003f 	cmp	w1, #0x0
   83a48:	540000ab 	b.lt	83a5c <uart_format_print+0x13c>  // b.tstop
   83a4c:	91002c01 	add	x1, x0, #0xb
   83a50:	927df021 	and	x1, x1, #0xfffffffffffffff8
   83a54:	f9000261 	str	x1, [x19]
   83a58:	1400000d 	b	83a8c <uart_format_print+0x16c>
   83a5c:	11002022 	add	w2, w1, #0x8
   83a60:	b9001a62 	str	w2, [x19, #24]
   83a64:	b9401a62 	ldr	w2, [x19, #24]
   83a68:	7100005f 	cmp	w2, #0x0
   83a6c:	540000ad 	b.le	83a80 <uart_format_print+0x160>
   83a70:	91002c01 	add	x1, x0, #0xb
   83a74:	927df021 	and	x1, x1, #0xfffffffffffffff8
   83a78:	f9000261 	str	x1, [x19]
   83a7c:	14000004 	b	83a8c <uart_format_print+0x16c>
   83a80:	f9400662 	ldr	x2, [x19, #8]
   83a84:	93407c20 	sxtw	x0, w1
   83a88:	8b000040 	add	x0, x2, x0
   83a8c:	b9400000 	ldr	w0, [x0]
   83a90:	9100c3e1 	add	x1, sp, #0x30
   83a94:	9400087b 	bl	85c80 <i2a>
   83a98:	9100c3e0 	add	x0, sp, #0x30
   83a9c:	aa0003e1 	mov	x1, x0
   83aa0:	f94017e0 	ldr	x0, [sp, #40]
   83aa4:	97ffff8a 	bl	838cc <uart_puts>
   83aa8:	1400003c 	b	83b98 <uart_format_print+0x278>
   83aac:	b9401a61 	ldr	w1, [x19, #24]
   83ab0:	f9400260 	ldr	x0, [x19]
   83ab4:	7100003f 	cmp	w1, #0x0
   83ab8:	540000ab 	b.lt	83acc <uart_format_print+0x1ac>  // b.tstop
   83abc:	91002c01 	add	x1, x0, #0xb
   83ac0:	927df021 	and	x1, x1, #0xfffffffffffffff8
   83ac4:	f9000261 	str	x1, [x19]
   83ac8:	1400000d 	b	83afc <uart_format_print+0x1dc>
   83acc:	11002022 	add	w2, w1, #0x8
   83ad0:	b9001a62 	str	w2, [x19, #24]
   83ad4:	b9401a62 	ldr	w2, [x19, #24]
   83ad8:	7100005f 	cmp	w2, #0x0
   83adc:	540000ad 	b.le	83af0 <uart_format_print+0x1d0>
   83ae0:	91002c01 	add	x1, x0, #0xb
   83ae4:	927df021 	and	x1, x1, #0xfffffffffffffff8
   83ae8:	f9000261 	str	x1, [x19]
   83aec:	14000004 	b	83afc <uart_format_print+0x1dc>
   83af0:	f9400662 	ldr	x2, [x19, #8]
   83af4:	93407c20 	sxtw	x0, w1
   83af8:	8b000040 	add	x0, x2, x0
   83afc:	b9400000 	ldr	w0, [x0]
   83b00:	9100c3e1 	add	x1, sp, #0x30
   83b04:	aa0103e2 	mov	x2, x1
   83b08:	52800201 	mov	w1, #0x10                  	// #16
   83b0c:	94000819 	bl	85b70 <ui2a>
   83b10:	9100c3e0 	add	x0, sp, #0x30
   83b14:	aa0003e1 	mov	x1, x0
   83b18:	f94017e0 	ldr	x0, [sp, #40]
   83b1c:	97ffff6c 	bl	838cc <uart_puts>
   83b20:	1400001e 	b	83b98 <uart_format_print+0x278>
   83b24:	b9401a61 	ldr	w1, [x19, #24]
   83b28:	f9400260 	ldr	x0, [x19]
   83b2c:	7100003f 	cmp	w1, #0x0
   83b30:	540000ab 	b.lt	83b44 <uart_format_print+0x224>  // b.tstop
   83b34:	91003c01 	add	x1, x0, #0xf
   83b38:	927df021 	and	x1, x1, #0xfffffffffffffff8
   83b3c:	f9000261 	str	x1, [x19]
   83b40:	1400000d 	b	83b74 <uart_format_print+0x254>
   83b44:	11002022 	add	w2, w1, #0x8
   83b48:	b9001a62 	str	w2, [x19, #24]
   83b4c:	b9401a62 	ldr	w2, [x19, #24]
   83b50:	7100005f 	cmp	w2, #0x0
   83b54:	540000ad 	b.le	83b68 <uart_format_print+0x248>
   83b58:	91003c01 	add	x1, x0, #0xf
   83b5c:	927df021 	and	x1, x1, #0xfffffffffffffff8
   83b60:	f9000261 	str	x1, [x19]
   83b64:	14000004 	b	83b74 <uart_format_print+0x254>
   83b68:	f9400662 	ldr	x2, [x19, #8]
   83b6c:	93407c20 	sxtw	x0, w1
   83b70:	8b000040 	add	x0, x2, x0
   83b74:	f9400000 	ldr	x0, [x0]
   83b78:	aa0003e1 	mov	x1, x0
   83b7c:	f94017e0 	ldr	x0, [sp, #40]
   83b80:	97ffff53 	bl	838cc <uart_puts>
   83b84:	14000005 	b	83b98 <uart_format_print+0x278>
   83b88:	3940ffe1 	ldrb	w1, [sp, #63]
   83b8c:	f94017e0 	ldr	x0, [sp, #40]
   83b90:	97ffff1a 	bl	837f8 <uart_putc>
   83b94:	d503201f 	nop
   83b98:	f94013e0 	ldr	x0, [sp, #32]
   83b9c:	91000401 	add	x1, x0, #0x1
   83ba0:	f90013e1 	str	x1, [sp, #32]
   83ba4:	39400000 	ldrb	w0, [x0]
   83ba8:	3900ffe0 	strb	w0, [sp, #63]
   83bac:	3940ffe0 	ldrb	w0, [sp, #63]
   83bb0:	7100001f 	cmp	w0, #0x0
   83bb4:	54ffec41 	b.ne	8393c <uart_format_print+0x1c>  // b.any
   83bb8:	14000002 	b	83bc0 <uart_format_print+0x2a0>
   83bbc:	d503201f 	nop
   83bc0:	f9400bf3 	ldr	x19, [sp, #16]
   83bc4:	a8c47bfd 	ldp	x29, x30, [sp], #64
   83bc8:	d65f03c0 	ret

0000000000083bcc <uart_printf>:
   83bcc:	a9b77bfd 	stp	x29, x30, [sp, #-144]!
   83bd0:	910003fd 	mov	x29, sp
   83bd4:	f9001fe0 	str	x0, [sp, #56]
   83bd8:	f9001be1 	str	x1, [sp, #48]
   83bdc:	f90033e2 	str	x2, [sp, #96]
   83be0:	f90037e3 	str	x3, [sp, #104]
   83be4:	f9003be4 	str	x4, [sp, #112]
   83be8:	f9003fe5 	str	x5, [sp, #120]
   83bec:	f90043e6 	str	x6, [sp, #128]
   83bf0:	f90047e7 	str	x7, [sp, #136]
   83bf4:	910243e0 	add	x0, sp, #0x90
   83bf8:	f90023e0 	str	x0, [sp, #64]
   83bfc:	910243e0 	add	x0, sp, #0x90
   83c00:	f90027e0 	str	x0, [sp, #72]
   83c04:	910183e0 	add	x0, sp, #0x60
   83c08:	f9002be0 	str	x0, [sp, #80]
   83c0c:	128005e0 	mov	w0, #0xffffffd0            	// #-48
   83c10:	b9005be0 	str	w0, [sp, #88]
   83c14:	b9005fff 	str	wzr, [sp, #92]
   83c18:	a94407e0 	ldp	x0, x1, [sp, #64]
   83c1c:	a90107e0 	stp	x0, x1, [sp, #16]
   83c20:	a94507e0 	ldp	x0, x1, [sp, #80]
   83c24:	a90207e0 	stp	x0, x1, [sp, #32]
   83c28:	910043e0 	add	x0, sp, #0x10
   83c2c:	aa0003e2 	mov	x2, x0
   83c30:	f9401be1 	ldr	x1, [sp, #48]
   83c34:	f9401fe0 	ldr	x0, [sp, #56]
   83c38:	97ffff3a 	bl	83920 <uart_format_print>
   83c3c:	d503201f 	nop
   83c40:	a8c97bfd 	ldp	x29, x30, [sp], #144
   83c44:	d65f03c0 	ret

0000000000083c48 <stimer_getlo>:
   83c48:	d10043ff 	sub	sp, sp, #0x10
   83c4c:	d2860001 	mov	x1, #0x3000                	// #12288
   83c50:	f2bfc001 	movk	x1, #0xfe00, lsl #16
   83c54:	52800080 	mov	w0, #0x4                   	// #4
   83c58:	2a0003e0 	mov	w0, w0
   83c5c:	8b000020 	add	x0, x1, x0
   83c60:	b9400000 	ldr	w0, [x0]
   83c64:	b9000fe0 	str	w0, [sp, #12]
   83c68:	b9400fe0 	ldr	w0, [sp, #12]
   83c6c:	910043ff 	add	sp, sp, #0x10
   83c70:	d65f03c0 	ret

0000000000083c74 <stimer_gethi>:
   83c74:	d10043ff 	sub	sp, sp, #0x10
   83c78:	d2860001 	mov	x1, #0x3000                	// #12288
   83c7c:	f2bfc001 	movk	x1, #0xfe00, lsl #16
   83c80:	52800100 	mov	w0, #0x8                   	// #8
   83c84:	2a0003e0 	mov	w0, w0
   83c88:	8b000020 	add	x0, x1, x0
   83c8c:	b9400000 	ldr	w0, [x0]
   83c90:	b9000fe0 	str	w0, [sp, #12]
   83c94:	b9400fe0 	ldr	w0, [sp, #12]
   83c98:	910043ff 	add	sp, sp, #0x10
   83c9c:	d65f03c0 	ret

0000000000083ca0 <stimer_snooze>:
   83ca0:	a9bf7bfd 	stp	x29, x30, [sp, #-16]!
   83ca4:	910003fd 	mov	x29, sp
   83ca8:	97ffffe8 	bl	83c48 <stimer_getlo>
   83cac:	2a0003e1 	mov	w1, w0
   83cb0:	52827100 	mov	w0, #0x1388                	// #5000
   83cb4:	0b000021 	add	w1, w1, w0
   83cb8:	b0000020 	adrp	x0, 88000 <UART_CR_RTSEN>
   83cbc:	91082000 	add	x0, x0, #0x208
   83cc0:	b9000001 	str	w1, [x0]
   83cc4:	d503201f 	nop
   83cc8:	a8c17bfd 	ldp	x29, x30, [sp], #16
   83ccc:	d65f03c0 	ret

0000000000083cd0 <stimer_wake>:
   83cd0:	a9be7bfd 	stp	x29, x30, [sp, #-32]!
   83cd4:	910003fd 	mov	x29, sp
   83cd8:	f9000bf3 	str	x19, [sp, #16]
   83cdc:	d503201f 	nop
   83ce0:	b0000020 	adrp	x0, 88000 <UART_CR_RTSEN>
   83ce4:	91082000 	add	x0, x0, #0x208
   83ce8:	b9400013 	ldr	w19, [x0]
   83cec:	97ffffd7 	bl	83c48 <stimer_getlo>
   83cf0:	4b000260 	sub	w0, w19, w0
   83cf4:	7100001f 	cmp	w0, #0x0
   83cf8:	54ffff4c 	b.gt	83ce0 <stimer_wake+0x10>
   83cfc:	d503201f 	nop
   83d00:	f9400bf3 	ldr	x19, [sp, #16]
   83d04:	a8c27bfd 	ldp	x29, x30, [sp], #32
   83d08:	d65f03c0 	ret

0000000000083d0c <scrSchedule>:
   83d0c:	d10103ff 	sub	sp, sp, #0x40
   83d10:	b9000fe0 	str	w0, [sp, #12]
   83d14:	b9000be1 	str	w1, [sp, #8]
   83d18:	b90007e2 	str	w2, [sp, #4]
   83d1c:	b9400fe0 	ldr	w0, [sp, #12]
   83d20:	b9002be0 	str	w0, [sp, #40]
   83d24:	b9400be0 	ldr	w0, [sp, #8]
   83d28:	b9002fe0 	str	w0, [sp, #44]
   83d2c:	b94007e0 	ldr	w0, [sp, #4]
   83d30:	b90033e0 	str	w0, [sp, #48]
   83d34:	b9003fff 	str	wzr, [sp, #60]
   83d38:	b9003bff 	str	wzr, [sp, #56]
   83d3c:	1400004f 	b	83e78 <scrSchedule+0x16c>
   83d40:	90000080 	adrp	x0, 93000 <PROCS+0xadd8>
   83d44:	91202002 	add	x2, x0, #0x808
   83d48:	b9803be1 	ldrsw	x1, [sp, #56]
   83d4c:	aa0103e0 	mov	x0, x1
   83d50:	d37ff800 	lsl	x0, x0, #1
   83d54:	8b010000 	add	x0, x0, x1
   83d58:	d37ef400 	lsl	x0, x0, #2
   83d5c:	8b000040 	add	x0, x2, x0
   83d60:	b9400000 	ldr	w0, [x0]
   83d64:	7100001f 	cmp	w0, #0x0
   83d68:	54000201 	b.ne	83da8 <scrSchedule+0x9c>  // b.any
   83d6c:	90000080 	adrp	x0, 93000 <PROCS+0xadd8>
   83d70:	91202002 	add	x2, x0, #0x808
   83d74:	b9803be1 	ldrsw	x1, [sp, #56]
   83d78:	aa0103e0 	mov	x0, x1
   83d7c:	d37ff800 	lsl	x0, x0, #1
   83d80:	8b010000 	add	x0, x0, x1
   83d84:	d37ef400 	lsl	x0, x0, #2
   83d88:	8b000040 	add	x0, x2, x0
   83d8c:	b9402be1 	ldr	w1, [sp, #40]
   83d90:	b9000001 	str	w1, [x0]
   83d94:	b9402fe1 	ldr	w1, [sp, #44]
   83d98:	b9000401 	str	w1, [x0, #4]
   83d9c:	b94033e1 	ldr	w1, [sp, #48]
   83da0:	b9000801 	str	w1, [x0, #8]
   83da4:	14000039 	b	83e88 <scrSchedule+0x17c>
   83da8:	90000080 	adrp	x0, 93000 <PROCS+0xadd8>
   83dac:	91202002 	add	x2, x0, #0x808
   83db0:	b9803be1 	ldrsw	x1, [sp, #56]
   83db4:	aa0103e0 	mov	x0, x1
   83db8:	d37ff800 	lsl	x0, x0, #1
   83dbc:	8b010000 	add	x0, x0, x1
   83dc0:	d37ef400 	lsl	x0, x0, #2
   83dc4:	8b000040 	add	x0, x2, x0
   83dc8:	b9400400 	ldr	w0, [x0, #4]
   83dcc:	b9400be1 	ldr	w1, [sp, #8]
   83dd0:	6b00003f 	cmp	w1, w0
   83dd4:	5400006d 	b.le	83de0 <scrSchedule+0xd4>
   83dd8:	52800020 	mov	w0, #0x1                   	// #1
   83ddc:	b9003fe0 	str	w0, [sp, #60]
   83de0:	b9403fe0 	ldr	w0, [sp, #60]
   83de4:	7100001f 	cmp	w0, #0x0
   83de8:	54000420 	b.eq	83e6c <scrSchedule+0x160>  // b.none
   83dec:	90000080 	adrp	x0, 93000 <PROCS+0xadd8>
   83df0:	91202002 	add	x2, x0, #0x808
   83df4:	b9803be1 	ldrsw	x1, [sp, #56]
   83df8:	aa0103e0 	mov	x0, x1
   83dfc:	d37ff800 	lsl	x0, x0, #1
   83e00:	8b010000 	add	x0, x0, x1
   83e04:	d37ef400 	lsl	x0, x0, #2
   83e08:	8b000040 	add	x0, x2, x0
   83e0c:	b9400001 	ldr	w1, [x0]
   83e10:	b9001be1 	str	w1, [sp, #24]
   83e14:	b9400401 	ldr	w1, [x0, #4]
   83e18:	b9001fe1 	str	w1, [sp, #28]
   83e1c:	b9400800 	ldr	w0, [x0, #8]
   83e20:	b90023e0 	str	w0, [sp, #32]
   83e24:	90000080 	adrp	x0, 93000 <PROCS+0xadd8>
   83e28:	91202002 	add	x2, x0, #0x808
   83e2c:	b9803be1 	ldrsw	x1, [sp, #56]
   83e30:	aa0103e0 	mov	x0, x1
   83e34:	d37ff800 	lsl	x0, x0, #1
   83e38:	8b010000 	add	x0, x0, x1
   83e3c:	d37ef400 	lsl	x0, x0, #2
   83e40:	8b000040 	add	x0, x2, x0
   83e44:	b9402be1 	ldr	w1, [sp, #40]
   83e48:	b9000001 	str	w1, [x0]
   83e4c:	b9402fe1 	ldr	w1, [sp, #44]
   83e50:	b9000401 	str	w1, [x0, #4]
   83e54:	b94033e1 	ldr	w1, [sp, #48]
   83e58:	b9000801 	str	w1, [x0, #8]
   83e5c:	f9400fe0 	ldr	x0, [sp, #24]
   83e60:	f90017e0 	str	x0, [sp, #40]
   83e64:	b94023e0 	ldr	w0, [sp, #32]
   83e68:	b90033e0 	str	w0, [sp, #48]
   83e6c:	b9403be0 	ldr	w0, [sp, #56]
   83e70:	11000400 	add	w0, w0, #0x1
   83e74:	b9003be0 	str	w0, [sp, #56]
   83e78:	b9403be0 	ldr	w0, [sp, #56]
   83e7c:	71004c1f 	cmp	w0, #0x13
   83e80:	54fff60d 	b.le	83d40 <scrSchedule+0x34>
   83e84:	d503201f 	nop
   83e88:	910103ff 	add	sp, sp, #0x40
   83e8c:	d65f03c0 	ret

0000000000083e90 <queue_unblock>:
   83e90:	d10103ff 	sub	sp, sp, #0x40
   83e94:	b9000fe0 	str	w0, [sp, #12]
   83e98:	b9000be1 	str	w1, [sp, #8]
   83e9c:	b90007e2 	str	w2, [sp, #4]
   83ea0:	b9400fe0 	ldr	w0, [sp, #12]
   83ea4:	b9002be0 	str	w0, [sp, #40]
   83ea8:	b9400be0 	ldr	w0, [sp, #8]
   83eac:	b9002fe0 	str	w0, [sp, #44]
   83eb0:	b94007e0 	ldr	w0, [sp, #4]
   83eb4:	b90033e0 	str	w0, [sp, #48]
   83eb8:	b9003bff 	str	wzr, [sp, #56]
   83ebc:	b9003fff 	str	wzr, [sp, #60]
   83ec0:	14000031 	b	83f84 <queue_unblock+0xf4>
   83ec4:	90000080 	adrp	x0, 93000 <PROCS+0xadd8>
   83ec8:	91202002 	add	x2, x0, #0x808
   83ecc:	b9803fe1 	ldrsw	x1, [sp, #60]
   83ed0:	aa0103e0 	mov	x0, x1
   83ed4:	d37ff800 	lsl	x0, x0, #1
   83ed8:	8b010000 	add	x0, x0, x1
   83edc:	d37ef400 	lsl	x0, x0, #2
   83ee0:	8b000040 	add	x0, x2, x0
   83ee4:	b9400000 	ldr	w0, [x0]
   83ee8:	7100001f 	cmp	w0, #0x0
   83eec:	54000540 	b.eq	83f94 <queue_unblock+0x104>  // b.none
   83ef0:	90000080 	adrp	x0, 93000 <PROCS+0xadd8>
   83ef4:	91202002 	add	x2, x0, #0x808
   83ef8:	b9803fe1 	ldrsw	x1, [sp, #60]
   83efc:	aa0103e0 	mov	x0, x1
   83f00:	d37ff800 	lsl	x0, x0, #1
   83f04:	8b010000 	add	x0, x0, x1
   83f08:	d37ef400 	lsl	x0, x0, #2
   83f0c:	8b000040 	add	x0, x2, x0
   83f10:	b9400400 	ldr	w0, [x0, #4]
   83f14:	b9400be1 	ldr	w1, [sp, #8]
   83f18:	6b00003f 	cmp	w1, w0
   83f1c:	540002e1 	b.ne	83f78 <queue_unblock+0xe8>  // b.any
   83f20:	90000080 	adrp	x0, 93000 <PROCS+0xadd8>
   83f24:	91202002 	add	x2, x0, #0x808
   83f28:	b9803fe1 	ldrsw	x1, [sp, #60]
   83f2c:	aa0103e0 	mov	x0, x1
   83f30:	d37ff800 	lsl	x0, x0, #1
   83f34:	8b010000 	add	x0, x0, x1
   83f38:	d37ef400 	lsl	x0, x0, #2
   83f3c:	8b000040 	add	x0, x2, x0
   83f40:	b9400000 	ldr	w0, [x0]
   83f44:	b9400fe1 	ldr	w1, [sp, #12]
   83f48:	6b00003f 	cmp	w1, w0
   83f4c:	54000161 	b.ne	83f78 <queue_unblock+0xe8>  // b.any
   83f50:	90000080 	adrp	x0, 93000 <PROCS+0xadd8>
   83f54:	91202002 	add	x2, x0, #0x808
   83f58:	b9803fe1 	ldrsw	x1, [sp, #60]
   83f5c:	aa0103e0 	mov	x0, x1
   83f60:	d37ff800 	lsl	x0, x0, #1
   83f64:	8b010000 	add	x0, x0, x1
   83f68:	d37ef400 	lsl	x0, x0, #2
   83f6c:	8b000040 	add	x0, x2, x0
   83f70:	b94007e1 	ldr	w1, [sp, #4]
   83f74:	b9000801 	str	w1, [x0, #8]
   83f78:	b9403fe0 	ldr	w0, [sp, #60]
   83f7c:	11000400 	add	w0, w0, #0x1
   83f80:	b9003fe0 	str	w0, [sp, #60]
   83f84:	b9403fe0 	ldr	w0, [sp, #60]
   83f88:	71004c1f 	cmp	w0, #0x13
   83f8c:	54fff9cd 	b.le	83ec4 <queue_unblock+0x34>
   83f90:	14000002 	b	83f98 <queue_unblock+0x108>
   83f94:	d503201f 	nop
   83f98:	910103ff 	add	sp, sp, #0x40
   83f9c:	d65f03c0 	ret

0000000000083fa0 <scrPick>:
   83fa0:	d10083ff 	sub	sp, sp, #0x20
   83fa4:	12800000 	mov	w0, #0xffffffff            	// #-1
   83fa8:	b9001fe0 	str	w0, [sp, #28]
   83fac:	b9001bff 	str	wzr, [sp, #24]
   83fb0:	b9000bff 	str	wzr, [sp, #8]
   83fb4:	b9000fff 	str	wzr, [sp, #12]
   83fb8:	b90013ff 	str	wzr, [sp, #16]
   83fbc:	b90017ff 	str	wzr, [sp, #20]
   83fc0:	14000042 	b	840c8 <scrPick+0x128>
   83fc4:	b9401be0 	ldr	w0, [sp, #24]
   83fc8:	7100001f 	cmp	w0, #0x0
   83fcc:	54000340 	b.eq	84034 <scrPick+0x94>  // b.none
   83fd0:	b94017e0 	ldr	w0, [sp, #20]
   83fd4:	51000401 	sub	w1, w0, #0x1
   83fd8:	90000080 	adrp	x0, 93000 <PROCS+0xadd8>
   83fdc:	91202002 	add	x2, x0, #0x808
   83fe0:	93407c21 	sxtw	x1, w1
   83fe4:	aa0103e0 	mov	x0, x1
   83fe8:	d37ff800 	lsl	x0, x0, #1
   83fec:	8b010000 	add	x0, x0, x1
   83ff0:	d37ef400 	lsl	x0, x0, #2
   83ff4:	8b000041 	add	x1, x2, x0
   83ff8:	90000080 	adrp	x0, 93000 <PROCS+0xadd8>
   83ffc:	91202003 	add	x3, x0, #0x808
   84000:	b98017e2 	ldrsw	x2, [sp, #20]
   84004:	aa0203e0 	mov	x0, x2
   84008:	d37ff800 	lsl	x0, x0, #1
   8400c:	8b020000 	add	x0, x0, x2
   84010:	d37ef400 	lsl	x0, x0, #2
   84014:	8b000060 	add	x0, x3, x0
   84018:	b9400002 	ldr	w2, [x0]
   8401c:	b9000022 	str	w2, [x1]
   84020:	b9400402 	ldr	w2, [x0, #4]
   84024:	b9000422 	str	w2, [x1, #4]
   84028:	b9400800 	ldr	w0, [x0, #8]
   8402c:	b9000820 	str	w0, [x1, #8]
   84030:	14000023 	b	840bc <scrPick+0x11c>
   84034:	f0000060 	adrp	x0, 93000 <PROCS+0xadd8>
   84038:	91202002 	add	x2, x0, #0x808
   8403c:	b98017e1 	ldrsw	x1, [sp, #20]
   84040:	aa0103e0 	mov	x0, x1
   84044:	d37ff800 	lsl	x0, x0, #1
   84048:	8b010000 	add	x0, x0, x1
   8404c:	d37ef400 	lsl	x0, x0, #2
   84050:	8b000040 	add	x0, x2, x0
   84054:	b9400000 	ldr	w0, [x0]
   84058:	7100001f 	cmp	w0, #0x0
   8405c:	5400030d 	b.le	840bc <scrPick+0x11c>
   84060:	f0000060 	adrp	x0, 93000 <PROCS+0xadd8>
   84064:	91202002 	add	x2, x0, #0x808
   84068:	b98017e1 	ldrsw	x1, [sp, #20]
   8406c:	aa0103e0 	mov	x0, x1
   84070:	d37ff800 	lsl	x0, x0, #1
   84074:	8b010000 	add	x0, x0, x1
   84078:	d37ef400 	lsl	x0, x0, #2
   8407c:	8b000040 	add	x0, x2, x0
   84080:	b9400800 	ldr	w0, [x0, #8]
   84084:	7100001f 	cmp	w0, #0x0
   84088:	540001a1 	b.ne	840bc <scrPick+0x11c>  // b.any
   8408c:	f0000060 	adrp	x0, 93000 <PROCS+0xadd8>
   84090:	91202002 	add	x2, x0, #0x808
   84094:	b98017e1 	ldrsw	x1, [sp, #20]
   84098:	aa0103e0 	mov	x0, x1
   8409c:	d37ff800 	lsl	x0, x0, #1
   840a0:	8b010000 	add	x0, x0, x1
   840a4:	d37ef400 	lsl	x0, x0, #2
   840a8:	8b000040 	add	x0, x2, x0
   840ac:	b9400000 	ldr	w0, [x0]
   840b0:	b9001fe0 	str	w0, [sp, #28]
   840b4:	52800020 	mov	w0, #0x1                   	// #1
   840b8:	b9001be0 	str	w0, [sp, #24]
   840bc:	b94017e0 	ldr	w0, [sp, #20]
   840c0:	11000400 	add	w0, w0, #0x1
   840c4:	b90017e0 	str	w0, [sp, #20]
   840c8:	b94017e0 	ldr	w0, [sp, #20]
   840cc:	71004c1f 	cmp	w0, #0x13
   840d0:	54fff7ad 	b.le	83fc4 <scrPick+0x24>
   840d4:	b9401be0 	ldr	w0, [sp, #24]
   840d8:	7100001f 	cmp	w0, #0x0
   840dc:	54000140 	b.eq	84104 <scrPick+0x164>  // b.none
   840e0:	f0000060 	adrp	x0, 93000 <PROCS+0xadd8>
   840e4:	91202000 	add	x0, x0, #0x808
   840e8:	91039000 	add	x0, x0, #0xe4
   840ec:	b9400be1 	ldr	w1, [sp, #8]
   840f0:	b9000001 	str	w1, [x0]
   840f4:	b9400fe1 	ldr	w1, [sp, #12]
   840f8:	b9000401 	str	w1, [x0, #4]
   840fc:	b94013e1 	ldr	w1, [sp, #16]
   84100:	b9000801 	str	w1, [x0, #8]
   84104:	b9401fe0 	ldr	w0, [sp, #28]
   84108:	910083ff 	add	sp, sp, #0x20
   8410c:	d65f03c0 	ret

0000000000084110 <InitSys>:
   84110:	d10083ff 	sub	sp, sp, #0x20
   84114:	f90007e0 	str	x0, [sp, #8]
   84118:	90000020 	adrp	x0, 88000 <UART_CR_RTSEN>
   8411c:	91086000 	add	x0, x0, #0x218
   84120:	f94007e1 	ldr	x1, [sp, #8]
   84124:	f9000001 	str	x1, [x0]
   84128:	90000020 	adrp	x0, 88000 <UART_CR_RTSEN>
   8412c:	91088000 	add	x0, x0, #0x220
   84130:	b900001f 	str	wzr, [x0]
   84134:	b9001fff 	str	wzr, [sp, #28]
   84138:	14000056 	b	84290 <InitSys+0x180>
   8413c:	90000020 	adrp	x0, 88000 <UART_CR_RTSEN>
   84140:	9108a001 	add	x1, x0, #0x228
   84144:	b9801fe2 	ldrsw	x2, [sp, #28]
   84148:	d2812300 	mov	x0, #0x918                 	// #2328
   8414c:	9b007c40 	mul	x0, x2, x0
   84150:	8b000020 	add	x0, x1, x0
   84154:	f900001f 	str	xzr, [x0]
   84158:	90000020 	adrp	x0, 88000 <UART_CR_RTSEN>
   8415c:	9108a001 	add	x1, x0, #0x228
   84160:	b9801fe2 	ldrsw	x2, [sp, #28]
   84164:	d2812300 	mov	x0, #0x918                 	// #2328
   84168:	9b007c40 	mul	x0, x2, x0
   8416c:	8b000020 	add	x0, x1, x0
   84170:	f900041f 	str	xzr, [x0, #8]
   84174:	90000020 	adrp	x0, 88000 <UART_CR_RTSEN>
   84178:	9108a001 	add	x1, x0, #0x228
   8417c:	b9801fe2 	ldrsw	x2, [sp, #28]
   84180:	d2812300 	mov	x0, #0x918                 	// #2328
   84184:	9b007c40 	mul	x0, x2, x0
   84188:	8b000020 	add	x0, x1, x0
   8418c:	b900101f 	str	wzr, [x0, #16]
   84190:	90000020 	adrp	x0, 88000 <UART_CR_RTSEN>
   84194:	9108a001 	add	x1, x0, #0x228
   84198:	b9801fe2 	ldrsw	x2, [sp, #28]
   8419c:	d2812300 	mov	x0, #0x918                 	// #2328
   841a0:	9b007c40 	mul	x0, x2, x0
   841a4:	8b000020 	add	x0, x1, x0
   841a8:	b900141f 	str	wzr, [x0, #20]
   841ac:	90000020 	adrp	x0, 88000 <UART_CR_RTSEN>
   841b0:	9108a001 	add	x1, x0, #0x228
   841b4:	b9801fe2 	ldrsw	x2, [sp, #28]
   841b8:	d2812300 	mov	x0, #0x918                 	// #2328
   841bc:	9b007c40 	mul	x0, x2, x0
   841c0:	8b000020 	add	x0, x1, x0
   841c4:	b9001c1f 	str	wzr, [x0, #28]
   841c8:	b9001bff 	str	wzr, [sp, #24]
   841cc:	14000010 	b	8420c <InitSys+0xfc>
   841d0:	b9401be0 	ldr	w0, [sp, #24]
   841d4:	11002800 	add	w0, w0, #0xa
   841d8:	93407c02 	sxtw	x2, w0
   841dc:	90000020 	adrp	x0, 88000 <UART_CR_RTSEN>
   841e0:	9108a000 	add	x0, x0, #0x228
   841e4:	b9801be1 	ldrsw	x1, [sp, #24]
   841e8:	b9801fe4 	ldrsw	x4, [sp, #28]
   841ec:	d2802463 	mov	x3, #0x123                 	// #291
   841f0:	9b037c83 	mul	x3, x4, x3
   841f4:	8b010061 	add	x1, x3, x1
   841f8:	91001021 	add	x1, x1, #0x4
   841fc:	f8217802 	str	x2, [x0, x1, lsl #3]
   84200:	b9401be0 	ldr	w0, [sp, #24]
   84204:	11000400 	add	w0, w0, #0x1
   84208:	b9001be0 	str	w0, [sp, #24]
   8420c:	b9401be0 	ldr	w0, [sp, #24]
   84210:	7100781f 	cmp	w0, #0x1e
   84214:	54fffded 	b.le	841d0 <InitSys+0xc0>
   84218:	f0000060 	adrp	x0, 93000 <PROCS+0xadd8>
   8421c:	91202002 	add	x2, x0, #0x808
   84220:	b9801fe1 	ldrsw	x1, [sp, #28]
   84224:	aa0103e0 	mov	x0, x1
   84228:	d37ff800 	lsl	x0, x0, #1
   8422c:	8b010000 	add	x0, x0, x1
   84230:	d37ef400 	lsl	x0, x0, #2
   84234:	8b000040 	add	x0, x2, x0
   84238:	b900001f 	str	wzr, [x0]
   8423c:	f0000060 	adrp	x0, 93000 <PROCS+0xadd8>
   84240:	91202002 	add	x2, x0, #0x808
   84244:	b9801fe1 	ldrsw	x1, [sp, #28]
   84248:	aa0103e0 	mov	x0, x1
   8424c:	d37ff800 	lsl	x0, x0, #1
   84250:	8b010000 	add	x0, x0, x1
   84254:	d37ef400 	lsl	x0, x0, #2
   84258:	8b000040 	add	x0, x2, x0
   8425c:	b900081f 	str	wzr, [x0, #8]
   84260:	f0000060 	adrp	x0, 93000 <PROCS+0xadd8>
   84264:	91202002 	add	x2, x0, #0x808
   84268:	b9801fe1 	ldrsw	x1, [sp, #28]
   8426c:	aa0103e0 	mov	x0, x1
   84270:	d37ff800 	lsl	x0, x0, #1
   84274:	8b010000 	add	x0, x0, x1
   84278:	d37ef400 	lsl	x0, x0, #2
   8427c:	8b000040 	add	x0, x2, x0
   84280:	b900041f 	str	wzr, [x0, #4]
   84284:	b9401fe0 	ldr	w0, [sp, #28]
   84288:	11000400 	add	w0, w0, #0x1
   8428c:	b9001fe0 	str	w0, [sp, #28]
   84290:	b9401fe0 	ldr	w0, [sp, #28]
   84294:	71004c1f 	cmp	w0, #0x13
   84298:	54fff52d 	b.le	8413c <InitSys+0x2c>
   8429c:	d503201f 	nop
   842a0:	910083ff 	add	sp, sp, #0x20
   842a4:	d65f03c0 	ret

00000000000842a8 <Handle>:
   842a8:	a9bd7bfd 	stp	x29, x30, [sp, #-48]!
   842ac:	910003fd 	mov	x29, sp
   842b0:	f9000fe0 	str	x0, [sp, #24]
   842b4:	90000020 	adrp	x0, 88000 <UART_CR_RTSEN>
   842b8:	91088000 	add	x0, x0, #0x220
   842bc:	b9400000 	ldr	w0, [x0]
   842c0:	51000400 	sub	w0, w0, #0x1
   842c4:	b9002fe0 	str	w0, [sp, #44]
   842c8:	b9802fe1 	ldrsw	x1, [sp, #44]
   842cc:	d2812300 	mov	x0, #0x918                 	// #2328
   842d0:	9b007c20 	mul	x0, x1, x0
   842d4:	91008001 	add	x1, x0, #0x20
   842d8:	90000020 	adrp	x0, 88000 <UART_CR_RTSEN>
   842dc:	9108a000 	add	x0, x0, #0x228
   842e0:	8b000025 	add	x5, x1, x0
   842e4:	b9802fe1 	ldrsw	x1, [sp, #44]
   842e8:	d2812300 	mov	x0, #0x918                 	// #2328
   842ec:	9b007c21 	mul	x1, x1, x0
   842f0:	90000020 	adrp	x0, 88000 <UART_CR_RTSEN>
   842f4:	9108a000 	add	x0, x0, #0x228
   842f8:	8b000020 	add	x0, x1, x0
   842fc:	91002002 	add	x2, x0, #0x8
   84300:	b9802fe1 	ldrsw	x1, [sp, #44]
   84304:	d2812300 	mov	x0, #0x918                 	// #2328
   84308:	9b007c21 	mul	x1, x1, x0
   8430c:	90000020 	adrp	x0, 88000 <UART_CR_RTSEN>
   84310:	9108a000 	add	x0, x0, #0x228
   84314:	8b000023 	add	x3, x1, x0
   84318:	b9802fe1 	ldrsw	x1, [sp, #44]
   8431c:	d2812300 	mov	x0, #0x918                 	// #2328
   84320:	9b007c20 	mul	x0, x1, x0
   84324:	91004001 	add	x1, x0, #0x10
   84328:	90000020 	adrp	x0, 88000 <UART_CR_RTSEN>
   8432c:	9108a000 	add	x0, x0, #0x228
   84330:	8b000020 	add	x0, x1, x0
   84334:	aa0003e4 	mov	x4, x0
   84338:	aa0503e1 	mov	x1, x5
   8433c:	f9400fe0 	ldr	x0, [sp, #24]
   84340:	940009a2 	bl	869c8 <Save>
   84344:	d503201f 	nop
   84348:	a8c37bfd 	ldp	x29, x30, [sp], #48
   8434c:	d65f03c0 	ret

0000000000084350 <dead>:
   84350:	d10043ff 	sub	sp, sp, #0x10
   84354:	39003fe0 	strb	w0, [sp, #15]
   84358:	39c03fe2 	ldrsb	w2, [sp, #15]
   8435c:	90000020 	adrp	x0, 88000 <UART_CR_RTSEN>
   84360:	9108a001 	add	x1, x0, #0x228
   84364:	93407c42 	sxtw	x2, w2
   84368:	d2812300 	mov	x0, #0x918                 	// #2328
   8436c:	9b007c40 	mul	x0, x2, x0
   84370:	8b000020 	add	x0, x1, x0
   84374:	f9400000 	ldr	x0, [x0]
   84378:	f100001f 	cmp	x0, #0x0
   8437c:	540001a1 	b.ne	843b0 <dead+0x60>  // b.any
   84380:	39c03fe2 	ldrsb	w2, [sp, #15]
   84384:	90000020 	adrp	x0, 88000 <UART_CR_RTSEN>
   84388:	9108a001 	add	x1, x0, #0x228
   8438c:	93407c42 	sxtw	x2, w2
   84390:	d2812300 	mov	x0, #0x918                 	// #2328
   84394:	9b007c40 	mul	x0, x2, x0
   84398:	8b000020 	add	x0, x1, x0
   8439c:	f9400400 	ldr	x0, [x0, #8]
   843a0:	f100001f 	cmp	x0, #0x0
   843a4:	54000061 	b.ne	843b0 <dead+0x60>  // b.any
   843a8:	52800020 	mov	w0, #0x1                   	// #1
   843ac:	14000002 	b	843b4 <dead+0x64>
   843b0:	52800000 	mov	w0, #0x0                   	// #0
   843b4:	13001c00 	sxtb	w0, w0
   843b8:	910043ff 	add	sp, sp, #0x10
   843bc:	d65f03c0 	ret

00000000000843c0 <send_helper>:
   843c0:	a9bc7bfd 	stp	x29, x30, [sp, #-64]!
   843c4:	910003fd 	mov	x29, sp
   843c8:	90000020 	adrp	x0, 88000 <UART_CR_RTSEN>
   843cc:	91088000 	add	x0, x0, #0x220
   843d0:	b9400000 	ldr	w0, [x0]
   843d4:	51000400 	sub	w0, w0, #0x1
   843d8:	b9003fe0 	str	w0, [sp, #60]
   843dc:	90000020 	adrp	x0, 88000 <UART_CR_RTSEN>
   843e0:	9108a001 	add	x1, x0, #0x228
   843e4:	b9803fe2 	ldrsw	x2, [sp, #60]
   843e8:	d2812300 	mov	x0, #0x918                 	// #2328
   843ec:	9b007c40 	mul	x0, x2, x0
   843f0:	8b000020 	add	x0, x1, x0
   843f4:	f9401000 	ldr	x0, [x0, #32]
   843f8:	b9003be0 	str	w0, [sp, #56]
   843fc:	90000020 	adrp	x0, 88000 <UART_CR_RTSEN>
   84400:	9108a001 	add	x1, x0, #0x228
   84404:	b9803fe2 	ldrsw	x2, [sp, #60]
   84408:	d2812300 	mov	x0, #0x918                 	// #2328
   8440c:	9b007c40 	mul	x0, x2, x0
   84410:	8b000020 	add	x0, x1, x0
   84414:	f9401400 	ldr	x0, [x0, #40]
   84418:	f9001be0 	str	x0, [sp, #48]
   8441c:	90000020 	adrp	x0, 88000 <UART_CR_RTSEN>
   84420:	9108a001 	add	x1, x0, #0x228
   84424:	b9803fe2 	ldrsw	x2, [sp, #60]
   84428:	d2812300 	mov	x0, #0x918                 	// #2328
   8442c:	9b007c40 	mul	x0, x2, x0
   84430:	8b000020 	add	x0, x1, x0
   84434:	f9401800 	ldr	x0, [x0, #48]
   84438:	b9002fe0 	str	w0, [sp, #44]
   8443c:	90000020 	adrp	x0, 88000 <UART_CR_RTSEN>
   84440:	9108a001 	add	x1, x0, #0x228
   84444:	b9803fe2 	ldrsw	x2, [sp, #60]
   84448:	d2812300 	mov	x0, #0x918                 	// #2328
   8444c:	9b007c40 	mul	x0, x2, x0
   84450:	8b000020 	add	x0, x1, x0
   84454:	f9401c00 	ldr	x0, [x0, #56]
   84458:	f90013e0 	str	x0, [sp, #32]
   8445c:	90000020 	adrp	x0, 88000 <UART_CR_RTSEN>
   84460:	9108a001 	add	x1, x0, #0x228
   84464:	b9803fe2 	ldrsw	x2, [sp, #60]
   84468:	d2812300 	mov	x0, #0x918                 	// #2328
   8446c:	9b007c40 	mul	x0, x2, x0
   84470:	8b000020 	add	x0, x1, x0
   84474:	f9402000 	ldr	x0, [x0, #64]
   84478:	b9001fe0 	str	w0, [sp, #28]
   8447c:	90000020 	adrp	x0, 88000 <UART_CR_RTSEN>
   84480:	9108a001 	add	x1, x0, #0x228
   84484:	b9803fe2 	ldrsw	x2, [sp, #60]
   84488:	d2812300 	mov	x0, #0x918                 	// #2328
   8448c:	9b007c40 	mul	x0, x2, x0
   84490:	8b000020 	add	x0, x1, x0
   84494:	b9403be1 	ldr	w1, [sp, #56]
   84498:	b9011801 	str	w1, [x0, #280]
   8449c:	90000020 	adrp	x0, 88000 <UART_CR_RTSEN>
   844a0:	9108a001 	add	x1, x0, #0x228
   844a4:	b9803fe2 	ldrsw	x2, [sp, #60]
   844a8:	d2812300 	mov	x0, #0x918                 	// #2328
   844ac:	9b007c40 	mul	x0, x2, x0
   844b0:	8b000020 	add	x0, x1, x0
   844b4:	f9401be1 	ldr	x1, [sp, #48]
   844b8:	f9009001 	str	x1, [x0, #288]
   844bc:	90000020 	adrp	x0, 88000 <UART_CR_RTSEN>
   844c0:	9108a001 	add	x1, x0, #0x228
   844c4:	b9803fe2 	ldrsw	x2, [sp, #60]
   844c8:	d2812300 	mov	x0, #0x918                 	// #2328
   844cc:	9b007c40 	mul	x0, x2, x0
   844d0:	8b000020 	add	x0, x1, x0
   844d4:	b9402fe1 	ldr	w1, [sp, #44]
   844d8:	b9012801 	str	w1, [x0, #296]
   844dc:	90000020 	adrp	x0, 88000 <UART_CR_RTSEN>
   844e0:	9108a001 	add	x1, x0, #0x228
   844e4:	b9803fe2 	ldrsw	x2, [sp, #60]
   844e8:	d2812300 	mov	x0, #0x918                 	// #2328
   844ec:	9b007c40 	mul	x0, x2, x0
   844f0:	8b000020 	add	x0, x1, x0
   844f4:	f94013e1 	ldr	x1, [sp, #32]
   844f8:	f9009801 	str	x1, [x0, #304]
   844fc:	90000020 	adrp	x0, 88000 <UART_CR_RTSEN>
   84500:	9108a001 	add	x1, x0, #0x228
   84504:	b9803fe2 	ldrsw	x2, [sp, #60]
   84508:	d2812300 	mov	x0, #0x918                 	// #2328
   8450c:	9b007c40 	mul	x0, x2, x0
   84510:	8b000020 	add	x0, x1, x0
   84514:	b9401fe1 	ldr	w1, [sp, #28]
   84518:	b9013801 	str	w1, [x0, #312]
   8451c:	90000020 	adrp	x0, 88000 <UART_CR_RTSEN>
   84520:	9108a001 	add	x1, x0, #0x228
   84524:	b9803fe2 	ldrsw	x2, [sp, #60]
   84528:	d2812300 	mov	x0, #0x918                 	// #2328
   8452c:	9b007c40 	mul	x0, x2, x0
   84530:	8b000020 	add	x0, x1, x0
   84534:	52800021 	mov	w1, #0x1                   	// #1
   84538:	39244801 	strb	w1, [x0, #2322]
   8453c:	b9403be0 	ldr	w0, [sp, #56]
   84540:	51000400 	sub	w0, w0, #0x1
   84544:	b9003fe0 	str	w0, [sp, #60]
   84548:	90000020 	adrp	x0, 88000 <UART_CR_RTSEN>
   8454c:	9108a001 	add	x1, x0, #0x228
   84550:	b9803fe2 	ldrsw	x2, [sp, #60]
   84554:	d2812300 	mov	x0, #0x918                 	// #2328
   84558:	9b007c40 	mul	x0, x2, x0
   8455c:	8b000020 	add	x0, x1, x0
   84560:	39644400 	ldrb	w0, [x0, #2321]
   84564:	b9001be0 	str	w0, [sp, #24]
   84568:	90000020 	adrp	x0, 88000 <UART_CR_RTSEN>
   8456c:	91088000 	add	x0, x0, #0x220
   84570:	b9400002 	ldr	w2, [x0]
   84574:	90000020 	adrp	x0, 88000 <UART_CR_RTSEN>
   84578:	9108a003 	add	x3, x0, #0x228
   8457c:	b9801be1 	ldrsw	x1, [sp, #24]
   84580:	b9803fe4 	ldrsw	x4, [sp, #60]
   84584:	aa0103e0 	mov	x0, x1
   84588:	d37ef400 	lsl	x0, x0, #2
   8458c:	8b010000 	add	x0, x0, x1
   84590:	d37df000 	lsl	x0, x0, #3
   84594:	d2812301 	mov	x1, #0x918                 	// #2328
   84598:	9b017c81 	mul	x1, x4, x1
   8459c:	8b010000 	add	x0, x0, x1
   845a0:	8b000060 	add	x0, x3, x0
   845a4:	b9014002 	str	w2, [x0, #320]
   845a8:	90000020 	adrp	x0, 88000 <UART_CR_RTSEN>
   845ac:	9108a002 	add	x2, x0, #0x228
   845b0:	b9801be1 	ldrsw	x1, [sp, #24]
   845b4:	b9803fe3 	ldrsw	x3, [sp, #60]
   845b8:	aa0103e0 	mov	x0, x1
   845bc:	d37ef400 	lsl	x0, x0, #2
   845c0:	8b010000 	add	x0, x0, x1
   845c4:	d37df000 	lsl	x0, x0, #3
   845c8:	d2812301 	mov	x1, #0x918                 	// #2328
   845cc:	9b017c61 	mul	x1, x3, x1
   845d0:	8b010000 	add	x0, x0, x1
   845d4:	8b000040 	add	x0, x2, x0
   845d8:	f9401be1 	ldr	x1, [sp, #48]
   845dc:	f900a401 	str	x1, [x0, #328]
   845e0:	90000020 	adrp	x0, 88000 <UART_CR_RTSEN>
   845e4:	9108a002 	add	x2, x0, #0x228
   845e8:	b9801be1 	ldrsw	x1, [sp, #24]
   845ec:	b9803fe3 	ldrsw	x3, [sp, #60]
   845f0:	aa0103e0 	mov	x0, x1
   845f4:	d37ef400 	lsl	x0, x0, #2
   845f8:	8b010000 	add	x0, x0, x1
   845fc:	d37df000 	lsl	x0, x0, #3
   84600:	d2812301 	mov	x1, #0x918                 	// #2328
   84604:	9b017c61 	mul	x1, x3, x1
   84608:	8b010000 	add	x0, x0, x1
   8460c:	8b000040 	add	x0, x2, x0
   84610:	b9402fe1 	ldr	w1, [sp, #44]
   84614:	b9015001 	str	w1, [x0, #336]
   84618:	90000020 	adrp	x0, 88000 <UART_CR_RTSEN>
   8461c:	9108a002 	add	x2, x0, #0x228
   84620:	b9801be1 	ldrsw	x1, [sp, #24]
   84624:	b9803fe3 	ldrsw	x3, [sp, #60]
   84628:	aa0103e0 	mov	x0, x1
   8462c:	d37ef400 	lsl	x0, x0, #2
   84630:	8b010000 	add	x0, x0, x1
   84634:	d37df000 	lsl	x0, x0, #3
   84638:	d2812301 	mov	x1, #0x918                 	// #2328
   8463c:	9b017c61 	mul	x1, x3, x1
   84640:	8b010000 	add	x0, x0, x1
   84644:	8b000040 	add	x0, x2, x0
   84648:	f94013e1 	ldr	x1, [sp, #32]
   8464c:	f900ac01 	str	x1, [x0, #344]
   84650:	90000020 	adrp	x0, 88000 <UART_CR_RTSEN>
   84654:	9108a002 	add	x2, x0, #0x228
   84658:	b9801be1 	ldrsw	x1, [sp, #24]
   8465c:	b9803fe3 	ldrsw	x3, [sp, #60]
   84660:	aa0103e0 	mov	x0, x1
   84664:	d37ef400 	lsl	x0, x0, #2
   84668:	8b010000 	add	x0, x0, x1
   8466c:	d37df000 	lsl	x0, x0, #3
   84670:	d2812301 	mov	x1, #0x918                 	// #2328
   84674:	9b017c61 	mul	x1, x3, x1
   84678:	8b010000 	add	x0, x0, x1
   8467c:	8b000040 	add	x0, x2, x0
   84680:	b9401fe1 	ldr	w1, [sp, #28]
   84684:	b9016001 	str	w1, [x0, #352]
   84688:	90000020 	adrp	x0, 88000 <UART_CR_RTSEN>
   8468c:	9108a001 	add	x1, x0, #0x228
   84690:	b9803fe2 	ldrsw	x2, [sp, #60]
   84694:	d2812300 	mov	x0, #0x918                 	// #2328
   84698:	9b007c40 	mul	x0, x2, x0
   8469c:	8b000020 	add	x0, x1, x0
   846a0:	39644400 	ldrb	w0, [x0, #2321]
   846a4:	11000400 	add	w0, w0, #0x1
   846a8:	12001c03 	and	w3, w0, #0xff
   846ac:	90000020 	adrp	x0, 88000 <UART_CR_RTSEN>
   846b0:	9108a001 	add	x1, x0, #0x228
   846b4:	b9803fe2 	ldrsw	x2, [sp, #60]
   846b8:	d2812300 	mov	x0, #0x918                 	// #2328
   846bc:	9b007c40 	mul	x0, x2, x0
   846c0:	8b000020 	add	x0, x1, x0
   846c4:	2a0303e1 	mov	w1, w3
   846c8:	39244401 	strb	w1, [x0, #2321]
   846cc:	90000020 	adrp	x0, 88000 <UART_CR_RTSEN>
   846d0:	9108a001 	add	x1, x0, #0x228
   846d4:	b9803fe2 	ldrsw	x2, [sp, #60]
   846d8:	d2812300 	mov	x0, #0x918                 	// #2328
   846dc:	9b007c40 	mul	x0, x2, x0
   846e0:	8b000020 	add	x0, x1, x0
   846e4:	39644400 	ldrb	w0, [x0, #2321]
   846e8:	5290a3e1 	mov	w1, #0x851f                	// #34079
   846ec:	72aa3d61 	movk	w1, #0x51eb, lsl #16
   846f0:	9ba17c01 	umull	x1, w0, w1
   846f4:	d360fc21 	lsr	x1, x1, #32
   846f8:	53047c22 	lsr	w2, w1, #4
   846fc:	52800641 	mov	w1, #0x32                  	// #50
   84700:	1b017c41 	mul	w1, w2, w1
   84704:	4b010000 	sub	w0, w0, w1
   84708:	12001c03 	and	w3, w0, #0xff
   8470c:	90000020 	adrp	x0, 88000 <UART_CR_RTSEN>
   84710:	9108a001 	add	x1, x0, #0x228
   84714:	b9803fe2 	ldrsw	x2, [sp, #60]
   84718:	d2812300 	mov	x0, #0x918                 	// #2328
   8471c:	9b007c40 	mul	x0, x2, x0
   84720:	8b000020 	add	x0, x1, x0
   84724:	2a0303e1 	mov	w1, w3
   84728:	39244401 	strb	w1, [x0, #2321]
   8472c:	90000020 	adrp	x0, 88000 <UART_CR_RTSEN>
   84730:	9108a001 	add	x1, x0, #0x228
   84734:	b9803fe2 	ldrsw	x2, [sp, #60]
   84738:	d2812300 	mov	x0, #0x918                 	// #2328
   8473c:	9b007c40 	mul	x0, x2, x0
   84740:	8b000020 	add	x0, x1, x0
   84744:	39644c00 	ldrb	w0, [x0, #2323]
   84748:	7100041f 	cmp	w0, #0x1
   8474c:	540000c1 	b.ne	84764 <send_helper+0x3a4>  // b.any
   84750:	b9403be0 	ldr	w0, [sp, #56]
   84754:	51000400 	sub	w0, w0, #0x1
   84758:	b9003fe0 	str	w0, [sp, #60]
   8475c:	b9403be0 	ldr	w0, [sp, #56]
   84760:	94000004 	bl	84770 <recieve_helper>
   84764:	d503201f 	nop
   84768:	a8c47bfd 	ldp	x29, x30, [sp], #64
   8476c:	d65f03c0 	ret

0000000000084770 <recieve_helper>:
   84770:	a9ba7bfd 	stp	x29, x30, [sp, #-96]!
   84774:	910003fd 	mov	x29, sp
   84778:	b9001fe0 	str	w0, [sp, #28]
   8477c:	b9401fe0 	ldr	w0, [sp, #28]
   84780:	51000402 	sub	w2, w0, #0x1
   84784:	90000020 	adrp	x0, 88000 <UART_CR_RTSEN>
   84788:	9108a001 	add	x1, x0, #0x228
   8478c:	93407c42 	sxtw	x2, w2
   84790:	d2812300 	mov	x0, #0x918                 	// #2328
   84794:	9b007c40 	mul	x0, x2, x0
   84798:	8b000020 	add	x0, x1, x0
   8479c:	39644000 	ldrb	w0, [x0, #2320]
   847a0:	b9005fe0 	str	w0, [sp, #92]
   847a4:	b9401fe0 	ldr	w0, [sp, #28]
   847a8:	51000402 	sub	w2, w0, #0x1
   847ac:	90000020 	adrp	x0, 88000 <UART_CR_RTSEN>
   847b0:	9108a001 	add	x1, x0, #0x228
   847b4:	93407c42 	sxtw	x2, w2
   847b8:	d2812300 	mov	x0, #0x918                 	// #2328
   847bc:	9b007c40 	mul	x0, x2, x0
   847c0:	8b000020 	add	x0, x1, x0
   847c4:	39644400 	ldrb	w0, [x0, #2321]
   847c8:	b9005be0 	str	w0, [sp, #88]
   847cc:	b9401fe0 	ldr	w0, [sp, #28]
   847d0:	51000402 	sub	w2, w0, #0x1
   847d4:	90000020 	adrp	x0, 88000 <UART_CR_RTSEN>
   847d8:	9108a001 	add	x1, x0, #0x228
   847dc:	93407c42 	sxtw	x2, w2
   847e0:	d2812300 	mov	x0, #0x918                 	// #2328
   847e4:	9b007c40 	mul	x0, x2, x0
   847e8:	8b000020 	add	x0, x1, x0
   847ec:	f9401000 	ldr	x0, [x0, #32]
   847f0:	f9002be0 	str	x0, [sp, #80]
   847f4:	b9401fe0 	ldr	w0, [sp, #28]
   847f8:	51000402 	sub	w2, w0, #0x1
   847fc:	90000020 	adrp	x0, 88000 <UART_CR_RTSEN>
   84800:	9108a001 	add	x1, x0, #0x228
   84804:	93407c42 	sxtw	x2, w2
   84808:	d2812300 	mov	x0, #0x918                 	// #2328
   8480c:	9b007c40 	mul	x0, x2, x0
   84810:	8b000020 	add	x0, x1, x0
   84814:	f9401400 	ldr	x0, [x0, #40]
   84818:	f90027e0 	str	x0, [sp, #72]
   8481c:	b9401fe0 	ldr	w0, [sp, #28]
   84820:	51000402 	sub	w2, w0, #0x1
   84824:	90000020 	adrp	x0, 88000 <UART_CR_RTSEN>
   84828:	9108a001 	add	x1, x0, #0x228
   8482c:	93407c42 	sxtw	x2, w2
   84830:	d2812300 	mov	x0, #0x918                 	// #2328
   84834:	9b007c40 	mul	x0, x2, x0
   84838:	8b000020 	add	x0, x1, x0
   8483c:	f9401800 	ldr	x0, [x0, #48]
   84840:	b90047e0 	str	w0, [sp, #68]
   84844:	b9405fe1 	ldr	w1, [sp, #92]
   84848:	b9405be0 	ldr	w0, [sp, #88]
   8484c:	6b00003f 	cmp	w1, w0
   84850:	54000181 	b.ne	84880 <recieve_helper+0x110>  // b.any
   84854:	b9401fe0 	ldr	w0, [sp, #28]
   84858:	51000402 	sub	w2, w0, #0x1
   8485c:	90000020 	adrp	x0, 88000 <UART_CR_RTSEN>
   84860:	9108a001 	add	x1, x0, #0x228
   84864:	93407c42 	sxtw	x2, w2
   84868:	d2812300 	mov	x0, #0x918                 	// #2328
   8486c:	9b007c40 	mul	x0, x2, x0
   84870:	8b000020 	add	x0, x1, x0
   84874:	52800021 	mov	w1, #0x1                   	// #1
   84878:	39244c01 	strb	w1, [x0, #2323]
   8487c:	14000084 	b	84a8c <recieve_helper+0x31c>
   84880:	b9401fe0 	ldr	w0, [sp, #28]
   84884:	51000402 	sub	w2, w0, #0x1
   84888:	90000020 	adrp	x0, 88000 <UART_CR_RTSEN>
   8488c:	9108a001 	add	x1, x0, #0x228
   84890:	93407c42 	sxtw	x2, w2
   84894:	d2812300 	mov	x0, #0x918                 	// #2328
   84898:	9b007c40 	mul	x0, x2, x0
   8489c:	8b000020 	add	x0, x1, x0
   848a0:	39244c1f 	strb	wzr, [x0, #2323]
   848a4:	b9401fe0 	ldr	w0, [sp, #28]
   848a8:	51000400 	sub	w0, w0, #0x1
   848ac:	b90043e0 	str	w0, [sp, #64]
   848b0:	90000020 	adrp	x0, 88000 <UART_CR_RTSEN>
   848b4:	9108a002 	add	x2, x0, #0x228
   848b8:	b9805fe1 	ldrsw	x1, [sp, #92]
   848bc:	b98043e3 	ldrsw	x3, [sp, #64]
   848c0:	aa0103e0 	mov	x0, x1
   848c4:	d37ef400 	lsl	x0, x0, #2
   848c8:	8b010000 	add	x0, x0, x1
   848cc:	d37df000 	lsl	x0, x0, #3
   848d0:	d2812301 	mov	x1, #0x918                 	// #2328
   848d4:	9b017c61 	mul	x1, x3, x1
   848d8:	8b010000 	add	x0, x0, x1
   848dc:	8b000040 	add	x0, x2, x0
   848e0:	b9415000 	ldr	w0, [x0, #336]
   848e4:	b9003fe0 	str	w0, [sp, #60]
   848e8:	90000020 	adrp	x0, 88000 <UART_CR_RTSEN>
   848ec:	9108a002 	add	x2, x0, #0x228
   848f0:	b9805fe1 	ldrsw	x1, [sp, #92]
   848f4:	b98043e3 	ldrsw	x3, [sp, #64]
   848f8:	aa0103e0 	mov	x0, x1
   848fc:	d37ef400 	lsl	x0, x0, #2
   84900:	8b010000 	add	x0, x0, x1
   84904:	d37df000 	lsl	x0, x0, #3
   84908:	d2812301 	mov	x1, #0x918                 	// #2328
   8490c:	9b017c61 	mul	x1, x3, x1
   84910:	8b010000 	add	x0, x0, x1
   84914:	8b000040 	add	x0, x2, x0
   84918:	f940a400 	ldr	x0, [x0, #328]
   8491c:	f9001be0 	str	x0, [sp, #48]
   84920:	90000020 	adrp	x0, 88000 <UART_CR_RTSEN>
   84924:	9108a002 	add	x2, x0, #0x228
   84928:	b9805fe1 	ldrsw	x1, [sp, #92]
   8492c:	b98043e3 	ldrsw	x3, [sp, #64]
   84930:	aa0103e0 	mov	x0, x1
   84934:	d37ef400 	lsl	x0, x0, #2
   84938:	8b010000 	add	x0, x0, x1
   8493c:	d37df000 	lsl	x0, x0, #3
   84940:	d2812301 	mov	x1, #0x918                 	// #2328
   84944:	9b017c61 	mul	x1, x3, x1
   84948:	8b010000 	add	x0, x0, x1
   8494c:	8b000040 	add	x0, x2, x0
   84950:	b9414000 	ldr	w0, [x0, #320]
   84954:	b9002fe0 	str	w0, [sp, #44]
   84958:	f9402be0 	ldr	x0, [sp, #80]
   8495c:	b9402fe1 	ldr	w1, [sp, #44]
   84960:	b9000001 	str	w1, [x0]
   84964:	b94047e0 	ldr	w0, [sp, #68]
   84968:	51000401 	sub	w1, w0, #0x1
   8496c:	b9403fe0 	ldr	w0, [sp, #60]
   84970:	51000400 	sub	w0, w0, #0x1
   84974:	2a0003e3 	mov	w3, w0
   84978:	f9401be2 	ldr	x2, [sp, #48]
   8497c:	f94027e0 	ldr	x0, [sp, #72]
   84980:	97fff0dc 	bl	80cf0 <strcpy>
   84984:	11000400 	add	w0, w0, #0x1
   84988:	b90047e0 	str	w0, [sp, #68]
   8498c:	90000020 	adrp	x0, 88000 <UART_CR_RTSEN>
   84990:	9108a001 	add	x1, x0, #0x228
   84994:	b98043e2 	ldrsw	x2, [sp, #64]
   84998:	d2812300 	mov	x0, #0x918                 	// #2328
   8499c:	9b007c40 	mul	x0, x2, x0
   849a0:	8b000020 	add	x0, x1, x0
   849a4:	39644000 	ldrb	w0, [x0, #2320]
   849a8:	11000400 	add	w0, w0, #0x1
   849ac:	12001c03 	and	w3, w0, #0xff
   849b0:	90000020 	adrp	x0, 88000 <UART_CR_RTSEN>
   849b4:	9108a001 	add	x1, x0, #0x228
   849b8:	b98043e2 	ldrsw	x2, [sp, #64]
   849bc:	d2812300 	mov	x0, #0x918                 	// #2328
   849c0:	9b007c40 	mul	x0, x2, x0
   849c4:	8b000020 	add	x0, x1, x0
   849c8:	2a0303e1 	mov	w1, w3
   849cc:	39244001 	strb	w1, [x0, #2320]
   849d0:	90000020 	adrp	x0, 88000 <UART_CR_RTSEN>
   849d4:	9108a001 	add	x1, x0, #0x228
   849d8:	b98043e2 	ldrsw	x2, [sp, #64]
   849dc:	d2812300 	mov	x0, #0x918                 	// #2328
   849e0:	9b007c40 	mul	x0, x2, x0
   849e4:	8b000020 	add	x0, x1, x0
   849e8:	39644000 	ldrb	w0, [x0, #2320]
   849ec:	5290a3e1 	mov	w1, #0x851f                	// #34079
   849f0:	72aa3d61 	movk	w1, #0x51eb, lsl #16
   849f4:	9ba17c01 	umull	x1, w0, w1
   849f8:	d360fc21 	lsr	x1, x1, #32
   849fc:	53047c22 	lsr	w2, w1, #4
   84a00:	52800641 	mov	w1, #0x32                  	// #50
   84a04:	1b017c41 	mul	w1, w2, w1
   84a08:	4b010000 	sub	w0, w0, w1
   84a0c:	12001c03 	and	w3, w0, #0xff
   84a10:	90000020 	adrp	x0, 88000 <UART_CR_RTSEN>
   84a14:	9108a001 	add	x1, x0, #0x228
   84a18:	b98043e2 	ldrsw	x2, [sp, #64]
   84a1c:	d2812300 	mov	x0, #0x918                 	// #2328
   84a20:	9b007c40 	mul	x0, x2, x0
   84a24:	8b000020 	add	x0, x1, x0
   84a28:	2a0303e1 	mov	w1, w3
   84a2c:	39244001 	strb	w1, [x0, #2320]
   84a30:	b9401fe0 	ldr	w0, [sp, #28]
   84a34:	51000402 	sub	w2, w0, #0x1
   84a38:	90000020 	adrp	x0, 88000 <UART_CR_RTSEN>
   84a3c:	9108a001 	add	x1, x0, #0x228
   84a40:	93407c42 	sxtw	x2, w2
   84a44:	d2812300 	mov	x0, #0x918                 	// #2328
   84a48:	9b007c40 	mul	x0, x2, x0
   84a4c:	8b000020 	add	x0, x1, x0
   84a50:	b9401c00 	ldr	w0, [x0, #28]
   84a54:	52800002 	mov	w2, #0x0                   	// #0
   84a58:	2a0003e1 	mov	w1, w0
   84a5c:	b9401fe0 	ldr	w0, [sp, #28]
   84a60:	97fffd0c 	bl	83e90 <queue_unblock>
   84a64:	b9401fe0 	ldr	w0, [sp, #28]
   84a68:	51000403 	sub	w3, w0, #0x1
   84a6c:	b98047e1 	ldrsw	x1, [sp, #68]
   84a70:	90000020 	adrp	x0, 88000 <UART_CR_RTSEN>
   84a74:	9108a002 	add	x2, x0, #0x228
   84a78:	93407c63 	sxtw	x3, w3
   84a7c:	d2812300 	mov	x0, #0x918                 	// #2328
   84a80:	9b007c60 	mul	x0, x3, x0
   84a84:	8b000040 	add	x0, x2, x0
   84a88:	f9001001 	str	x1, [x0, #32]
   84a8c:	a8c67bfd 	ldp	x29, x30, [sp], #96
   84a90:	d65f03c0 	ret

0000000000084a94 <reply_helper>:
   84a94:	a9bc7bfd 	stp	x29, x30, [sp, #-64]!
   84a98:	910003fd 	mov	x29, sp
   84a9c:	90000020 	adrp	x0, 88000 <UART_CR_RTSEN>
   84aa0:	91088000 	add	x0, x0, #0x220
   84aa4:	b9400000 	ldr	w0, [x0]
   84aa8:	51000400 	sub	w0, w0, #0x1
   84aac:	b9003fe0 	str	w0, [sp, #60]
   84ab0:	90000020 	adrp	x0, 88000 <UART_CR_RTSEN>
   84ab4:	9108a001 	add	x1, x0, #0x228
   84ab8:	b9803fe2 	ldrsw	x2, [sp, #60]
   84abc:	d2812300 	mov	x0, #0x918                 	// #2328
   84ac0:	9b007c40 	mul	x0, x2, x0
   84ac4:	8b000020 	add	x0, x1, x0
   84ac8:	f9401000 	ldr	x0, [x0, #32]
   84acc:	b9003be0 	str	w0, [sp, #56]
   84ad0:	90000020 	adrp	x0, 88000 <UART_CR_RTSEN>
   84ad4:	9108a001 	add	x1, x0, #0x228
   84ad8:	b9803fe2 	ldrsw	x2, [sp, #60]
   84adc:	d2812300 	mov	x0, #0x918                 	// #2328
   84ae0:	9b007c40 	mul	x0, x2, x0
   84ae4:	8b000020 	add	x0, x1, x0
   84ae8:	f9401400 	ldr	x0, [x0, #40]
   84aec:	f9001be0 	str	x0, [sp, #48]
   84af0:	90000020 	adrp	x0, 88000 <UART_CR_RTSEN>
   84af4:	9108a001 	add	x1, x0, #0x228
   84af8:	b9803fe2 	ldrsw	x2, [sp, #60]
   84afc:	d2812300 	mov	x0, #0x918                 	// #2328
   84b00:	9b007c40 	mul	x0, x2, x0
   84b04:	8b000020 	add	x0, x1, x0
   84b08:	f9401800 	ldr	x0, [x0, #48]
   84b0c:	b9002fe0 	str	w0, [sp, #44]
   84b10:	b9403be0 	ldr	w0, [sp, #56]
   84b14:	51000402 	sub	w2, w0, #0x1
   84b18:	90000020 	adrp	x0, 88000 <UART_CR_RTSEN>
   84b1c:	9108a001 	add	x1, x0, #0x228
   84b20:	93407c42 	sxtw	x2, w2
   84b24:	d2812300 	mov	x0, #0x918                 	// #2328
   84b28:	9b007c40 	mul	x0, x2, x0
   84b2c:	8b000020 	add	x0, x1, x0
   84b30:	f9409800 	ldr	x0, [x0, #304]
   84b34:	f90013e0 	str	x0, [sp, #32]
   84b38:	b9403be0 	ldr	w0, [sp, #56]
   84b3c:	51000402 	sub	w2, w0, #0x1
   84b40:	90000020 	adrp	x0, 88000 <UART_CR_RTSEN>
   84b44:	9108a001 	add	x1, x0, #0x228
   84b48:	93407c42 	sxtw	x2, w2
   84b4c:	d2812300 	mov	x0, #0x918                 	// #2328
   84b50:	9b007c40 	mul	x0, x2, x0
   84b54:	8b000020 	add	x0, x1, x0
   84b58:	b9413800 	ldr	w0, [x0, #312]
   84b5c:	b9001fe0 	str	w0, [sp, #28]
   84b60:	b9001bff 	str	wzr, [sp, #24]
   84b64:	b9401fe0 	ldr	w0, [sp, #28]
   84b68:	51000401 	sub	w1, w0, #0x1
   84b6c:	b9402fe0 	ldr	w0, [sp, #44]
   84b70:	51000400 	sub	w0, w0, #0x1
   84b74:	2a0003e3 	mov	w3, w0
   84b78:	f9401be2 	ldr	x2, [sp, #48]
   84b7c:	f94013e0 	ldr	x0, [sp, #32]
   84b80:	97fff05c 	bl	80cf0 <strcpy>
   84b84:	11000400 	add	w0, w0, #0x1
   84b88:	b9002fe0 	str	w0, [sp, #44]
   84b8c:	b9403be0 	ldr	w0, [sp, #56]
   84b90:	51000402 	sub	w2, w0, #0x1
   84b94:	90000020 	adrp	x0, 88000 <UART_CR_RTSEN>
   84b98:	9108a001 	add	x1, x0, #0x228
   84b9c:	93407c42 	sxtw	x2, w2
   84ba0:	d2812300 	mov	x0, #0x918                 	// #2328
   84ba4:	9b007c40 	mul	x0, x2, x0
   84ba8:	8b000020 	add	x0, x1, x0
   84bac:	b9401c00 	ldr	w0, [x0, #28]
   84bb0:	52800002 	mov	w2, #0x0                   	// #0
   84bb4:	2a0003e1 	mov	w1, w0
   84bb8:	b9403be0 	ldr	w0, [sp, #56]
   84bbc:	97fffcb5 	bl	83e90 <queue_unblock>
   84bc0:	b9403be0 	ldr	w0, [sp, #56]
   84bc4:	51000403 	sub	w3, w0, #0x1
   84bc8:	b9802fe1 	ldrsw	x1, [sp, #44]
   84bcc:	90000020 	adrp	x0, 88000 <UART_CR_RTSEN>
   84bd0:	9108a002 	add	x2, x0, #0x228
   84bd4:	93407c63 	sxtw	x3, w3
   84bd8:	d2812300 	mov	x0, #0x918                 	// #2328
   84bdc:	9b007c60 	mul	x0, x3, x0
   84be0:	8b000040 	add	x0, x2, x0
   84be4:	f9001001 	str	x1, [x0, #32]
   84be8:	b9403be0 	ldr	w0, [sp, #56]
   84bec:	51000402 	sub	w2, w0, #0x1
   84bf0:	90000020 	adrp	x0, 88000 <UART_CR_RTSEN>
   84bf4:	9108a001 	add	x1, x0, #0x228
   84bf8:	93407c42 	sxtw	x2, w2
   84bfc:	d2812300 	mov	x0, #0x918                 	// #2328
   84c00:	9b007c40 	mul	x0, x2, x0
   84c04:	8b000020 	add	x0, x1, x0
   84c08:	3924481f 	strb	wzr, [x0, #2322]
   84c0c:	90000020 	adrp	x0, 88000 <UART_CR_RTSEN>
   84c10:	91088000 	add	x0, x0, #0x220
   84c14:	b9400000 	ldr	w0, [x0]
   84c18:	51000403 	sub	w3, w0, #0x1
   84c1c:	b9802fe1 	ldrsw	x1, [sp, #44]
   84c20:	90000020 	adrp	x0, 88000 <UART_CR_RTSEN>
   84c24:	9108a002 	add	x2, x0, #0x228
   84c28:	93407c63 	sxtw	x3, w3
   84c2c:	d2812300 	mov	x0, #0x918                 	// #2328
   84c30:	9b007c60 	mul	x0, x3, x0
   84c34:	8b000040 	add	x0, x2, x0
   84c38:	f9001001 	str	x1, [x0, #32]
   84c3c:	d503201f 	nop
   84c40:	a8c47bfd 	ldp	x29, x30, [sp], #64
   84c44:	d65f03c0 	ret

0000000000084c48 <Exception>:
   84c48:	a9bb7bfd 	stp	x29, x30, [sp, #-80]!
   84c4c:	910003fd 	mov	x29, sp
   84c50:	f9000fe0 	str	x0, [sp, #24]
   84c54:	90000020 	adrp	x0, 88000 <UART_CR_RTSEN>
   84c58:	91088000 	add	x0, x0, #0x220
   84c5c:	b9400000 	ldr	w0, [x0]
   84c60:	51000400 	sub	w0, w0, #0x1
   84c64:	b9003fe0 	str	w0, [sp, #60]
   84c68:	f9400fe0 	ldr	x0, [sp, #24]
   84c6c:	d358fc00 	lsr	x0, x0, #24
   84c70:	f101581f 	cmp	x0, #0x56
   84c74:	54004901 	b.ne	85594 <Exception+0x94c>  // b.any
   84c78:	f9400fe0 	ldr	x0, [sp, #24]
   84c7c:	12005c00 	and	w0, w0, #0xffffff
   84c80:	b9003be0 	str	w0, [sp, #56]
   84c84:	b9403be0 	ldr	w0, [sp, #56]
   84c88:	7100241f 	cmp	w0, #0x9
   84c8c:	54002ae0 	b.eq	851e8 <Exception+0x5a0>  // b.none
   84c90:	b9403be0 	ldr	w0, [sp, #56]
   84c94:	7100241f 	cmp	w0, #0x9
   84c98:	540047cc 	b.gt	85590 <Exception+0x948>
   84c9c:	b9403be0 	ldr	w0, [sp, #56]
   84ca0:	7100201f 	cmp	w0, #0x8
   84ca4:	54002660 	b.eq	85170 <Exception+0x528>  // b.none
   84ca8:	b9403be0 	ldr	w0, [sp, #56]
   84cac:	7100201f 	cmp	w0, #0x8
   84cb0:	5400470c 	b.gt	85590 <Exception+0x948>
   84cb4:	b9403be0 	ldr	w0, [sp, #56]
   84cb8:	71001c1f 	cmp	w0, #0x7
   84cbc:	54001de0 	b.eq	85078 <Exception+0x430>  // b.none
   84cc0:	b9403be0 	ldr	w0, [sp, #56]
   84cc4:	71001c1f 	cmp	w0, #0x7
   84cc8:	5400464c 	b.gt	85590 <Exception+0x948>
   84ccc:	b9403be0 	ldr	w0, [sp, #56]
   84cd0:	7100181f 	cmp	w0, #0x6
   84cd4:	54001ac0 	b.eq	8502c <Exception+0x3e4>  // b.none
   84cd8:	b9403be0 	ldr	w0, [sp, #56]
   84cdc:	7100181f 	cmp	w0, #0x6
   84ce0:	5400458c 	b.gt	85590 <Exception+0x948>
   84ce4:	b9403be0 	ldr	w0, [sp, #56]
   84ce8:	7100141f 	cmp	w0, #0x5
   84cec:	54001300 	b.eq	84f4c <Exception+0x304>  // b.none
   84cf0:	b9403be0 	ldr	w0, [sp, #56]
   84cf4:	7100141f 	cmp	w0, #0x5
   84cf8:	540044cc 	b.gt	85590 <Exception+0x948>
   84cfc:	b9403be0 	ldr	w0, [sp, #56]
   84d00:	7100101f 	cmp	w0, #0x4
   84d04:	54000e80 	b.eq	84ed4 <Exception+0x28c>  // b.none
   84d08:	b9403be0 	ldr	w0, [sp, #56]
   84d0c:	7100101f 	cmp	w0, #0x4
   84d10:	5400440c 	b.gt	85590 <Exception+0x948>
   84d14:	b9403be0 	ldr	w0, [sp, #56]
   84d18:	71000c1f 	cmp	w0, #0x3
   84d1c:	54000a00 	b.eq	84e5c <Exception+0x214>  // b.none
   84d20:	b9403be0 	ldr	w0, [sp, #56]
   84d24:	71000c1f 	cmp	w0, #0x3
   84d28:	5400434c 	b.gt	85590 <Exception+0x948>
   84d2c:	b9403be0 	ldr	w0, [sp, #56]
   84d30:	7100081f 	cmp	w0, #0x2
   84d34:	540003a0 	b.eq	84da8 <Exception+0x160>  // b.none
   84d38:	b9403be0 	ldr	w0, [sp, #56]
   84d3c:	7100081f 	cmp	w0, #0x2
   84d40:	5400428c 	b.gt	85590 <Exception+0x948>
   84d44:	b9403be0 	ldr	w0, [sp, #56]
   84d48:	7100001f 	cmp	w0, #0x0
   84d4c:	540000a0 	b.eq	84d60 <Exception+0x118>  // b.none
   84d50:	b9403be0 	ldr	w0, [sp, #56]
   84d54:	7100041f 	cmp	w0, #0x1
   84d58:	540000a0 	b.eq	84d6c <Exception+0x124>  // b.none
   84d5c:	1400020d 	b	85590 <Exception+0x948>
   84d60:	b9403fe0 	ldr	w0, [sp, #60]
   84d64:	940002f2 	bl	8592c <Kill>
   84d68:	1400020b 	b	85594 <Exception+0x94c>
   84d6c:	90000020 	adrp	x0, 88000 <UART_CR_RTSEN>
   84d70:	91088000 	add	x0, x0, #0x220
   84d74:	b9400003 	ldr	w3, [x0]
   84d78:	90000020 	adrp	x0, 88000 <UART_CR_RTSEN>
   84d7c:	9108a001 	add	x1, x0, #0x228
   84d80:	b9803fe2 	ldrsw	x2, [sp, #60]
   84d84:	d2812300 	mov	x0, #0x918                 	// #2328
   84d88:	9b007c40 	mul	x0, x2, x0
   84d8c:	8b000020 	add	x0, x1, x0
   84d90:	b9401c00 	ldr	w0, [x0, #28]
   84d94:	52800002 	mov	w2, #0x0                   	// #0
   84d98:	2a0003e1 	mov	w1, w0
   84d9c:	2a0303e0 	mov	w0, w3
   84da0:	97fffbdb 	bl	83d0c <scrSchedule>
   84da4:	140001fc 	b	85594 <Exception+0x94c>
   84da8:	90000020 	adrp	x0, 88000 <UART_CR_RTSEN>
   84dac:	91088000 	add	x0, x0, #0x220
   84db0:	b9400003 	ldr	w3, [x0]
   84db4:	90000020 	adrp	x0, 88000 <UART_CR_RTSEN>
   84db8:	9108a001 	add	x1, x0, #0x228
   84dbc:	b9803fe2 	ldrsw	x2, [sp, #60]
   84dc0:	d2812300 	mov	x0, #0x918                 	// #2328
   84dc4:	9b007c40 	mul	x0, x2, x0
   84dc8:	8b000020 	add	x0, x1, x0
   84dcc:	b9401c00 	ldr	w0, [x0, #28]
   84dd0:	52800002 	mov	w2, #0x0                   	// #0
   84dd4:	2a0003e1 	mov	w1, w0
   84dd8:	2a0303e0 	mov	w0, w3
   84ddc:	97fffbcc 	bl	83d0c <scrSchedule>
   84de0:	90000020 	adrp	x0, 88000 <UART_CR_RTSEN>
   84de4:	9108a001 	add	x1, x0, #0x228
   84de8:	b9803fe2 	ldrsw	x2, [sp, #60]
   84dec:	d2812300 	mov	x0, #0x918                 	// #2328
   84df0:	9b007c40 	mul	x0, x2, x0
   84df4:	8b000020 	add	x0, x1, x0
   84df8:	f9401000 	ldr	x0, [x0, #32]
   84dfc:	2a0003e3 	mov	w3, w0
   84e00:	90000020 	adrp	x0, 88000 <UART_CR_RTSEN>
   84e04:	9108a001 	add	x1, x0, #0x228
   84e08:	b9803fe2 	ldrsw	x2, [sp, #60]
   84e0c:	d2812300 	mov	x0, #0x918                 	// #2328
   84e10:	9b007c40 	mul	x0, x2, x0
   84e14:	8b000020 	add	x0, x1, x0
   84e18:	f9401400 	ldr	x0, [x0, #40]
   84e1c:	aa0003e1 	mov	x1, x0
   84e20:	b9403fe0 	ldr	w0, [sp, #60]
   84e24:	11000400 	add	w0, w0, #0x1
   84e28:	2a0003e2 	mov	w2, w0
   84e2c:	2a0303e0 	mov	w0, w3
   84e30:	94000243 	bl	8573c <KernelCreate>
   84e34:	b90037e0 	str	w0, [sp, #52]
   84e38:	b98037e1 	ldrsw	x1, [sp, #52]
   84e3c:	90000020 	adrp	x0, 88000 <UART_CR_RTSEN>
   84e40:	9108a002 	add	x2, x0, #0x228
   84e44:	b9803fe3 	ldrsw	x3, [sp, #60]
   84e48:	d2812300 	mov	x0, #0x918                 	// #2328
   84e4c:	9b007c60 	mul	x0, x3, x0
   84e50:	8b000040 	add	x0, x2, x0
   84e54:	f9001001 	str	x1, [x0, #32]
   84e58:	140001cf 	b	85594 <Exception+0x94c>
   84e5c:	90000020 	adrp	x0, 88000 <UART_CR_RTSEN>
   84e60:	91088000 	add	x0, x0, #0x220
   84e64:	b9400003 	ldr	w3, [x0]
   84e68:	90000020 	adrp	x0, 88000 <UART_CR_RTSEN>
   84e6c:	9108a001 	add	x1, x0, #0x228
   84e70:	b9803fe2 	ldrsw	x2, [sp, #60]
   84e74:	d2812300 	mov	x0, #0x918                 	// #2328
   84e78:	9b007c40 	mul	x0, x2, x0
   84e7c:	8b000020 	add	x0, x1, x0
   84e80:	b9401c00 	ldr	w0, [x0, #28]
   84e84:	52800002 	mov	w2, #0x0                   	// #0
   84e88:	2a0003e1 	mov	w1, w0
   84e8c:	2a0303e0 	mov	w0, w3
   84e90:	97fffb9f 	bl	83d0c <scrSchedule>
   84e94:	90000020 	adrp	x0, 88000 <UART_CR_RTSEN>
   84e98:	9108a001 	add	x1, x0, #0x228
   84e9c:	b9803fe2 	ldrsw	x2, [sp, #60]
   84ea0:	d2812300 	mov	x0, #0x918                 	// #2328
   84ea4:	9b007c40 	mul	x0, x2, x0
   84ea8:	8b000020 	add	x0, x1, x0
   84eac:	b9401800 	ldr	w0, [x0, #24]
   84eb0:	93407c01 	sxtw	x1, w0
   84eb4:	90000020 	adrp	x0, 88000 <UART_CR_RTSEN>
   84eb8:	9108a002 	add	x2, x0, #0x228
   84ebc:	b9803fe3 	ldrsw	x3, [sp, #60]
   84ec0:	d2812300 	mov	x0, #0x918                 	// #2328
   84ec4:	9b007c60 	mul	x0, x3, x0
   84ec8:	8b000040 	add	x0, x2, x0
   84ecc:	f9001001 	str	x1, [x0, #32]
   84ed0:	140001b1 	b	85594 <Exception+0x94c>
   84ed4:	90000020 	adrp	x0, 88000 <UART_CR_RTSEN>
   84ed8:	91088000 	add	x0, x0, #0x220
   84edc:	b9400003 	ldr	w3, [x0]
   84ee0:	90000020 	adrp	x0, 88000 <UART_CR_RTSEN>
   84ee4:	9108a001 	add	x1, x0, #0x228
   84ee8:	b9803fe2 	ldrsw	x2, [sp, #60]
   84eec:	d2812300 	mov	x0, #0x918                 	// #2328
   84ef0:	9b007c40 	mul	x0, x2, x0
   84ef4:	8b000020 	add	x0, x1, x0
   84ef8:	b9401c00 	ldr	w0, [x0, #28]
   84efc:	52800002 	mov	w2, #0x0                   	// #0
   84f00:	2a0003e1 	mov	w1, w0
   84f04:	2a0303e0 	mov	w0, w3
   84f08:	97fffb81 	bl	83d0c <scrSchedule>
   84f0c:	90000020 	adrp	x0, 88000 <UART_CR_RTSEN>
   84f10:	9108a001 	add	x1, x0, #0x228
   84f14:	b9803fe2 	ldrsw	x2, [sp, #60]
   84f18:	d2812300 	mov	x0, #0x918                 	// #2328
   84f1c:	9b007c40 	mul	x0, x2, x0
   84f20:	8b000020 	add	x0, x1, x0
   84f24:	b9401400 	ldr	w0, [x0, #20]
   84f28:	93407c01 	sxtw	x1, w0
   84f2c:	90000020 	adrp	x0, 88000 <UART_CR_RTSEN>
   84f30:	9108a002 	add	x2, x0, #0x228
   84f34:	b9803fe3 	ldrsw	x3, [sp, #60]
   84f38:	d2812300 	mov	x0, #0x918                 	// #2328
   84f3c:	9b007c60 	mul	x0, x3, x0
   84f40:	8b000040 	add	x0, x2, x0
   84f44:	f9001001 	str	x1, [x0, #32]
   84f48:	14000193 	b	85594 <Exception+0x94c>
   84f4c:	90000020 	adrp	x0, 88000 <UART_CR_RTSEN>
   84f50:	9108a001 	add	x1, x0, #0x228
   84f54:	b9803fe2 	ldrsw	x2, [sp, #60]
   84f58:	d2812300 	mov	x0, #0x918                 	// #2328
   84f5c:	9b007c40 	mul	x0, x2, x0
   84f60:	8b000020 	add	x0, x1, x0
   84f64:	f9401000 	ldr	x0, [x0, #32]
   84f68:	b90023e0 	str	w0, [sp, #32]
   84f6c:	b94023e0 	ldr	w0, [sp, #32]
   84f70:	12001c00 	and	w0, w0, #0xff
   84f74:	51000400 	sub	w0, w0, #0x1
   84f78:	12001c00 	and	w0, w0, #0xff
   84f7c:	13001c00 	sxtb	w0, w0
   84f80:	97fffcf4 	bl	84350 <dead>
   84f84:	13001c00 	sxtb	w0, w0
   84f88:	7100001f 	cmp	w0, #0x0
   84f8c:	54000300 	b.eq	84fec <Exception+0x3a4>  // b.none
   84f90:	90000020 	adrp	x0, 88000 <UART_CR_RTSEN>
   84f94:	91088000 	add	x0, x0, #0x220
   84f98:	b9400003 	ldr	w3, [x0]
   84f9c:	90000020 	adrp	x0, 88000 <UART_CR_RTSEN>
   84fa0:	9108a001 	add	x1, x0, #0x228
   84fa4:	b9803fe2 	ldrsw	x2, [sp, #60]
   84fa8:	d2812300 	mov	x0, #0x918                 	// #2328
   84fac:	9b007c40 	mul	x0, x2, x0
   84fb0:	8b000020 	add	x0, x1, x0
   84fb4:	b9401c00 	ldr	w0, [x0, #28]
   84fb8:	52800002 	mov	w2, #0x0                   	// #0
   84fbc:	2a0003e1 	mov	w1, w0
   84fc0:	2a0303e0 	mov	w0, w3
   84fc4:	97fffb52 	bl	83d0c <scrSchedule>
   84fc8:	90000020 	adrp	x0, 88000 <UART_CR_RTSEN>
   84fcc:	9108a001 	add	x1, x0, #0x228
   84fd0:	b9803fe2 	ldrsw	x2, [sp, #60]
   84fd4:	d2812300 	mov	x0, #0x918                 	// #2328
   84fd8:	9b007c40 	mul	x0, x2, x0
   84fdc:	8b000020 	add	x0, x1, x0
   84fe0:	92800001 	mov	x1, #0xffffffffffffffff    	// #-1
   84fe4:	f9001001 	str	x1, [x0, #32]
   84fe8:	1400016b 	b	85594 <Exception+0x94c>
   84fec:	90000020 	adrp	x0, 88000 <UART_CR_RTSEN>
   84ff0:	91088000 	add	x0, x0, #0x220
   84ff4:	b9400003 	ldr	w3, [x0]
   84ff8:	90000020 	adrp	x0, 88000 <UART_CR_RTSEN>
   84ffc:	9108a001 	add	x1, x0, #0x228
   85000:	b9803fe2 	ldrsw	x2, [sp, #60]
   85004:	d2812300 	mov	x0, #0x918                 	// #2328
   85008:	9b007c40 	mul	x0, x2, x0
   8500c:	8b000020 	add	x0, x1, x0
   85010:	b9401c00 	ldr	w0, [x0, #28]
   85014:	52800022 	mov	w2, #0x1                   	// #1
   85018:	2a0003e1 	mov	w1, w0
   8501c:	2a0303e0 	mov	w0, w3
   85020:	97fffb3b 	bl	83d0c <scrSchedule>
   85024:	97fffce7 	bl	843c0 <send_helper>
   85028:	1400015b 	b	85594 <Exception+0x94c>
   8502c:	f0000000 	adrp	x0, 88000 <UART_CR_RTSEN>
   85030:	91088000 	add	x0, x0, #0x220
   85034:	b9400003 	ldr	w3, [x0]
   85038:	f0000000 	adrp	x0, 88000 <UART_CR_RTSEN>
   8503c:	9108a001 	add	x1, x0, #0x228
   85040:	b9803fe2 	ldrsw	x2, [sp, #60]
   85044:	d2812300 	mov	x0, #0x918                 	// #2328
   85048:	9b007c40 	mul	x0, x2, x0
   8504c:	8b000020 	add	x0, x1, x0
   85050:	b9401c00 	ldr	w0, [x0, #28]
   85054:	52800022 	mov	w2, #0x1                   	// #1
   85058:	2a0003e1 	mov	w1, w0
   8505c:	2a0303e0 	mov	w0, w3
   85060:	97fffb2b 	bl	83d0c <scrSchedule>
   85064:	f0000000 	adrp	x0, 88000 <UART_CR_RTSEN>
   85068:	91088000 	add	x0, x0, #0x220
   8506c:	b9400000 	ldr	w0, [x0]
   85070:	97fffdc0 	bl	84770 <recieve_helper>
   85074:	14000148 	b	85594 <Exception+0x94c>
   85078:	f0000000 	adrp	x0, 88000 <UART_CR_RTSEN>
   8507c:	91088000 	add	x0, x0, #0x220
   85080:	b9400003 	ldr	w3, [x0]
   85084:	f0000000 	adrp	x0, 88000 <UART_CR_RTSEN>
   85088:	9108a001 	add	x1, x0, #0x228
   8508c:	b9803fe2 	ldrsw	x2, [sp, #60]
   85090:	d2812300 	mov	x0, #0x918                 	// #2328
   85094:	9b007c40 	mul	x0, x2, x0
   85098:	8b000020 	add	x0, x1, x0
   8509c:	b9401c00 	ldr	w0, [x0, #28]
   850a0:	52800002 	mov	w2, #0x0                   	// #0
   850a4:	2a0003e1 	mov	w1, w0
   850a8:	2a0303e0 	mov	w0, w3
   850ac:	97fffb18 	bl	83d0c <scrSchedule>
   850b0:	f0000000 	adrp	x0, 88000 <UART_CR_RTSEN>
   850b4:	9108a001 	add	x1, x0, #0x228
   850b8:	b9803fe2 	ldrsw	x2, [sp, #60]
   850bc:	d2812300 	mov	x0, #0x918                 	// #2328
   850c0:	9b007c40 	mul	x0, x2, x0
   850c4:	8b000020 	add	x0, x1, x0
   850c8:	f9401000 	ldr	x0, [x0, #32]
   850cc:	b90023e0 	str	w0, [sp, #32]
   850d0:	b94023e0 	ldr	w0, [sp, #32]
   850d4:	12001c00 	and	w0, w0, #0xff
   850d8:	51000400 	sub	w0, w0, #0x1
   850dc:	12001c00 	and	w0, w0, #0xff
   850e0:	13001c00 	sxtb	w0, w0
   850e4:	97fffc9b 	bl	84350 <dead>
   850e8:	13001c00 	sxtb	w0, w0
   850ec:	7100001f 	cmp	w0, #0x0
   850f0:	54000140 	b.eq	85118 <Exception+0x4d0>  // b.none
   850f4:	f0000000 	adrp	x0, 88000 <UART_CR_RTSEN>
   850f8:	9108a001 	add	x1, x0, #0x228
   850fc:	b9803fe2 	ldrsw	x2, [sp, #60]
   85100:	d2812300 	mov	x0, #0x918                 	// #2328
   85104:	9b007c40 	mul	x0, x2, x0
   85108:	8b000020 	add	x0, x1, x0
   8510c:	92800001 	mov	x1, #0xffffffffffffffff    	// #-1
   85110:	f9001001 	str	x1, [x0, #32]
   85114:	14000120 	b	85594 <Exception+0x94c>
   85118:	b94023e0 	ldr	w0, [sp, #32]
   8511c:	51000402 	sub	w2, w0, #0x1
   85120:	f0000000 	adrp	x0, 88000 <UART_CR_RTSEN>
   85124:	9108a001 	add	x1, x0, #0x228
   85128:	93407c42 	sxtw	x2, w2
   8512c:	d2812300 	mov	x0, #0x918                 	// #2328
   85130:	9b007c40 	mul	x0, x2, x0
   85134:	8b000020 	add	x0, x1, x0
   85138:	39644800 	ldrb	w0, [x0, #2322]
   8513c:	7100001f 	cmp	w0, #0x0
   85140:	54000141 	b.ne	85168 <Exception+0x520>  // b.any
   85144:	f0000000 	adrp	x0, 88000 <UART_CR_RTSEN>
   85148:	9108a001 	add	x1, x0, #0x228
   8514c:	b9803fe2 	ldrsw	x2, [sp, #60]
   85150:	d2812300 	mov	x0, #0x918                 	// #2328
   85154:	9b007c40 	mul	x0, x2, x0
   85158:	8b000020 	add	x0, x1, x0
   8515c:	92800021 	mov	x1, #0xfffffffffffffffe    	// #-2
   85160:	f9001001 	str	x1, [x0, #32]
   85164:	1400010c 	b	85594 <Exception+0x94c>
   85168:	97fffe4b 	bl	84a94 <reply_helper>
   8516c:	1400010a 	b	85594 <Exception+0x94c>
   85170:	f0000000 	adrp	x0, 88000 <UART_CR_RTSEN>
   85174:	91088000 	add	x0, x0, #0x220
   85178:	b9400003 	ldr	w3, [x0]
   8517c:	f0000000 	adrp	x0, 88000 <UART_CR_RTSEN>
   85180:	9108a001 	add	x1, x0, #0x228
   85184:	b9803fe2 	ldrsw	x2, [sp, #60]
   85188:	d2812300 	mov	x0, #0x918                 	// #2328
   8518c:	9b007c40 	mul	x0, x2, x0
   85190:	8b000020 	add	x0, x1, x0
   85194:	b9401c00 	ldr	w0, [x0, #28]
   85198:	52800002 	mov	w2, #0x0                   	// #0
   8519c:	2a0003e1 	mov	w1, w0
   851a0:	2a0303e0 	mov	w0, w3
   851a4:	97fffada 	bl	83d0c <scrSchedule>
   851a8:	f0000000 	adrp	x0, 88000 <UART_CR_RTSEN>
   851ac:	9108a001 	add	x1, x0, #0x228
   851b0:	b9803fe2 	ldrsw	x2, [sp, #60]
   851b4:	d2812300 	mov	x0, #0x918                 	// #2328
   851b8:	9b007c40 	mul	x0, x2, x0
   851bc:	8b000020 	add	x0, x1, x0
   851c0:	b9401c00 	ldr	w0, [x0, #28]
   851c4:	93407c01 	sxtw	x1, w0
   851c8:	f0000000 	adrp	x0, 88000 <UART_CR_RTSEN>
   851cc:	9108a002 	add	x2, x0, #0x228
   851d0:	b9803fe3 	ldrsw	x3, [sp, #60]
   851d4:	d2812300 	mov	x0, #0x918                 	// #2328
   851d8:	9b007c60 	mul	x0, x3, x0
   851dc:	8b000040 	add	x0, x2, x0
   851e0:	f9001001 	str	x1, [x0, #32]
   851e4:	140000ec 	b	85594 <Exception+0x94c>
   851e8:	f0000000 	adrp	x0, 88000 <UART_CR_RTSEN>
   851ec:	91088000 	add	x0, x0, #0x220
   851f0:	b9400003 	ldr	w3, [x0]
   851f4:	f0000000 	adrp	x0, 88000 <UART_CR_RTSEN>
   851f8:	9108a001 	add	x1, x0, #0x228
   851fc:	b9803fe2 	ldrsw	x2, [sp, #60]
   85200:	d2812300 	mov	x0, #0x918                 	// #2328
   85204:	9b007c40 	mul	x0, x2, x0
   85208:	8b000020 	add	x0, x1, x0
   8520c:	b9401c00 	ldr	w0, [x0, #28]
   85210:	52800002 	mov	w2, #0x0                   	// #0
   85214:	2a0003e1 	mov	w1, w0
   85218:	2a0303e0 	mov	w0, w3
   8521c:	97fffabc 	bl	83d0c <scrSchedule>
   85220:	b9004fff 	str	wzr, [sp, #76]
   85224:	14000013 	b	85270 <Exception+0x628>
   85228:	f0000000 	adrp	x0, 88000 <UART_CR_RTSEN>
   8522c:	9108a000 	add	x0, x0, #0x228
   85230:	b9804fe1 	ldrsw	x1, [sp, #76]
   85234:	b9803fe3 	ldrsw	x3, [sp, #60]
   85238:	d2802462 	mov	x2, #0x123                 	// #291
   8523c:	9b027c62 	mul	x2, x3, x2
   85240:	8b010041 	add	x1, x2, x1
   85244:	91001021 	add	x1, x1, #0x4
   85248:	f8617800 	ldr	x0, [x0, x1, lsl #3]
   8524c:	aa0003e3 	mov	x3, x0
   85250:	b9404fe2 	ldr	w2, [sp, #76]
   85254:	f0000000 	adrp	x0, 88000 <UART_CR_RTSEN>
   85258:	9101a001 	add	x1, x0, #0x68
   8525c:	d2800020 	mov	x0, #0x1                   	// #1
   85260:	97fffa5b 	bl	83bcc <uart_printf>
   85264:	b9404fe0 	ldr	w0, [sp, #76]
   85268:	11000400 	add	w0, w0, #0x1
   8526c:	b9004fe0 	str	w0, [sp, #76]
   85270:	b9404fe0 	ldr	w0, [sp, #76]
   85274:	7100781f 	cmp	w0, #0x1e
   85278:	54fffd8d 	b.le	85228 <Exception+0x5e0>
   8527c:	f0000000 	adrp	x0, 88000 <UART_CR_RTSEN>
   85280:	9108a001 	add	x1, x0, #0x228
   85284:	b9803fe2 	ldrsw	x2, [sp, #60]
   85288:	d2812300 	mov	x0, #0x918                 	// #2328
   8528c:	9b007c40 	mul	x0, x2, x0
   85290:	8b000020 	add	x0, x1, x0
   85294:	f9401000 	ldr	x0, [x0, #32]
   85298:	2a0003e3 	mov	w3, w0
   8529c:	f0000000 	adrp	x0, 88000 <UART_CR_RTSEN>
   852a0:	9108a001 	add	x1, x0, #0x228
   852a4:	b9803fe2 	ldrsw	x2, [sp, #60]
   852a8:	d2812300 	mov	x0, #0x918                 	// #2328
   852ac:	9b007c40 	mul	x0, x2, x0
   852b0:	8b000020 	add	x0, x1, x0
   852b4:	f9401400 	ldr	x0, [x0, #40]
   852b8:	aa0003e1 	mov	x1, x0
   852bc:	b9403fe0 	ldr	w0, [sp, #60]
   852c0:	11000400 	add	w0, w0, #0x1
   852c4:	2a0003e2 	mov	w2, w0
   852c8:	2a0303e0 	mov	w0, w3
   852cc:	9400011c 	bl	8573c <KernelCreate>
   852d0:	b90037e0 	str	w0, [sp, #52]
   852d4:	f0000000 	adrp	x0, 88000 <UART_CR_RTSEN>
   852d8:	9108a001 	add	x1, x0, #0x228
   852dc:	b9803fe2 	ldrsw	x2, [sp, #60]
   852e0:	d2812300 	mov	x0, #0x918                 	// #2328
   852e4:	9b007c40 	mul	x0, x2, x0
   852e8:	8b000020 	add	x0, x1, x0
   852ec:	f9401800 	ldr	x0, [x0, #48]
   852f0:	f100001f 	cmp	x0, #0x0
   852f4:	540013c0 	b.eq	8556c <Exception+0x924>  // b.none
   852f8:	b9004bff 	str	wzr, [sp, #72]
   852fc:	1400002c 	b	853ac <Exception+0x764>
   85300:	b9804be0 	ldrsw	x0, [sp, #72]
   85304:	d37df001 	lsl	x1, x0, #3
   85308:	f0000000 	adrp	x0, 88000 <UART_CR_RTSEN>
   8530c:	9108a002 	add	x2, x0, #0x228
   85310:	b9803fe3 	ldrsw	x3, [sp, #60]
   85314:	d2812300 	mov	x0, #0x918                 	// #2328
   85318:	9b007c60 	mul	x0, x3, x0
   8531c:	8b000040 	add	x0, x2, x0
   85320:	f9401c00 	ldr	x0, [x0, #56]
   85324:	8b000020 	add	x0, x1, x0
   85328:	f9400001 	ldr	x1, [x0]
   8532c:	b94037e0 	ldr	w0, [sp, #52]
   85330:	51000402 	sub	w2, w0, #0x1
   85334:	aa0103e4 	mov	x4, x1
   85338:	f0000000 	adrp	x0, 88000 <UART_CR_RTSEN>
   8533c:	9108a000 	add	x0, x0, #0x228
   85340:	b9804be1 	ldrsw	x1, [sp, #72]
   85344:	93407c43 	sxtw	x3, w2
   85348:	d2802462 	mov	x2, #0x123                 	// #291
   8534c:	9b027c62 	mul	x2, x3, x2
   85350:	8b010041 	add	x1, x2, x1
   85354:	91001021 	add	x1, x1, #0x4
   85358:	f8217804 	str	x4, [x0, x1, lsl #3]
   8535c:	b94037e0 	ldr	w0, [sp, #52]
   85360:	51000402 	sub	w2, w0, #0x1
   85364:	f0000000 	adrp	x0, 88000 <UART_CR_RTSEN>
   85368:	9108a000 	add	x0, x0, #0x228
   8536c:	b9804be1 	ldrsw	x1, [sp, #72]
   85370:	93407c43 	sxtw	x3, w2
   85374:	d2802462 	mov	x2, #0x123                 	// #291
   85378:	9b027c62 	mul	x2, x3, x2
   8537c:	8b010041 	add	x1, x2, x1
   85380:	91001021 	add	x1, x1, #0x4
   85384:	f8617800 	ldr	x0, [x0, x1, lsl #3]
   85388:	aa0003e3 	mov	x3, x0
   8538c:	b9404be2 	ldr	w2, [sp, #72]
   85390:	f0000000 	adrp	x0, 88000 <UART_CR_RTSEN>
   85394:	9101a001 	add	x1, x0, #0x68
   85398:	d2800020 	mov	x0, #0x1                   	// #1
   8539c:	97fffa0c 	bl	83bcc <uart_printf>
   853a0:	b9404be0 	ldr	w0, [sp, #72]
   853a4:	11000400 	add	w0, w0, #0x1
   853a8:	b9004be0 	str	w0, [sp, #72]
   853ac:	b9404be0 	ldr	w0, [sp, #72]
   853b0:	71001c1f 	cmp	w0, #0x7
   853b4:	54fffa6d 	b.le	85300 <Exception+0x6b8>
   853b8:	f0000000 	adrp	x0, 88000 <UART_CR_RTSEN>
   853bc:	9108a001 	add	x1, x0, #0x228
   853c0:	b9803fe2 	ldrsw	x2, [sp, #60]
   853c4:	d2812300 	mov	x0, #0x918                 	// #2328
   853c8:	9b007c40 	mul	x0, x2, x0
   853cc:	8b000020 	add	x0, x1, x0
   853d0:	f9401800 	ldr	x0, [x0, #48]
   853d4:	f100201f 	cmp	x0, #0x8
   853d8:	54000ca9 	b.ls	8556c <Exception+0x924>  // b.plast
   853dc:	b94037e0 	ldr	w0, [sp, #52]
   853e0:	51000402 	sub	w2, w0, #0x1
   853e4:	f0000000 	adrp	x0, 88000 <UART_CR_RTSEN>
   853e8:	9108a001 	add	x1, x0, #0x228
   853ec:	93407c42 	sxtw	x2, w2
   853f0:	d2812300 	mov	x0, #0x918                 	// #2328
   853f4:	9b007c40 	mul	x0, x2, x0
   853f8:	8b000020 	add	x0, x1, x0
   853fc:	f9400000 	ldr	x0, [x0]
   85400:	f90017e0 	str	x0, [sp, #40]
   85404:	f0000000 	adrp	x0, 88000 <UART_CR_RTSEN>
   85408:	9108a001 	add	x1, x0, #0x228
   8540c:	b9803fe2 	ldrsw	x2, [sp, #60]
   85410:	d2812300 	mov	x0, #0x918                 	// #2328
   85414:	9b007c40 	mul	x0, x2, x0
   85418:	8b000020 	add	x0, x1, x0
   8541c:	f9401800 	ldr	x0, [x0, #48]
   85420:	12001c00 	and	w0, w0, #0xff
   85424:	51002000 	sub	w0, w0, #0x8
   85428:	39009fe0 	strb	w0, [sp, #39]
   8542c:	f0000000 	adrp	x0, 88000 <UART_CR_RTSEN>
   85430:	9108a001 	add	x1, x0, #0x228
   85434:	b9803fe2 	ldrsw	x2, [sp, #60]
   85438:	d2812300 	mov	x0, #0x918                 	// #2328
   8543c:	9b007c40 	mul	x0, x2, x0
   85440:	8b000020 	add	x0, x1, x0
   85444:	f9401800 	ldr	x0, [x0, #48]
   85448:	d2800101 	mov	x1, #0x8                   	// #8
   8544c:	cb000020 	sub	x0, x1, x0
   85450:	d37df000 	lsl	x0, x0, #3
   85454:	f94017e1 	ldr	x1, [sp, #40]
   85458:	8b000020 	add	x0, x1, x0
   8545c:	f90017e0 	str	x0, [sp, #40]
   85460:	39409fe0 	ldrb	w0, [sp, #39]
   85464:	7100001f 	cmp	w0, #0x0
   85468:	54000820 	b.eq	8556c <Exception+0x924>  // b.none
   8546c:	b90047ff 	str	wzr, [sp, #68]
   85470:	14000021 	b	854f4 <Exception+0x8ac>
   85474:	b98047e0 	ldrsw	x0, [sp, #68]
   85478:	d37df001 	lsl	x1, x0, #3
   8547c:	f0000000 	adrp	x0, 88000 <UART_CR_RTSEN>
   85480:	9108a002 	add	x2, x0, #0x228
   85484:	b9803fe3 	ldrsw	x3, [sp, #60]
   85488:	d2812300 	mov	x0, #0x918                 	// #2328
   8548c:	9b007c60 	mul	x0, x3, x0
   85490:	8b000040 	add	x0, x2, x0
   85494:	f9401c00 	ldr	x0, [x0, #56]
   85498:	8b000020 	add	x0, x1, x0
   8549c:	91010000 	add	x0, x0, #0x40
   854a0:	aa0003e2 	mov	x2, x0
   854a4:	b98047e0 	ldrsw	x0, [sp, #68]
   854a8:	d37df000 	lsl	x0, x0, #3
   854ac:	f94017e1 	ldr	x1, [sp, #40]
   854b0:	8b000020 	add	x0, x1, x0
   854b4:	f9400041 	ldr	x1, [x2]
   854b8:	f9000001 	str	x1, [x0]
   854bc:	b98047e0 	ldrsw	x0, [sp, #68]
   854c0:	d37df000 	lsl	x0, x0, #3
   854c4:	f94017e1 	ldr	x1, [sp, #40]
   854c8:	8b000020 	add	x0, x1, x0
   854cc:	f9400000 	ldr	x0, [x0]
   854d0:	aa0003e3 	mov	x3, x0
   854d4:	b94047e2 	ldr	w2, [sp, #68]
   854d8:	f0000000 	adrp	x0, 88000 <UART_CR_RTSEN>
   854dc:	9101e001 	add	x1, x0, #0x78
   854e0:	d2800020 	mov	x0, #0x1                   	// #1
   854e4:	97fff9ba 	bl	83bcc <uart_printf>
   854e8:	b94047e0 	ldr	w0, [sp, #68]
   854ec:	11000400 	add	w0, w0, #0x1
   854f0:	b90047e0 	str	w0, [sp, #68]
   854f4:	39409fe0 	ldrb	w0, [sp, #39]
   854f8:	b94047e1 	ldr	w1, [sp, #68]
   854fc:	6b00003f 	cmp	w1, w0
   85500:	54fffbab 	b.lt	85474 <Exception+0x82c>  // b.tstop
   85504:	b94037e0 	ldr	w0, [sp, #52]
   85508:	51000402 	sub	w2, w0, #0x1
   8550c:	f0000000 	adrp	x0, 88000 <UART_CR_RTSEN>
   85510:	9108a001 	add	x1, x0, #0x228
   85514:	93407c42 	sxtw	x2, w2
   85518:	d2812300 	mov	x0, #0x918                 	// #2328
   8551c:	9b007c40 	mul	x0, x2, x0
   85520:	8b000020 	add	x0, x1, x0
   85524:	f9400000 	ldr	x0, [x0]
   85528:	f94017e1 	ldr	x1, [sp, #40]
   8552c:	aa0103e3 	mov	x3, x1
   85530:	aa0003e2 	mov	x2, x0
   85534:	f0000000 	adrp	x0, 88000 <UART_CR_RTSEN>
   85538:	91024001 	add	x1, x0, #0x90
   8553c:	d2800020 	mov	x0, #0x1                   	// #1
   85540:	97fff9a3 	bl	83bcc <uart_printf>
   85544:	b94037e0 	ldr	w0, [sp, #52]
   85548:	51000402 	sub	w2, w0, #0x1
   8554c:	f0000000 	adrp	x0, 88000 <UART_CR_RTSEN>
   85550:	9108a001 	add	x1, x0, #0x228
   85554:	93407c42 	sxtw	x2, w2
   85558:	d2812300 	mov	x0, #0x918                 	// #2328
   8555c:	9b007c40 	mul	x0, x2, x0
   85560:	8b000020 	add	x0, x1, x0
   85564:	f94017e1 	ldr	x1, [sp, #40]
   85568:	f9000001 	str	x1, [x0]
   8556c:	b98037e1 	ldrsw	x1, [sp, #52]
   85570:	f0000000 	adrp	x0, 88000 <UART_CR_RTSEN>
   85574:	9108a002 	add	x2, x0, #0x228
   85578:	b9803fe3 	ldrsw	x3, [sp, #60]
   8557c:	d2812300 	mov	x0, #0x918                 	// #2328
   85580:	9b007c60 	mul	x0, x3, x0
   85584:	8b000040 	add	x0, x2, x0
   85588:	f9001001 	str	x1, [x0, #32]
   8558c:	14000002 	b	85594 <Exception+0x94c>
   85590:	d503201f 	nop
   85594:	94000034 	bl	85664 <Schedule>
   85598:	f0000000 	adrp	x0, 88000 <UART_CR_RTSEN>
   8559c:	9102c001 	add	x1, x0, #0xb0
   855a0:	d2800020 	mov	x0, #0x1                   	// #1
   855a4:	97fff98a 	bl	83bcc <uart_printf>
   855a8:	b90043ff 	str	wzr, [sp, #64]
   855ac:	14000025 	b	85640 <Exception+0x9f8>
   855b0:	d0000060 	adrp	x0, 93000 <PROCS+0xadd8>
   855b4:	91202002 	add	x2, x0, #0x808
   855b8:	b98043e1 	ldrsw	x1, [sp, #64]
   855bc:	aa0103e0 	mov	x0, x1
   855c0:	d37ff800 	lsl	x0, x0, #1
   855c4:	8b010000 	add	x0, x0, x1
   855c8:	d37ef400 	lsl	x0, x0, #2
   855cc:	8b000040 	add	x0, x2, x0
   855d0:	b9400005 	ldr	w5, [x0]
   855d4:	d0000060 	adrp	x0, 93000 <PROCS+0xadd8>
   855d8:	91202002 	add	x2, x0, #0x808
   855dc:	b98043e1 	ldrsw	x1, [sp, #64]
   855e0:	aa0103e0 	mov	x0, x1
   855e4:	d37ff800 	lsl	x0, x0, #1
   855e8:	8b010000 	add	x0, x0, x1
   855ec:	d37ef400 	lsl	x0, x0, #2
   855f0:	8b000040 	add	x0, x2, x0
   855f4:	b9400803 	ldr	w3, [x0, #8]
   855f8:	d0000060 	adrp	x0, 93000 <PROCS+0xadd8>
   855fc:	91202002 	add	x2, x0, #0x808
   85600:	b98043e1 	ldrsw	x1, [sp, #64]
   85604:	aa0103e0 	mov	x0, x1
   85608:	d37ff800 	lsl	x0, x0, #1
   8560c:	8b010000 	add	x0, x0, x1
   85610:	d37ef400 	lsl	x0, x0, #2
   85614:	8b000040 	add	x0, x2, x0
   85618:	b9400400 	ldr	w0, [x0, #4]
   8561c:	2a0003e4 	mov	w4, w0
   85620:	2a0503e2 	mov	w2, w5
   85624:	f0000000 	adrp	x0, 88000 <UART_CR_RTSEN>
   85628:	91038001 	add	x1, x0, #0xe0
   8562c:	d2800020 	mov	x0, #0x1                   	// #1
   85630:	97fff967 	bl	83bcc <uart_printf>
   85634:	b94043e0 	ldr	w0, [sp, #64]
   85638:	11000400 	add	w0, w0, #0x1
   8563c:	b90043e0 	str	w0, [sp, #64]
   85640:	b94043e0 	ldr	w0, [sp, #64]
   85644:	71004c1f 	cmp	w0, #0x13
   85648:	54fffb4d 	b.le	855b0 <Exception+0x968>
   8564c:	d2800020 	mov	x0, #0x1                   	// #1
   85650:	97fff82c 	bl	83700 <uart_getc>
   85654:	97ffea7e 	bl	8004c <EXIT>
   85658:	d503201f 	nop
   8565c:	a8c57bfd 	ldp	x29, x30, [sp], #80
   85660:	d65f03c0 	ret

0000000000085664 <Schedule>:
   85664:	a9be7bfd 	stp	x29, x30, [sp, #-32]!
   85668:	910003fd 	mov	x29, sp
   8566c:	97fffa4d 	bl	83fa0 <scrPick>
   85670:	2a0003e1 	mov	w1, w0
   85674:	f0000000 	adrp	x0, 88000 <UART_CR_RTSEN>
   85678:	91088000 	add	x0, x0, #0x220
   8567c:	b9000001 	str	w1, [x0]
   85680:	f0000000 	adrp	x0, 88000 <UART_CR_RTSEN>
   85684:	91088000 	add	x0, x0, #0x220
   85688:	b9400000 	ldr	w0, [x0]
   8568c:	3100041f 	cmn	w0, #0x1
   85690:	54000500 	b.eq	85730 <Schedule+0xcc>  // b.none
   85694:	f0000000 	adrp	x0, 88000 <UART_CR_RTSEN>
   85698:	91088000 	add	x0, x0, #0x220
   8569c:	b9400000 	ldr	w0, [x0]
   856a0:	51000400 	sub	w0, w0, #0x1
   856a4:	b9001fe0 	str	w0, [sp, #28]
   856a8:	b9801fe1 	ldrsw	x1, [sp, #28]
   856ac:	d2812300 	mov	x0, #0x918                 	// #2328
   856b0:	9b007c20 	mul	x0, x1, x0
   856b4:	91008001 	add	x1, x0, #0x20
   856b8:	f0000000 	adrp	x0, 88000 <UART_CR_RTSEN>
   856bc:	9108a000 	add	x0, x0, #0x228
   856c0:	8b000024 	add	x4, x1, x0
   856c4:	f0000000 	adrp	x0, 88000 <UART_CR_RTSEN>
   856c8:	9108a001 	add	x1, x0, #0x228
   856cc:	b9801fe2 	ldrsw	x2, [sp, #28]
   856d0:	d2812300 	mov	x0, #0x918                 	// #2328
   856d4:	9b007c40 	mul	x0, x2, x0
   856d8:	8b000020 	add	x0, x1, x0
   856dc:	f9400405 	ldr	x5, [x0, #8]
   856e0:	f0000000 	adrp	x0, 88000 <UART_CR_RTSEN>
   856e4:	9108a001 	add	x1, x0, #0x228
   856e8:	b9801fe2 	ldrsw	x2, [sp, #28]
   856ec:	d2812300 	mov	x0, #0x918                 	// #2328
   856f0:	9b007c40 	mul	x0, x2, x0
   856f4:	8b000020 	add	x0, x1, x0
   856f8:	f9400006 	ldr	x6, [x0]
   856fc:	f0000000 	adrp	x0, 88000 <UART_CR_RTSEN>
   85700:	9108a001 	add	x1, x0, #0x228
   85704:	b9801fe2 	ldrsw	x2, [sp, #28]
   85708:	d2812300 	mov	x0, #0x918                 	// #2328
   8570c:	9b007c40 	mul	x0, x2, x0
   85710:	8b000020 	add	x0, x1, x0
   85714:	b9401000 	ldr	w0, [x0, #16]
   85718:	2a0003e3 	mov	w3, w0
   8571c:	aa0603e2 	mov	x2, x6
   85720:	aa0503e1 	mov	x1, x5
   85724:	aa0403e0 	mov	x0, x4
   85728:	94000482 	bl	86930 <Begin>
   8572c:	14000002 	b	85734 <Schedule+0xd0>
   85730:	d503201f 	nop
   85734:	a8c27bfd 	ldp	x29, x30, [sp], #32
   85738:	d65f03c0 	ret

000000000008573c <KernelCreate>:
   8573c:	a9bd7bfd 	stp	x29, x30, [sp, #-48]!
   85740:	910003fd 	mov	x29, sp
   85744:	b9001fe0 	str	w0, [sp, #28]
   85748:	f9000be1 	str	x1, [sp, #16]
   8574c:	b9001be2 	str	w2, [sp, #24]
   85750:	b9002fff 	str	wzr, [sp, #44]
   85754:	14000070 	b	85914 <KernelCreate+0x1d8>
   85758:	f0000000 	adrp	x0, 88000 <UART_CR_RTSEN>
   8575c:	9108a001 	add	x1, x0, #0x228
   85760:	b9802fe2 	ldrsw	x2, [sp, #44]
   85764:	d2812300 	mov	x0, #0x918                 	// #2328
   85768:	9b007c40 	mul	x0, x2, x0
   8576c:	8b000020 	add	x0, x1, x0
   85770:	f9400400 	ldr	x0, [x0, #8]
   85774:	f100001f 	cmp	x0, #0x0
   85778:	54000c81 	b.ne	85908 <KernelCreate+0x1cc>  // b.any
   8577c:	f0000000 	adrp	x0, 88000 <UART_CR_RTSEN>
   85780:	9108a001 	add	x1, x0, #0x228
   85784:	b9802fe2 	ldrsw	x2, [sp, #44]
   85788:	d2812300 	mov	x0, #0x918                 	// #2328
   8578c:	9b007c40 	mul	x0, x2, x0
   85790:	8b000020 	add	x0, x1, x0
   85794:	f9400be1 	ldr	x1, [sp, #16]
   85798:	f9000401 	str	x1, [x0, #8]
   8579c:	f0000000 	adrp	x0, 88000 <UART_CR_RTSEN>
   857a0:	91086000 	add	x0, x0, #0x218
   857a4:	f9400001 	ldr	x1, [x0]
   857a8:	b9402fe0 	ldr	w0, [sp, #44]
   857ac:	11000400 	add	w0, w0, #0x1
   857b0:	53103c00 	lsl	w0, w0, #16
   857b4:	93407c00 	sxtw	x0, w0
   857b8:	8b000021 	add	x1, x1, x0
   857bc:	f0000000 	adrp	x0, 88000 <UART_CR_RTSEN>
   857c0:	9108a002 	add	x2, x0, #0x228
   857c4:	b9802fe3 	ldrsw	x3, [sp, #44]
   857c8:	d2812300 	mov	x0, #0x918                 	// #2328
   857cc:	9b007c60 	mul	x0, x3, x0
   857d0:	8b000040 	add	x0, x2, x0
   857d4:	f9000001 	str	x1, [x0]
   857d8:	f0000000 	adrp	x0, 88000 <UART_CR_RTSEN>
   857dc:	9108a001 	add	x1, x0, #0x228
   857e0:	b9802fe2 	ldrsw	x2, [sp, #44]
   857e4:	d2812300 	mov	x0, #0x918                 	// #2328
   857e8:	9b007c40 	mul	x0, x2, x0
   857ec:	8b000020 	add	x0, x1, x0
   857f0:	b9401be1 	ldr	w1, [sp, #24]
   857f4:	b9001401 	str	w1, [x0, #20]
   857f8:	f0000000 	adrp	x0, 88000 <UART_CR_RTSEN>
   857fc:	9108a001 	add	x1, x0, #0x228
   85800:	b9802fe2 	ldrsw	x2, [sp, #44]
   85804:	d2812300 	mov	x0, #0x918                 	// #2328
   85808:	9b007c40 	mul	x0, x2, x0
   8580c:	8b000020 	add	x0, x1, x0
   85810:	b9401fe1 	ldr	w1, [sp, #28]
   85814:	b9001c01 	str	w1, [x0, #28]
   85818:	b9402fe0 	ldr	w0, [sp, #44]
   8581c:	11000401 	add	w1, w0, #0x1
   85820:	f0000000 	adrp	x0, 88000 <UART_CR_RTSEN>
   85824:	9108a002 	add	x2, x0, #0x228
   85828:	b9802fe3 	ldrsw	x3, [sp, #44]
   8582c:	d2812300 	mov	x0, #0x918                 	// #2328
   85830:	9b007c60 	mul	x0, x3, x0
   85834:	8b000040 	add	x0, x2, x0
   85838:	b9001801 	str	w1, [x0, #24]
   8583c:	f0000000 	adrp	x0, 88000 <UART_CR_RTSEN>
   85840:	9108a001 	add	x1, x0, #0x228
   85844:	b9802fe2 	ldrsw	x2, [sp, #44]
   85848:	d2812300 	mov	x0, #0x918                 	// #2328
   8584c:	9b007c40 	mul	x0, x2, x0
   85850:	8b000020 	add	x0, x1, x0
   85854:	b900101f 	str	wzr, [x0, #16]
   85858:	f0000000 	adrp	x0, 88000 <UART_CR_RTSEN>
   8585c:	9108a001 	add	x1, x0, #0x228
   85860:	b9802fe2 	ldrsw	x2, [sp, #44]
   85864:	d2812300 	mov	x0, #0x918                 	// #2328
   85868:	9b007c40 	mul	x0, x2, x0
   8586c:	8b000020 	add	x0, x1, x0
   85870:	3924481f 	strb	wzr, [x0, #2322]
   85874:	f0000000 	adrp	x0, 88000 <UART_CR_RTSEN>
   85878:	9108a001 	add	x1, x0, #0x228
   8587c:	b9802fe2 	ldrsw	x2, [sp, #44]
   85880:	d2812300 	mov	x0, #0x918                 	// #2328
   85884:	9b007c40 	mul	x0, x2, x0
   85888:	8b000020 	add	x0, x1, x0
   8588c:	39244c1f 	strb	wzr, [x0, #2323]
   85890:	f0000000 	adrp	x0, 88000 <UART_CR_RTSEN>
   85894:	9108a001 	add	x1, x0, #0x228
   85898:	b9802fe2 	ldrsw	x2, [sp, #44]
   8589c:	d2812300 	mov	x0, #0x918                 	// #2328
   858a0:	9b007c40 	mul	x0, x2, x0
   858a4:	8b000020 	add	x0, x1, x0
   858a8:	3924401f 	strb	wzr, [x0, #2320]
   858ac:	f0000000 	adrp	x0, 88000 <UART_CR_RTSEN>
   858b0:	9108a001 	add	x1, x0, #0x228
   858b4:	b9802fe2 	ldrsw	x2, [sp, #44]
   858b8:	d2812300 	mov	x0, #0x918                 	// #2328
   858bc:	9b007c40 	mul	x0, x2, x0
   858c0:	8b000020 	add	x0, x1, x0
   858c4:	3924441f 	strb	wzr, [x0, #2321]
   858c8:	b9402fe0 	ldr	w0, [sp, #44]
   858cc:	11000403 	add	w3, w0, #0x1
   858d0:	f0000000 	adrp	x0, 88000 <UART_CR_RTSEN>
   858d4:	9108a001 	add	x1, x0, #0x228
   858d8:	b9802fe2 	ldrsw	x2, [sp, #44]
   858dc:	d2812300 	mov	x0, #0x918                 	// #2328
   858e0:	9b007c40 	mul	x0, x2, x0
   858e4:	8b000020 	add	x0, x1, x0
   858e8:	b9401c00 	ldr	w0, [x0, #28]
   858ec:	52800002 	mov	w2, #0x0                   	// #0
   858f0:	2a0003e1 	mov	w1, w0
   858f4:	2a0303e0 	mov	w0, w3
   858f8:	97fff905 	bl	83d0c <scrSchedule>
   858fc:	b9402fe0 	ldr	w0, [sp, #44]
   85900:	11000400 	add	w0, w0, #0x1
   85904:	14000008 	b	85924 <KernelCreate+0x1e8>
   85908:	b9402fe0 	ldr	w0, [sp, #44]
   8590c:	11000400 	add	w0, w0, #0x1
   85910:	b9002fe0 	str	w0, [sp, #44]
   85914:	b9402fe0 	ldr	w0, [sp, #44]
   85918:	71004c1f 	cmp	w0, #0x13
   8591c:	54fff1ed 	b.le	85758 <KernelCreate+0x1c>
   85920:	12800020 	mov	w0, #0xfffffffe            	// #-2
   85924:	a8c37bfd 	ldp	x29, x30, [sp], #48
   85928:	d65f03c0 	ret

000000000008592c <Kill>:
   8592c:	d10043ff 	sub	sp, sp, #0x10
   85930:	b9000fe0 	str	w0, [sp, #12]
   85934:	f0000000 	adrp	x0, 88000 <UART_CR_RTSEN>
   85938:	9108a001 	add	x1, x0, #0x228
   8593c:	b9800fe2 	ldrsw	x2, [sp, #12]
   85940:	d2812300 	mov	x0, #0x918                 	// #2328
   85944:	9b007c40 	mul	x0, x2, x0
   85948:	8b000020 	add	x0, x1, x0
   8594c:	f900001f 	str	xzr, [x0]
   85950:	f0000000 	adrp	x0, 88000 <UART_CR_RTSEN>
   85954:	9108a001 	add	x1, x0, #0x228
   85958:	b9800fe2 	ldrsw	x2, [sp, #12]
   8595c:	d2812300 	mov	x0, #0x918                 	// #2328
   85960:	9b007c40 	mul	x0, x2, x0
   85964:	8b000020 	add	x0, x1, x0
   85968:	f900041f 	str	xzr, [x0, #8]
   8596c:	d503201f 	nop
   85970:	910043ff 	add	sp, sp, #0x10
   85974:	d65f03c0 	ret

0000000000085978 <Send>:
   85978:	d10083ff 	sub	sp, sp, #0x20
   8597c:	b9001fe0 	str	w0, [sp, #28]
   85980:	f9000be1 	str	x1, [sp, #16]
   85984:	b9001be2 	str	w2, [sp, #24]
   85988:	f90007e3 	str	x3, [sp, #8]
   8598c:	b90007e4 	str	w4, [sp, #4]
   85990:	d40000a1 	svc	#0x5
   85994:	d503201f 	nop
   85998:	d503201f 	nop
   8599c:	910083ff 	add	sp, sp, #0x20
   859a0:	d65f03c0 	ret

00000000000859a4 <Receive>:
   859a4:	d10083ff 	sub	sp, sp, #0x20
   859a8:	f9000fe0 	str	x0, [sp, #24]
   859ac:	f9000be1 	str	x1, [sp, #16]
   859b0:	b9000fe2 	str	w2, [sp, #12]
   859b4:	d40000c1 	svc	#0x6
   859b8:	d503201f 	nop
   859bc:	d503201f 	nop
   859c0:	910083ff 	add	sp, sp, #0x20
   859c4:	d65f03c0 	ret

00000000000859c8 <Reply>:
   859c8:	d10043ff 	sub	sp, sp, #0x10
   859cc:	b9000fe0 	str	w0, [sp, #12]
   859d0:	f90003e1 	str	x1, [sp]
   859d4:	b9000be2 	str	w2, [sp, #8]
   859d8:	d40000e1 	svc	#0x7
   859dc:	d503201f 	nop
   859e0:	d503201f 	nop
   859e4:	910043ff 	add	sp, sp, #0x10
   859e8:	d65f03c0 	ret

00000000000859ec <MyPriority>:
   859ec:	d10043ff 	sub	sp, sp, #0x10
   859f0:	b9000fe0 	str	w0, [sp, #12]
   859f4:	d4000101 	svc	#0x8
   859f8:	d503201f 	nop
   859fc:	d503201f 	nop
   85a00:	910043ff 	add	sp, sp, #0x10
   85a04:	d65f03c0 	ret

0000000000085a08 <MyTid>:
   85a08:	d4000061 	svc	#0x3
   85a0c:	d503201f 	nop
   85a10:	d503201f 	nop
   85a14:	d65f03c0 	ret

0000000000085a18 <MyParentTid>:
   85a18:	d4000081 	svc	#0x4
   85a1c:	d503201f 	nop
   85a20:	d503201f 	nop
   85a24:	d65f03c0 	ret

0000000000085a28 <Create>:
   85a28:	d10043ff 	sub	sp, sp, #0x10
   85a2c:	b9000fe0 	str	w0, [sp, #12]
   85a30:	f90003e1 	str	x1, [sp]
   85a34:	d4000041 	svc	#0x2
   85a38:	d503201f 	nop
   85a3c:	d503201f 	nop
   85a40:	910043ff 	add	sp, sp, #0x10
   85a44:	d65f03c0 	ret

0000000000085a48 <CreateArgs>:
   85a48:	d10083ff 	sub	sp, sp, #0x20
   85a4c:	b9001fe0 	str	w0, [sp, #28]
   85a50:	f9000be1 	str	x1, [sp, #16]
   85a54:	f90007e2 	str	x2, [sp, #8]
   85a58:	f90003e3 	str	x3, [sp]
   85a5c:	d4000121 	svc	#0x9
   85a60:	d503201f 	nop
   85a64:	d503201f 	nop
   85a68:	910083ff 	add	sp, sp, #0x20
   85a6c:	d65f03c0 	ret

0000000000085a70 <Exit>:
   85a70:	a9bf7bfd 	stp	x29, x30, [sp, #-16]!
   85a74:	910003fd 	mov	x29, sp
   85a78:	97fff3e5 	bl	82a0c <Deregister>
   85a7c:	d4000001 	svc	#0x0
   85a80:	d503201f 	nop
   85a84:	a8c17bfd 	ldp	x29, x30, [sp], #16
   85a88:	d65f03c0 	ret

0000000000085a8c <Yield>:
   85a8c:	d4000021 	svc	#0x1
   85a90:	d503201f 	nop
   85a94:	d65f03c0 	ret

0000000000085a98 <get_timerLO>:
   85a98:	d10043ff 	sub	sp, sp, #0x10
   85a9c:	d2860001 	mov	x1, #0x3000                	// #12288
   85aa0:	f2bfc001 	movk	x1, #0xfe00, lsl #16
   85aa4:	52800080 	mov	w0, #0x4                   	// #4
   85aa8:	2a0003e0 	mov	w0, w0
   85aac:	8b000020 	add	x0, x1, x0
   85ab0:	b9400000 	ldr	w0, [x0]
   85ab4:	b9000fe0 	str	w0, [sp, #12]
   85ab8:	b9400fe0 	ldr	w0, [sp, #12]
   85abc:	910043ff 	add	sp, sp, #0x10
   85ac0:	d65f03c0 	ret

0000000000085ac4 <get_timerHI>:
   85ac4:	d10043ff 	sub	sp, sp, #0x10
   85ac8:	d2860001 	mov	x1, #0x3000                	// #12288
   85acc:	f2bfc001 	movk	x1, #0xfe00, lsl #16
   85ad0:	52800100 	mov	w0, #0x8                   	// #8
   85ad4:	2a0003e0 	mov	w0, w0
   85ad8:	8b000020 	add	x0, x1, x0
   85adc:	b9400000 	ldr	w0, [x0]
   85ae0:	b9000fe0 	str	w0, [sp, #12]
   85ae4:	b9400fe0 	ldr	w0, [sp, #12]
   85ae8:	910043ff 	add	sp, sp, #0x10
   85aec:	d65f03c0 	ret

0000000000085af0 <a2d>:
   85af0:	d10043ff 	sub	sp, sp, #0x10
   85af4:	39003fe0 	strb	w0, [sp, #15]
   85af8:	39403fe0 	ldrb	w0, [sp, #15]
   85afc:	7100bc1f 	cmp	w0, #0x2f
   85b00:	540000e9 	b.ls	85b1c <a2d+0x2c>  // b.plast
   85b04:	39403fe0 	ldrb	w0, [sp, #15]
   85b08:	7100e41f 	cmp	w0, #0x39
   85b0c:	54000088 	b.hi	85b1c <a2d+0x2c>  // b.pmore
   85b10:	39403fe0 	ldrb	w0, [sp, #15]
   85b14:	5100c000 	sub	w0, w0, #0x30
   85b18:	14000014 	b	85b68 <a2d+0x78>
   85b1c:	39403fe0 	ldrb	w0, [sp, #15]
   85b20:	7101801f 	cmp	w0, #0x60
   85b24:	540000e9 	b.ls	85b40 <a2d+0x50>  // b.plast
   85b28:	39403fe0 	ldrb	w0, [sp, #15]
   85b2c:	7101981f 	cmp	w0, #0x66
   85b30:	54000088 	b.hi	85b40 <a2d+0x50>  // b.pmore
   85b34:	39403fe0 	ldrb	w0, [sp, #15]
   85b38:	51015c00 	sub	w0, w0, #0x57
   85b3c:	1400000b 	b	85b68 <a2d+0x78>
   85b40:	39403fe0 	ldrb	w0, [sp, #15]
   85b44:	7101001f 	cmp	w0, #0x40
   85b48:	540000e9 	b.ls	85b64 <a2d+0x74>  // b.plast
   85b4c:	39403fe0 	ldrb	w0, [sp, #15]
   85b50:	7101181f 	cmp	w0, #0x46
   85b54:	54000088 	b.hi	85b64 <a2d+0x74>  // b.pmore
   85b58:	39403fe0 	ldrb	w0, [sp, #15]
   85b5c:	5100dc00 	sub	w0, w0, #0x37
   85b60:	14000002 	b	85b68 <a2d+0x78>
   85b64:	12800000 	mov	w0, #0xffffffff            	// #-1
   85b68:	910043ff 	add	sp, sp, #0x10
   85b6c:	d65f03c0 	ret

0000000000085b70 <ui2a>:
   85b70:	d10083ff 	sub	sp, sp, #0x20
   85b74:	b9000fe0 	str	w0, [sp, #12]
   85b78:	b9000be1 	str	w1, [sp, #8]
   85b7c:	f90003e2 	str	x2, [sp]
   85b80:	b9001fff 	str	wzr, [sp, #28]
   85b84:	52800020 	mov	w0, #0x1                   	// #1
   85b88:	b9001be0 	str	w0, [sp, #24]
   85b8c:	14000005 	b	85ba0 <ui2a+0x30>
   85b90:	b9401be1 	ldr	w1, [sp, #24]
   85b94:	b9400be0 	ldr	w0, [sp, #8]
   85b98:	1b007c20 	mul	w0, w1, w0
   85b9c:	b9001be0 	str	w0, [sp, #24]
   85ba0:	b9400fe1 	ldr	w1, [sp, #12]
   85ba4:	b9401be0 	ldr	w0, [sp, #24]
   85ba8:	1ac00820 	udiv	w0, w1, w0
   85bac:	b9400be1 	ldr	w1, [sp, #8]
   85bb0:	6b00003f 	cmp	w1, w0
   85bb4:	54fffee9 	b.ls	85b90 <ui2a+0x20>  // b.plast
   85bb8:	1400002a 	b	85c60 <ui2a+0xf0>
   85bbc:	b9400fe1 	ldr	w1, [sp, #12]
   85bc0:	b9401be0 	ldr	w0, [sp, #24]
   85bc4:	1ac00820 	udiv	w0, w1, w0
   85bc8:	b90017e0 	str	w0, [sp, #20]
   85bcc:	b9400fe0 	ldr	w0, [sp, #12]
   85bd0:	b9401be1 	ldr	w1, [sp, #24]
   85bd4:	1ac10802 	udiv	w2, w0, w1
   85bd8:	b9401be1 	ldr	w1, [sp, #24]
   85bdc:	1b017c41 	mul	w1, w2, w1
   85be0:	4b010000 	sub	w0, w0, w1
   85be4:	b9000fe0 	str	w0, [sp, #12]
   85be8:	b9401be1 	ldr	w1, [sp, #24]
   85bec:	b9400be0 	ldr	w0, [sp, #8]
   85bf0:	1ac00820 	udiv	w0, w1, w0
   85bf4:	b9001be0 	str	w0, [sp, #24]
   85bf8:	b9401fe0 	ldr	w0, [sp, #28]
   85bfc:	7100001f 	cmp	w0, #0x0
   85c00:	540000e1 	b.ne	85c1c <ui2a+0xac>  // b.any
   85c04:	b94017e0 	ldr	w0, [sp, #20]
   85c08:	7100001f 	cmp	w0, #0x0
   85c0c:	5400008c 	b.gt	85c1c <ui2a+0xac>
   85c10:	b9401be0 	ldr	w0, [sp, #24]
   85c14:	7100001f 	cmp	w0, #0x0
   85c18:	54000241 	b.ne	85c60 <ui2a+0xf0>  // b.any
   85c1c:	b94017e0 	ldr	w0, [sp, #20]
   85c20:	7100241f 	cmp	w0, #0x9
   85c24:	5400006c 	b.gt	85c30 <ui2a+0xc0>
   85c28:	52800601 	mov	w1, #0x30                  	// #48
   85c2c:	14000002 	b	85c34 <ui2a+0xc4>
   85c30:	52800ae1 	mov	w1, #0x57                  	// #87
   85c34:	b94017e0 	ldr	w0, [sp, #20]
   85c38:	12001c02 	and	w2, w0, #0xff
   85c3c:	f94003e0 	ldr	x0, [sp]
   85c40:	91000403 	add	x3, x0, #0x1
   85c44:	f90003e3 	str	x3, [sp]
   85c48:	0b020021 	add	w1, w1, w2
   85c4c:	12001c21 	and	w1, w1, #0xff
   85c50:	39000001 	strb	w1, [x0]
   85c54:	b9401fe0 	ldr	w0, [sp, #28]
   85c58:	11000400 	add	w0, w0, #0x1
   85c5c:	b9001fe0 	str	w0, [sp, #28]
   85c60:	b9401be0 	ldr	w0, [sp, #24]
   85c64:	7100001f 	cmp	w0, #0x0
   85c68:	54fffaa1 	b.ne	85bbc <ui2a+0x4c>  // b.any
   85c6c:	f94003e0 	ldr	x0, [sp]
   85c70:	3900001f 	strb	wzr, [x0]
   85c74:	d503201f 	nop
   85c78:	910083ff 	add	sp, sp, #0x20
   85c7c:	d65f03c0 	ret

0000000000085c80 <i2a>:
   85c80:	a9be7bfd 	stp	x29, x30, [sp, #-32]!
   85c84:	910003fd 	mov	x29, sp
   85c88:	b9001fe0 	str	w0, [sp, #28]
   85c8c:	f9000be1 	str	x1, [sp, #16]
   85c90:	b9401fe0 	ldr	w0, [sp, #28]
   85c94:	7100001f 	cmp	w0, #0x0
   85c98:	5400012a 	b.ge	85cbc <i2a+0x3c>  // b.tcont
   85c9c:	b9401fe0 	ldr	w0, [sp, #28]
   85ca0:	4b0003e0 	neg	w0, w0
   85ca4:	b9001fe0 	str	w0, [sp, #28]
   85ca8:	f9400be0 	ldr	x0, [sp, #16]
   85cac:	91000401 	add	x1, x0, #0x1
   85cb0:	f9000be1 	str	x1, [sp, #16]
   85cb4:	528005a1 	mov	w1, #0x2d                  	// #45
   85cb8:	39000001 	strb	w1, [x0]
   85cbc:	b9401fe0 	ldr	w0, [sp, #28]
   85cc0:	f9400be2 	ldr	x2, [sp, #16]
   85cc4:	52800141 	mov	w1, #0xa                   	// #10
   85cc8:	97ffffaa 	bl	85b70 <ui2a>
   85ccc:	d503201f 	nop
   85cd0:	a8c27bfd 	ldp	x29, x30, [sp], #32
   85cd4:	d65f03c0 	ret

0000000000085cd8 <memset>:
   85cd8:	d100c3ff 	sub	sp, sp, #0x30
   85cdc:	f9000fe0 	str	x0, [sp, #24]
   85ce0:	b90017e1 	str	w1, [sp, #20]
   85ce4:	f90007e2 	str	x2, [sp, #8]
   85ce8:	f9400fe0 	ldr	x0, [sp, #24]
   85cec:	f90017e0 	str	x0, [sp, #40]
   85cf0:	1400000a 	b	85d18 <memset+0x40>
   85cf4:	f94017e0 	ldr	x0, [sp, #40]
   85cf8:	91000401 	add	x1, x0, #0x1
   85cfc:	f90017e1 	str	x1, [sp, #40]
   85d00:	b94017e1 	ldr	w1, [sp, #20]
   85d04:	12001c21 	and	w1, w1, #0xff
   85d08:	39000001 	strb	w1, [x0]
   85d0c:	f94007e0 	ldr	x0, [sp, #8]
   85d10:	d1000400 	sub	x0, x0, #0x1
   85d14:	f90007e0 	str	x0, [sp, #8]
   85d18:	f94007e0 	ldr	x0, [sp, #8]
   85d1c:	f100001f 	cmp	x0, #0x0
   85d20:	54fffea1 	b.ne	85cf4 <memset+0x1c>  // b.any
   85d24:	f9400fe0 	ldr	x0, [sp, #24]
   85d28:	9100c3ff 	add	sp, sp, #0x30
   85d2c:	d65f03c0 	ret

0000000000085d30 <memcpy>:
   85d30:	d10103ff 	sub	sp, sp, #0x40
   85d34:	f9000fe0 	str	x0, [sp, #24]
   85d38:	f9000be1 	str	x1, [sp, #16]
   85d3c:	f90007e2 	str	x2, [sp, #8]
   85d40:	f9400be0 	ldr	x0, [sp, #16]
   85d44:	f9001fe0 	str	x0, [sp, #56]
   85d48:	f9400fe0 	ldr	x0, [sp, #24]
   85d4c:	f9001be0 	str	x0, [sp, #48]
   85d50:	f90017ff 	str	xzr, [sp, #40]
   85d54:	1400000c 	b	85d84 <memcpy+0x54>
   85d58:	f9401fe1 	ldr	x1, [sp, #56]
   85d5c:	91000420 	add	x0, x1, #0x1
   85d60:	f9001fe0 	str	x0, [sp, #56]
   85d64:	f9401be0 	ldr	x0, [sp, #48]
   85d68:	91000402 	add	x2, x0, #0x1
   85d6c:	f9001be2 	str	x2, [sp, #48]
   85d70:	39400021 	ldrb	w1, [x1]
   85d74:	39000001 	strb	w1, [x0]
   85d78:	f94017e0 	ldr	x0, [sp, #40]
   85d7c:	91000400 	add	x0, x0, #0x1
   85d80:	f90017e0 	str	x0, [sp, #40]
   85d84:	f94017e1 	ldr	x1, [sp, #40]
   85d88:	f94007e0 	ldr	x0, [sp, #8]
   85d8c:	eb00003f 	cmp	x1, x0
   85d90:	54fffe43 	b.cc	85d58 <memcpy+0x28>  // b.lo, b.ul, b.last
   85d94:	f9400fe0 	ldr	x0, [sp, #24]
   85d98:	910103ff 	add	sp, sp, #0x40
   85d9c:	d65f03c0 	ret

0000000000085da0 <print_time>:
   85da0:	d10143ff 	sub	sp, sp, #0x50
   85da4:	a9017bfd 	stp	x29, x30, [sp, #16]
   85da8:	910043fd 	add	x29, sp, #0x10
   85dac:	f9001fe0 	str	x0, [sp, #56]
   85db0:	b90037e1 	str	w1, [sp, #52]
   85db4:	b90033e2 	str	w2, [sp, #48]
   85db8:	f90017e3 	str	x3, [sp, #40]
   85dbc:	f9401fe2 	ldr	x2, [sp, #56]
   85dc0:	b202e7e0 	mov	x0, #0xcccccccccccccccc    	// #-3689348814741910324
   85dc4:	f29999a0 	movk	x0, #0xcccd
   85dc8:	9bc07c40 	umulh	x0, x2, x0
   85dcc:	d343fc01 	lsr	x1, x0, #3
   85dd0:	aa0103e0 	mov	x0, x1
   85dd4:	d37ef400 	lsl	x0, x0, #2
   85dd8:	8b010000 	add	x0, x0, x1
   85ddc:	d37ff800 	lsl	x0, x0, #1
   85de0:	cb000041 	sub	x1, x2, x0
   85de4:	2a0103e0 	mov	w0, w1
   85de8:	b9004fe0 	str	w0, [sp, #76]
   85dec:	f9401fe1 	ldr	x1, [sp, #56]
   85df0:	b202e7e0 	mov	x0, #0xcccccccccccccccc    	// #-3689348814741910324
   85df4:	f29999a0 	movk	x0, #0xcccd
   85df8:	9bc07c20 	umulh	x0, x1, x0
   85dfc:	d343fc00 	lsr	x0, x0, #3
   85e00:	f9001fe0 	str	x0, [sp, #56]
   85e04:	f9401fe2 	ldr	x2, [sp, #56]
   85e08:	b201e3e0 	mov	x0, #0x8888888888888888    	// #-8608480567731124088
   85e0c:	f2911120 	movk	x0, #0x8889
   85e10:	9bc07c40 	umulh	x0, x2, x0
   85e14:	d345fc01 	lsr	x1, x0, #5
   85e18:	aa0103e0 	mov	x0, x1
   85e1c:	d37cec00 	lsl	x0, x0, #4
   85e20:	cb010000 	sub	x0, x0, x1
   85e24:	d37ef400 	lsl	x0, x0, #2
   85e28:	cb000041 	sub	x1, x2, x0
   85e2c:	2a0103e0 	mov	w0, w1
   85e30:	b9004be0 	str	w0, [sp, #72]
   85e34:	f9401fe1 	ldr	x1, [sp, #56]
   85e38:	b201e3e0 	mov	x0, #0x8888888888888888    	// #-8608480567731124088
   85e3c:	f2911120 	movk	x0, #0x8889
   85e40:	9bc07c20 	umulh	x0, x1, x0
   85e44:	d345fc00 	lsr	x0, x0, #5
   85e48:	f9001fe0 	str	x0, [sp, #56]
   85e4c:	f9401fe2 	ldr	x2, [sp, #56]
   85e50:	b201e3e0 	mov	x0, #0x8888888888888888    	// #-8608480567731124088
   85e54:	f2911120 	movk	x0, #0x8889
   85e58:	9bc07c40 	umulh	x0, x2, x0
   85e5c:	d345fc01 	lsr	x1, x0, #5
   85e60:	aa0103e0 	mov	x0, x1
   85e64:	d37cec00 	lsl	x0, x0, #4
   85e68:	cb010000 	sub	x0, x0, x1
   85e6c:	d37ef400 	lsl	x0, x0, #2
   85e70:	cb000041 	sub	x1, x2, x0
   85e74:	2a0103e0 	mov	w0, w1
   85e78:	b90047e0 	str	w0, [sp, #68]
   85e7c:	f9401fe1 	ldr	x1, [sp, #56]
   85e80:	b201e3e0 	mov	x0, #0x8888888888888888    	// #-8608480567731124088
   85e84:	f2911120 	movk	x0, #0x8889
   85e88:	9bc07c20 	umulh	x0, x1, x0
   85e8c:	d345fc00 	lsr	x0, x0, #5
   85e90:	f9001fe0 	str	x0, [sp, #56]
   85e94:	f9401fe2 	ldr	x2, [sp, #56]
   85e98:	d342fc41 	lsr	x1, x2, #2
   85e9c:	d29eb860 	mov	x0, #0xf5c3                	// #62915
   85ea0:	f2ab8500 	movk	x0, #0x5c28, lsl #16
   85ea4:	f2d851e0 	movk	x0, #0xc28f, lsl #32
   85ea8:	f2e51ea0 	movk	x0, #0x28f5, lsl #48
   85eac:	9bc07c20 	umulh	x0, x1, x0
   85eb0:	d342fc01 	lsr	x1, x0, #2
   85eb4:	aa0103e0 	mov	x0, x1
   85eb8:	d37ff800 	lsl	x0, x0, #1
   85ebc:	8b010000 	add	x0, x0, x1
   85ec0:	d37df000 	lsl	x0, x0, #3
   85ec4:	8b010000 	add	x0, x0, x1
   85ec8:	d37ef400 	lsl	x0, x0, #2
   85ecc:	cb000041 	sub	x1, x2, x0
   85ed0:	2a0103e0 	mov	w0, w1
   85ed4:	b90043e0 	str	w0, [sp, #64]
   85ed8:	b94033e3 	ldr	w3, [sp, #48]
   85edc:	b94037e2 	ldr	w2, [sp, #52]
   85ee0:	f0000000 	adrp	x0, 88000 <UART_CR_RTSEN>
   85ee4:	9104e001 	add	x1, x0, #0x138
   85ee8:	f94017e0 	ldr	x0, [sp, #40]
   85eec:	97fff738 	bl	83bcc <uart_printf>
   85ef0:	b94043e1 	ldr	w1, [sp, #64]
   85ef4:	5290a3e0 	mov	w0, #0x851f                	// #34079
   85ef8:	72aa3d60 	movk	w0, #0x51eb, lsl #16
   85efc:	9ba07c20 	umull	x0, w1, w0
   85f00:	d360fc00 	lsr	x0, x0, #32
   85f04:	53057c08 	lsr	w8, w0, #5
   85f08:	b94043e1 	ldr	w1, [sp, #64]
   85f0c:	529999a0 	mov	w0, #0xcccd                	// #52429
   85f10:	72b99980 	movk	w0, #0xcccc, lsl #16
   85f14:	9ba07c20 	umull	x0, w1, w0
   85f18:	d360fc00 	lsr	x0, x0, #32
   85f1c:	53037c01 	lsr	w1, w0, #3
   85f20:	529999a0 	mov	w0, #0xcccd                	// #52429
   85f24:	72b99980 	movk	w0, #0xcccc, lsl #16
   85f28:	9ba07c20 	umull	x0, w1, w0
   85f2c:	d360fc00 	lsr	x0, x0, #32
   85f30:	53037c02 	lsr	w2, w0, #3
   85f34:	2a0203e0 	mov	w0, w2
   85f38:	531e7400 	lsl	w0, w0, #2
   85f3c:	0b020000 	add	w0, w0, w2
   85f40:	531f7800 	lsl	w0, w0, #1
   85f44:	4b000022 	sub	w2, w1, w0
   85f48:	b94043e1 	ldr	w1, [sp, #64]
   85f4c:	529999a0 	mov	w0, #0xcccd                	// #52429
   85f50:	72b99980 	movk	w0, #0xcccc, lsl #16
   85f54:	9ba07c20 	umull	x0, w1, w0
   85f58:	d360fc00 	lsr	x0, x0, #32
   85f5c:	53037c03 	lsr	w3, w0, #3
   85f60:	2a0303e0 	mov	w0, w3
   85f64:	531e7400 	lsl	w0, w0, #2
   85f68:	0b030000 	add	w0, w0, w3
   85f6c:	531f7800 	lsl	w0, w0, #1
   85f70:	4b000023 	sub	w3, w1, w0
   85f74:	b94047e1 	ldr	w1, [sp, #68]
   85f78:	529999a0 	mov	w0, #0xcccd                	// #52429
   85f7c:	72b99980 	movk	w0, #0xcccc, lsl #16
   85f80:	9ba07c20 	umull	x0, w1, w0
   85f84:	d360fc00 	lsr	x0, x0, #32
   85f88:	53037c09 	lsr	w9, w0, #3
   85f8c:	b94047e1 	ldr	w1, [sp, #68]
   85f90:	529999a0 	mov	w0, #0xcccd                	// #52429
   85f94:	72b99980 	movk	w0, #0xcccc, lsl #16
   85f98:	9ba07c20 	umull	x0, w1, w0
   85f9c:	d360fc00 	lsr	x0, x0, #32
   85fa0:	53037c04 	lsr	w4, w0, #3
   85fa4:	2a0403e0 	mov	w0, w4
   85fa8:	531e7400 	lsl	w0, w0, #2
   85fac:	0b040000 	add	w0, w0, w4
   85fb0:	531f7800 	lsl	w0, w0, #1
   85fb4:	4b000024 	sub	w4, w1, w0
   85fb8:	b9404be1 	ldr	w1, [sp, #72]
   85fbc:	529999a0 	mov	w0, #0xcccd                	// #52429
   85fc0:	72b99980 	movk	w0, #0xcccc, lsl #16
   85fc4:	9ba07c20 	umull	x0, w1, w0
   85fc8:	d360fc00 	lsr	x0, x0, #32
   85fcc:	53037c06 	lsr	w6, w0, #3
   85fd0:	b9404be5 	ldr	w5, [sp, #72]
   85fd4:	529999a0 	mov	w0, #0xcccd                	// #52429
   85fd8:	72b99980 	movk	w0, #0xcccc, lsl #16
   85fdc:	9ba07ca0 	umull	x0, w5, w0
   85fe0:	d360fc00 	lsr	x0, x0, #32
   85fe4:	53037c01 	lsr	w1, w0, #3
   85fe8:	2a0103e0 	mov	w0, w1
   85fec:	531e7400 	lsl	w0, w0, #2
   85ff0:	0b010000 	add	w0, w0, w1
   85ff4:	531f7800 	lsl	w0, w0, #1
   85ff8:	4b0000a1 	sub	w1, w5, w0
   85ffc:	b9404fe0 	ldr	w0, [sp, #76]
   86000:	b9000be0 	str	w0, [sp, #8]
   86004:	b90003e1 	str	w1, [sp]
   86008:	2a0603e7 	mov	w7, w6
   8600c:	2a0403e6 	mov	w6, w4
   86010:	2a0903e5 	mov	w5, w9
   86014:	2a0303e4 	mov	w4, w3
   86018:	2a0203e3 	mov	w3, w2
   8601c:	2a0803e2 	mov	w2, w8
   86020:	d0000000 	adrp	x0, 88000 <UART_CR_RTSEN>
   86024:	91052001 	add	x1, x0, #0x148
   86028:	f94017e0 	ldr	x0, [sp, #40]
   8602c:	97fff6e8 	bl	83bcc <uart_printf>
   86030:	b9404be0 	ldr	w0, [sp, #72]
   86034:	12000400 	and	w0, w0, #0x3
   86038:	7100001f 	cmp	w0, #0x0
   8603c:	540000c1 	b.ne	86054 <print_time+0x2b4>  // b.any
   86040:	d0000000 	adrp	x0, 88000 <UART_CR_RTSEN>
   86044:	9105a001 	add	x1, x0, #0x168
   86048:	f94017e0 	ldr	x0, [sp, #40]
   8604c:	97fff6e0 	bl	83bcc <uart_printf>
   86050:	1400001c 	b	860c0 <print_time+0x320>
   86054:	b9404be0 	ldr	w0, [sp, #72]
   86058:	12000400 	and	w0, w0, #0x3
   8605c:	7100041f 	cmp	w0, #0x1
   86060:	540000c1 	b.ne	86078 <print_time+0x2d8>  // b.any
   86064:	d0000000 	adrp	x0, 88000 <UART_CR_RTSEN>
   86068:	9105c001 	add	x1, x0, #0x170
   8606c:	f94017e0 	ldr	x0, [sp, #40]
   86070:	97fff6d7 	bl	83bcc <uart_printf>
   86074:	14000013 	b	860c0 <print_time+0x320>
   86078:	b9404be0 	ldr	w0, [sp, #72]
   8607c:	12000400 	and	w0, w0, #0x3
   86080:	7100081f 	cmp	w0, #0x2
   86084:	540000c1 	b.ne	8609c <print_time+0x2fc>  // b.any
   86088:	d0000000 	adrp	x0, 88000 <UART_CR_RTSEN>
   8608c:	9105e001 	add	x1, x0, #0x178
   86090:	f94017e0 	ldr	x0, [sp, #40]
   86094:	97fff6ce 	bl	83bcc <uart_printf>
   86098:	1400000a 	b	860c0 <print_time+0x320>
   8609c:	b9404be0 	ldr	w0, [sp, #72]
   860a0:	12000400 	and	w0, w0, #0x3
   860a4:	71000c1f 	cmp	w0, #0x3
   860a8:	540000c1 	b.ne	860c0 <print_time+0x320>  // b.any
   860ac:	d0000000 	adrp	x0, 88000 <UART_CR_RTSEN>
   860b0:	91060001 	add	x1, x0, #0x180
   860b4:	f94017e0 	ldr	x0, [sp, #40]
   860b8:	97fff6c5 	bl	83bcc <uart_printf>
   860bc:	d503201f 	nop
   860c0:	d503201f 	nop
   860c4:	a9417bfd 	ldp	x29, x30, [sp, #16]
   860c8:	910143ff 	add	sp, sp, #0x50
   860cc:	d65f03c0 	ret

00000000000860d0 <print_mstime>:
   860d0:	a9bc7bfd 	stp	x29, x30, [sp, #-64]!
   860d4:	910003fd 	mov	x29, sp
   860d8:	f90017e0 	str	x0, [sp, #40]
   860dc:	b90027e1 	str	w1, [sp, #36]
   860e0:	f9000fe2 	str	x2, [sp, #24]
   860e4:	b90023e3 	str	w3, [sp, #32]
   860e8:	528000a0 	mov	w0, #0x5                   	// #5
   860ec:	b9003fe0 	str	w0, [sp, #60]
   860f0:	52800820 	mov	w0, #0x41                  	// #65
   860f4:	b9003be0 	str	w0, [sp, #56]
   860f8:	52800080 	mov	w0, #0x4                   	// #4
   860fc:	b90037e0 	str	w0, [sp, #52]
   86100:	52800160 	mov	w0, #0xb                   	// #11
   86104:	b90033e0 	str	w0, [sp, #48]
   86108:	d0000000 	adrp	x0, 88000 <UART_CR_RTSEN>
   8610c:	91062001 	add	x1, x0, #0x188
   86110:	f9400fe0 	ldr	x0, [sp, #24]
   86114:	97fff6ae 	bl	83bcc <uart_printf>
   86118:	f94017e0 	ldr	x0, [sp, #40]
   8611c:	d342fc01 	lsr	x1, x0, #2
   86120:	d29eb860 	mov	x0, #0xf5c3                	// #62915
   86124:	f2ab8500 	movk	x0, #0x5c28, lsl #16
   86128:	f2d851e0 	movk	x0, #0xc28f, lsl #32
   8612c:	f2e51ea0 	movk	x0, #0x28f5, lsl #48
   86130:	9bc07c20 	umulh	x0, x1, x0
   86134:	d342fc00 	lsr	x0, x0, #2
   86138:	f90017e0 	str	x0, [sp, #40]
   8613c:	b94027e0 	ldr	w0, [sp, #36]
   86140:	12000001 	and	w1, w0, #0x1
   86144:	b94037e0 	ldr	w0, [sp, #52]
   86148:	1b007c21 	mul	w1, w1, w0
   8614c:	b9403fe0 	ldr	w0, [sp, #60]
   86150:	0b000021 	add	w1, w1, w0
   86154:	b94023e0 	ldr	w0, [sp, #32]
   86158:	0b000022 	add	w2, w1, w0
   8615c:	b94027e0 	ldr	w0, [sp, #36]
   86160:	53017c01 	lsr	w1, w0, #1
   86164:	b94033e0 	ldr	w0, [sp, #48]
   86168:	1b007c21 	mul	w1, w1, w0
   8616c:	b9403be0 	ldr	w0, [sp, #56]
   86170:	0b000020 	add	w0, w1, w0
   86174:	2a0003e3 	mov	w3, w0
   86178:	d0000000 	adrp	x0, 88000 <UART_CR_RTSEN>
   8617c:	9104e001 	add	x1, x0, #0x138
   86180:	f9400fe0 	ldr	x0, [sp, #24]
   86184:	97fff692 	bl	83bcc <uart_printf>
   86188:	f94017e1 	ldr	x1, [sp, #40]
   8618c:	d290d3e0 	mov	x0, #0x869f                	// #34463
   86190:	f2a00020 	movk	x0, #0x1, lsl #16
   86194:	eb00003f 	cmp	x1, x0
   86198:	540000c9 	b.ls	861b0 <print_mstime+0xe0>  // b.plast
   8619c:	d0000000 	adrp	x0, 88000 <UART_CR_RTSEN>
   861a0:	91064001 	add	x1, x0, #0x190
   861a4:	f9400fe0 	ldr	x0, [sp, #24]
   861a8:	97fff689 	bl	83bcc <uart_printf>
   861ac:	1400004b 	b	862d8 <print_mstime+0x208>
   861b0:	f94017e1 	ldr	x1, [sp, #40]
   861b4:	d28b2960 	mov	x0, #0x594b                	// #22859
   861b8:	f2a710c0 	movk	x0, #0x3886, lsl #16
   861bc:	f2d8bac0 	movk	x0, #0xc5d6, lsl #32
   861c0:	f2e68da0 	movk	x0, #0x346d, lsl #48
   861c4:	9bc07c20 	umulh	x0, x1, x0
   861c8:	d34bfc07 	lsr	x7, x0, #11
   861cc:	f94017e0 	ldr	x0, [sp, #40]
   861d0:	d343fc01 	lsr	x1, x0, #3
   861d4:	d29ef9e0 	mov	x0, #0xf7cf                	// #63439
   861d8:	f2bc6a60 	movk	x0, #0xe353, lsl #16
   861dc:	f2d374a0 	movk	x0, #0x9ba5, lsl #32
   861e0:	f2e41880 	movk	x0, #0x20c4, lsl #48
   861e4:	9bc07c20 	umulh	x0, x1, x0
   861e8:	d344fc02 	lsr	x2, x0, #4
   861ec:	b202e7e0 	mov	x0, #0xcccccccccccccccc    	// #-3689348814741910324
   861f0:	f29999a0 	movk	x0, #0xcccd
   861f4:	9bc07c40 	umulh	x0, x2, x0
   861f8:	d343fc01 	lsr	x1, x0, #3
   861fc:	aa0103e0 	mov	x0, x1
   86200:	d37ef400 	lsl	x0, x0, #2
   86204:	8b010000 	add	x0, x0, x1
   86208:	d37ff800 	lsl	x0, x0, #1
   8620c:	cb000041 	sub	x1, x2, x0
   86210:	f94017e0 	ldr	x0, [sp, #40]
   86214:	d342fc02 	lsr	x2, x0, #2
   86218:	d29eb860 	mov	x0, #0xf5c3                	// #62915
   8621c:	f2ab8500 	movk	x0, #0x5c28, lsl #16
   86220:	f2d851e0 	movk	x0, #0xc28f, lsl #32
   86224:	f2e51ea0 	movk	x0, #0x28f5, lsl #48
   86228:	9bc07c40 	umulh	x0, x2, x0
   8622c:	d342fc03 	lsr	x3, x0, #2
   86230:	b202e7e0 	mov	x0, #0xcccccccccccccccc    	// #-3689348814741910324
   86234:	f29999a0 	movk	x0, #0xcccd
   86238:	9bc07c60 	umulh	x0, x3, x0
   8623c:	d343fc02 	lsr	x2, x0, #3
   86240:	aa0203e0 	mov	x0, x2
   86244:	d37ef400 	lsl	x0, x0, #2
   86248:	8b020000 	add	x0, x0, x2
   8624c:	d37ff800 	lsl	x0, x0, #1
   86250:	cb000062 	sub	x2, x3, x0
   86254:	f94017e3 	ldr	x3, [sp, #40]
   86258:	b202e7e0 	mov	x0, #0xcccccccccccccccc    	// #-3689348814741910324
   8625c:	f29999a0 	movk	x0, #0xcccd
   86260:	9bc07c60 	umulh	x0, x3, x0
   86264:	d343fc04 	lsr	x4, x0, #3
   86268:	b202e7e0 	mov	x0, #0xcccccccccccccccc    	// #-3689348814741910324
   8626c:	f29999a0 	movk	x0, #0xcccd
   86270:	9bc07c80 	umulh	x0, x4, x0
   86274:	d343fc03 	lsr	x3, x0, #3
   86278:	aa0303e0 	mov	x0, x3
   8627c:	d37ef400 	lsl	x0, x0, #2
   86280:	8b030000 	add	x0, x0, x3
   86284:	d37ff800 	lsl	x0, x0, #1
   86288:	cb000083 	sub	x3, x4, x0
   8628c:	f94017e5 	ldr	x5, [sp, #40]
   86290:	b202e7e0 	mov	x0, #0xcccccccccccccccc    	// #-3689348814741910324
   86294:	f29999a0 	movk	x0, #0xcccd
   86298:	9bc07ca0 	umulh	x0, x5, x0
   8629c:	d343fc04 	lsr	x4, x0, #3
   862a0:	aa0403e0 	mov	x0, x4
   862a4:	d37ef400 	lsl	x0, x0, #2
   862a8:	8b040000 	add	x0, x0, x4
   862ac:	d37ff800 	lsl	x0, x0, #1
   862b0:	cb0000a4 	sub	x4, x5, x0
   862b4:	aa0403e6 	mov	x6, x4
   862b8:	aa0303e5 	mov	x5, x3
   862bc:	aa0203e4 	mov	x4, x2
   862c0:	aa0103e3 	mov	x3, x1
   862c4:	aa0703e2 	mov	x2, x7
   862c8:	d0000000 	adrp	x0, 88000 <UART_CR_RTSEN>
   862cc:	91066001 	add	x1, x0, #0x198
   862d0:	f9400fe0 	ldr	x0, [sp, #24]
   862d4:	97fff63e 	bl	83bcc <uart_printf>
   862d8:	d0000000 	adrp	x0, 88000 <UART_CR_RTSEN>
   862dc:	9106a001 	add	x1, x0, #0x1a8
   862e0:	f9400fe0 	ldr	x0, [sp, #24]
   862e4:	97fff63a 	bl	83bcc <uart_printf>
   862e8:	d503201f 	nop
   862ec:	a8c47bfd 	ldp	x29, x30, [sp], #64
   862f0:	d65f03c0 	ret

00000000000862f4 <print_tspeed>:
   862f4:	a9bb7bfd 	stp	x29, x30, [sp, #-80]!
   862f8:	910003fd 	mov	x29, sp
   862fc:	f90017e0 	str	x0, [sp, #40]
   86300:	f90013e1 	str	x1, [sp, #32]
   86304:	f9000fe2 	str	x2, [sp, #24]
   86308:	528001c0 	mov	w0, #0xe                   	// #14
   8630c:	b90047e0 	str	w0, [sp, #68]
   86310:	528001a0 	mov	w0, #0xd                   	// #13
   86314:	b90043e0 	str	w0, [sp, #64]
   86318:	52800200 	mov	w0, #0x10                  	// #16
   8631c:	b9003fe0 	str	w0, [sp, #60]
   86320:	52800020 	mov	w0, #0x1                   	// #1
   86324:	b9004fe0 	str	w0, [sp, #76]
   86328:	b9004bff 	str	wzr, [sp, #72]
   8632c:	14000079 	b	86510 <print_tspeed+0x21c>
   86330:	b9404be0 	ldr	w0, [sp, #72]
   86334:	d37ef400 	lsl	x0, x0, #2
   86338:	f94017e1 	ldr	x1, [sp, #40]
   8633c:	8b000020 	add	x0, x1, x0
   86340:	b9400000 	ldr	w0, [x0]
   86344:	7100001f 	cmp	w0, #0x0
   86348:	54000de0 	b.eq	86504 <print_tspeed+0x210>  // b.none
   8634c:	b9404be0 	ldr	w0, [sp, #72]
   86350:	d37ef400 	lsl	x0, x0, #2
   86354:	f94017e1 	ldr	x1, [sp, #40]
   86358:	8b000020 	add	x0, x1, x0
   8635c:	b9400000 	ldr	w0, [x0]
   86360:	b9003be0 	str	w0, [sp, #56]
   86364:	b9404fe2 	ldr	w2, [sp, #76]
   86368:	528aaac0 	mov	w0, #0x5556                	// #21846
   8636c:	72aaaaa0 	movk	w0, #0x5555, lsl #16
   86370:	9b207c40 	smull	x0, w2, w0
   86374:	d360fc01 	lsr	x1, x0, #32
   86378:	131f7c40 	asr	w0, w2, #31
   8637c:	4b000021 	sub	w1, w1, w0
   86380:	2a0103e0 	mov	w0, w1
   86384:	531f7800 	lsl	w0, w0, #1
   86388:	0b010000 	add	w0, w0, w1
   8638c:	4b000041 	sub	w1, w2, w0
   86390:	b94047e0 	ldr	w0, [sp, #68]
   86394:	0b000022 	add	w2, w1, w0
   86398:	b9404fe0 	ldr	w0, [sp, #76]
   8639c:	528aaac1 	mov	w1, #0x5556                	// #21846
   863a0:	72aaaaa1 	movk	w1, #0x5555, lsl #16
   863a4:	9b217c01 	smull	x1, w0, w1
   863a8:	d360fc21 	lsr	x1, x1, #32
   863ac:	131f7c00 	asr	w0, w0, #31
   863b0:	4b000021 	sub	w1, w1, w0
   863b4:	b9403fe0 	ldr	w0, [sp, #60]
   863b8:	1b007c21 	mul	w1, w1, w0
   863bc:	b94043e0 	ldr	w0, [sp, #64]
   863c0:	0b000020 	add	w0, w1, w0
   863c4:	2a0003e3 	mov	w3, w0
   863c8:	d0000000 	adrp	x0, 88000 <UART_CR_RTSEN>
   863cc:	9104e001 	add	x1, x0, #0x138
   863d0:	f9400fe0 	ldr	x0, [sp, #24]
   863d4:	97fff5fe 	bl	83bcc <uart_printf>
   863d8:	b9403be0 	ldr	w0, [sp, #56]
   863dc:	3100041f 	cmn	w0, #0x1
   863e0:	54000321 	b.ne	86444 <print_tspeed+0x150>  // b.any
   863e4:	b9404be1 	ldr	w1, [sp, #72]
   863e8:	529999a0 	mov	w0, #0xcccd                	// #52429
   863ec:	72b99980 	movk	w0, #0xcccc, lsl #16
   863f0:	9ba07c20 	umull	x0, w1, w0
   863f4:	d360fc00 	lsr	x0, x0, #32
   863f8:	53037c04 	lsr	w4, w0, #3
   863fc:	b9404be2 	ldr	w2, [sp, #72]
   86400:	529999a0 	mov	w0, #0xcccd                	// #52429
   86404:	72b99980 	movk	w0, #0xcccc, lsl #16
   86408:	9ba07c40 	umull	x0, w2, w0
   8640c:	d360fc00 	lsr	x0, x0, #32
   86410:	53037c01 	lsr	w1, w0, #3
   86414:	2a0103e0 	mov	w0, w1
   86418:	531e7400 	lsl	w0, w0, #2
   8641c:	0b010000 	add	w0, w0, w1
   86420:	531f7800 	lsl	w0, w0, #1
   86424:	4b000041 	sub	w1, w2, w0
   86428:	2a0103e3 	mov	w3, w1
   8642c:	2a0403e2 	mov	w2, w4
   86430:	d0000000 	adrp	x0, 88000 <UART_CR_RTSEN>
   86434:	9106c001 	add	x1, x0, #0x1b0
   86438:	f9400fe0 	ldr	x0, [sp, #24]
   8643c:	97fff5e4 	bl	83bcc <uart_printf>
   86440:	1400002e 	b	864f8 <print_tspeed+0x204>
   86444:	b9404be1 	ldr	w1, [sp, #72]
   86448:	529999a0 	mov	w0, #0xcccd                	// #52429
   8644c:	72b99980 	movk	w0, #0xcccc, lsl #16
   86450:	9ba07c20 	umull	x0, w1, w0
   86454:	d360fc00 	lsr	x0, x0, #32
   86458:	53037c06 	lsr	w6, w0, #3
   8645c:	b9404be2 	ldr	w2, [sp, #72]
   86460:	529999a0 	mov	w0, #0xcccd                	// #52429
   86464:	72b99980 	movk	w0, #0xcccc, lsl #16
   86468:	9ba07c40 	umull	x0, w2, w0
   8646c:	d360fc00 	lsr	x0, x0, #32
   86470:	53037c01 	lsr	w1, w0, #3
   86474:	2a0103e0 	mov	w0, w1
   86478:	531e7400 	lsl	w0, w0, #2
   8647c:	0b010000 	add	w0, w0, w1
   86480:	531f7800 	lsl	w0, w0, #1
   86484:	4b000041 	sub	w1, w2, w0
   86488:	b9403be0 	ldr	w0, [sp, #56]
   8648c:	528ccce2 	mov	w2, #0x6667                	// #26215
   86490:	72acccc2 	movk	w2, #0x6666, lsl #16
   86494:	9b227c02 	smull	x2, w0, w2
   86498:	d360fc42 	lsr	x2, x2, #32
   8649c:	13027c42 	asr	w2, w2, #2
   864a0:	131f7c00 	asr	w0, w0, #31
   864a4:	4b000044 	sub	w4, w2, w0
   864a8:	b9403be3 	ldr	w3, [sp, #56]
   864ac:	528ccce0 	mov	w0, #0x6667                	// #26215
   864b0:	72acccc0 	movk	w0, #0x6666, lsl #16
   864b4:	9b207c60 	smull	x0, w3, w0
   864b8:	d360fc00 	lsr	x0, x0, #32
   864bc:	13027c02 	asr	w2, w0, #2
   864c0:	131f7c60 	asr	w0, w3, #31
   864c4:	4b000042 	sub	w2, w2, w0
   864c8:	2a0203e0 	mov	w0, w2
   864cc:	531e7400 	lsl	w0, w0, #2
   864d0:	0b020000 	add	w0, w0, w2
   864d4:	531f7800 	lsl	w0, w0, #1
   864d8:	4b000062 	sub	w2, w3, w0
   864dc:	2a0203e5 	mov	w5, w2
   864e0:	2a0103e3 	mov	w3, w1
   864e4:	2a0603e2 	mov	w2, w6
   864e8:	d0000000 	adrp	x0, 88000 <UART_CR_RTSEN>
   864ec:	91072001 	add	x1, x0, #0x1c8
   864f0:	f9400fe0 	ldr	x0, [sp, #24]
   864f4:	97fff5b6 	bl	83bcc <uart_printf>
   864f8:	b9404fe0 	ldr	w0, [sp, #76]
   864fc:	11000400 	add	w0, w0, #0x1
   86500:	b9004fe0 	str	w0, [sp, #76]
   86504:	b9404be0 	ldr	w0, [sp, #72]
   86508:	11000400 	add	w0, w0, #0x1
   8650c:	b9004be0 	str	w0, [sp, #72]
   86510:	b9404be0 	ldr	w0, [sp, #72]
   86514:	f94013e1 	ldr	x1, [sp, #32]
   86518:	eb00003f 	cmp	x1, x0
   8651c:	54fff0a8 	b.hi	86330 <print_tspeed+0x3c>  // b.pmore
   86520:	14000025 	b	865b4 <print_tspeed+0x2c0>
   86524:	b9404fe2 	ldr	w2, [sp, #76]
   86528:	528aaac0 	mov	w0, #0x5556                	// #21846
   8652c:	72aaaaa0 	movk	w0, #0x5555, lsl #16
   86530:	9b207c40 	smull	x0, w2, w0
   86534:	d360fc01 	lsr	x1, x0, #32
   86538:	131f7c40 	asr	w0, w2, #31
   8653c:	4b000021 	sub	w1, w1, w0
   86540:	2a0103e0 	mov	w0, w1
   86544:	531f7800 	lsl	w0, w0, #1
   86548:	0b010000 	add	w0, w0, w1
   8654c:	4b000041 	sub	w1, w2, w0
   86550:	b94047e0 	ldr	w0, [sp, #68]
   86554:	0b000022 	add	w2, w1, w0
   86558:	b9404fe0 	ldr	w0, [sp, #76]
   8655c:	528aaac1 	mov	w1, #0x5556                	// #21846
   86560:	72aaaaa1 	movk	w1, #0x5555, lsl #16
   86564:	9b217c01 	smull	x1, w0, w1
   86568:	d360fc21 	lsr	x1, x1, #32
   8656c:	131f7c00 	asr	w0, w0, #31
   86570:	4b000021 	sub	w1, w1, w0
   86574:	b9403fe0 	ldr	w0, [sp, #60]
   86578:	1b007c21 	mul	w1, w1, w0
   8657c:	b94043e0 	ldr	w0, [sp, #64]
   86580:	0b000020 	add	w0, w1, w0
   86584:	2a0003e3 	mov	w3, w0
   86588:	d0000000 	adrp	x0, 88000 <UART_CR_RTSEN>
   8658c:	9104e001 	add	x1, x0, #0x138
   86590:	f9400fe0 	ldr	x0, [sp, #24]
   86594:	97fff58e 	bl	83bcc <uart_printf>
   86598:	d0000000 	adrp	x0, 88000 <UART_CR_RTSEN>
   8659c:	91078001 	add	x1, x0, #0x1e0
   865a0:	f9400fe0 	ldr	x0, [sp, #24]
   865a4:	97fff58a 	bl	83bcc <uart_printf>
   865a8:	b9404fe0 	ldr	w0, [sp, #76]
   865ac:	11000400 	add	w0, w0, #0x1
   865b0:	b9004fe0 	str	w0, [sp, #76]
   865b4:	b9404fe0 	ldr	w0, [sp, #76]
   865b8:	7100201f 	cmp	w0, #0x8
   865bc:	54fffb4d 	b.le	86524 <print_tspeed+0x230>
   865c0:	d0000000 	adrp	x0, 88000 <UART_CR_RTSEN>
   865c4:	9106a001 	add	x1, x0, #0x1a8
   865c8:	f9400fe0 	ldr	x0, [sp, #24]
   865cc:	97fff580 	bl	83bcc <uart_printf>
   865d0:	d503201f 	nop
   865d4:	a8c57bfd 	ldp	x29, x30, [sp], #80
   865d8:	d65f03c0 	ret

00000000000865dc <print_sensors>:
   865dc:	a9bc7bfd 	stp	x29, x30, [sp, #-64]!
   865e0:	910003fd 	mov	x29, sp
   865e4:	f90017e0 	str	x0, [sp, #40]
   865e8:	f90013e1 	str	x1, [sp, #32]
   865ec:	b9001fe2 	str	w2, [sp, #28]
   865f0:	b9001be3 	str	w3, [sp, #24]
   865f4:	f9000be4 	str	x4, [sp, #16]
   865f8:	d0000000 	adrp	x0, 88000 <UART_CR_RTSEN>
   865fc:	91062001 	add	x1, x0, #0x188
   86600:	f9400be0 	ldr	x0, [sp, #16]
   86604:	97fff572 	bl	83bcc <uart_printf>
   86608:	b9003fff 	str	wzr, [sp, #60]
   8660c:	14000041 	b	86710 <print_sensors+0x134>
   86610:	b9403fe0 	ldr	w0, [sp, #60]
   86614:	d37ef400 	lsl	x0, x0, #2
   86618:	f94017e1 	ldr	x1, [sp, #40]
   8661c:	8b000020 	add	x0, x1, x0
   86620:	b9400000 	ldr	w0, [x0]
   86624:	7100001f 	cmp	w0, #0x0
   86628:	540006e0 	b.eq	86704 <print_sensors+0x128>  // b.none
   8662c:	b9401be1 	ldr	w1, [sp, #24]
   86630:	b9403fe0 	ldr	w0, [sp, #60]
   86634:	0b000020 	add	w0, w1, w0
   86638:	b9401fe3 	ldr	w3, [sp, #28]
   8663c:	2a0003e2 	mov	w2, w0
   86640:	d0000000 	adrp	x0, 88000 <UART_CR_RTSEN>
   86644:	9104e001 	add	x1, x0, #0x138
   86648:	f9400be0 	ldr	x0, [sp, #16]
   8664c:	97fff560 	bl	83bcc <uart_printf>
   86650:	52800820 	mov	w0, #0x41                  	// #65
   86654:	3900efe0 	strb	w0, [sp, #59]
   86658:	b9403fe0 	ldr	w0, [sp, #60]
   8665c:	d37ef400 	lsl	x0, x0, #2
   86660:	f94017e1 	ldr	x1, [sp, #40]
   86664:	8b000020 	add	x0, x1, x0
   86668:	b9400000 	ldr	w0, [x0]
   8666c:	528f0f21 	mov	w1, #0x7879                	// #30841
   86670:	72af0f01 	movk	w1, #0x7878, lsl #16
   86674:	9b217c01 	smull	x1, w0, w1
   86678:	d360fc21 	lsr	x1, x1, #32
   8667c:	13037c21 	asr	w1, w1, #3
   86680:	131f7c00 	asr	w0, w0, #31
   86684:	4b000020 	sub	w0, w1, w0
   86688:	12001c00 	and	w0, w0, #0xff
   8668c:	3940efe1 	ldrb	w1, [sp, #59]
   86690:	0b010000 	add	w0, w0, w1
   86694:	12001c00 	and	w0, w0, #0xff
   86698:	2a0003e1 	mov	w1, w0
   8669c:	f9400be0 	ldr	x0, [sp, #16]
   866a0:	97fff456 	bl	837f8 <uart_putc>
   866a4:	b9403fe0 	ldr	w0, [sp, #60]
   866a8:	d37ef400 	lsl	x0, x0, #2
   866ac:	f94017e1 	ldr	x1, [sp, #40]
   866b0:	8b000020 	add	x0, x1, x0
   866b4:	b9400002 	ldr	w2, [x0]
   866b8:	528f0f20 	mov	w0, #0x7879                	// #30841
   866bc:	72af0f00 	movk	w0, #0x7878, lsl #16
   866c0:	9b207c40 	smull	x0, w2, w0
   866c4:	d360fc00 	lsr	x0, x0, #32
   866c8:	13037c01 	asr	w1, w0, #3
   866cc:	131f7c40 	asr	w0, w2, #31
   866d0:	4b000021 	sub	w1, w1, w0
   866d4:	2a0103e0 	mov	w0, w1
   866d8:	531c6c00 	lsl	w0, w0, #4
   866dc:	0b010000 	add	w0, w0, w1
   866e0:	4b000041 	sub	w1, w2, w0
   866e4:	2a0103e2 	mov	w2, w1
   866e8:	d0000000 	adrp	x0, 88000 <UART_CR_RTSEN>
   866ec:	9107a001 	add	x1, x0, #0x1e8
   866f0:	f9400be0 	ldr	x0, [sp, #16]
   866f4:	97fff536 	bl	83bcc <uart_printf>
   866f8:	52800401 	mov	w1, #0x20                  	// #32
   866fc:	f9400be0 	ldr	x0, [sp, #16]
   86700:	97fff43e 	bl	837f8 <uart_putc>
   86704:	b9403fe0 	ldr	w0, [sp, #60]
   86708:	11000400 	add	w0, w0, #0x1
   8670c:	b9003fe0 	str	w0, [sp, #60]
   86710:	b9403fe0 	ldr	w0, [sp, #60]
   86714:	f94013e1 	ldr	x1, [sp, #32]
   86718:	eb00003f 	cmp	x1, x0
   8671c:	54fff7a8 	b.hi	86610 <print_sensors+0x34>  // b.pmore
   86720:	d0000000 	adrp	x0, 88000 <UART_CR_RTSEN>
   86724:	9106a001 	add	x1, x0, #0x1a8
   86728:	f9400be0 	ldr	x0, [sp, #16]
   8672c:	97fff528 	bl	83bcc <uart_printf>
   86730:	d503201f 	nop
   86734:	a8c47bfd 	ldp	x29, x30, [sp], #64
